ARM GAS  /tmp/ccbNDzm8.s 			page 1


   1              		.cpu cortex-m7
   2              		.eabi_attribute 28, 1
   3              		.eabi_attribute 20, 1
   4              		.eabi_attribute 21, 1
   5              		.eabi_attribute 23, 3
   6              		.eabi_attribute 24, 1
   7              		.eabi_attribute 25, 1
   8              		.eabi_attribute 26, 1
   9              		.eabi_attribute 30, 2
  10              		.eabi_attribute 34, 1
  11              		.eabi_attribute 18, 4
  12              		.file	"stm32h7xx_hal.c"
  13              		.text
  14              	.Ltext0:
  15              		.cfi_sections	.debug_frame
  16              		.section	.text.HAL_MspInit,"ax",%progbits
  17              		.align	1
  18              		.p2align 2,,3
  19              		.weak	HAL_MspInit
  20              		.arch armv7e-m
  21              		.syntax unified
  22              		.thumb
  23              		.thumb_func
  24              		.fpu fpv5-d16
  26              	HAL_MspInit:
  27              	.LFB146:
  28              		.file 1 "Drivers/STM32H7xx_HAL_Driver/Src/stm32h7xx_hal.c"
   1:Drivers/STM32H7xx_HAL_Driver/Src/stm32h7xx_hal.c **** /**
   2:Drivers/STM32H7xx_HAL_Driver/Src/stm32h7xx_hal.c ****   ******************************************************************************
   3:Drivers/STM32H7xx_HAL_Driver/Src/stm32h7xx_hal.c ****   * @file    stm32h7xx_hal.c
   4:Drivers/STM32H7xx_HAL_Driver/Src/stm32h7xx_hal.c ****   * @author  MCD Application Team
   5:Drivers/STM32H7xx_HAL_Driver/Src/stm32h7xx_hal.c ****   * @brief   HAL module driver.
   6:Drivers/STM32H7xx_HAL_Driver/Src/stm32h7xx_hal.c ****   *          This is the common part of the HAL initialization
   7:Drivers/STM32H7xx_HAL_Driver/Src/stm32h7xx_hal.c ****   *
   8:Drivers/STM32H7xx_HAL_Driver/Src/stm32h7xx_hal.c ****   ******************************************************************************
   9:Drivers/STM32H7xx_HAL_Driver/Src/stm32h7xx_hal.c ****   * @attention
  10:Drivers/STM32H7xx_HAL_Driver/Src/stm32h7xx_hal.c ****   *
  11:Drivers/STM32H7xx_HAL_Driver/Src/stm32h7xx_hal.c ****   * Copyright (c) 2017 STMicroelectronics.
  12:Drivers/STM32H7xx_HAL_Driver/Src/stm32h7xx_hal.c ****   * All rights reserved.
  13:Drivers/STM32H7xx_HAL_Driver/Src/stm32h7xx_hal.c ****   *
  14:Drivers/STM32H7xx_HAL_Driver/Src/stm32h7xx_hal.c ****   * This software is licensed under terms that can be found in the LICENSE file
  15:Drivers/STM32H7xx_HAL_Driver/Src/stm32h7xx_hal.c ****   * in the root directory of this software component.
  16:Drivers/STM32H7xx_HAL_Driver/Src/stm32h7xx_hal.c ****   * If no LICENSE file comes with this software, it is provided AS-IS.
  17:Drivers/STM32H7xx_HAL_Driver/Src/stm32h7xx_hal.c ****   *
  18:Drivers/STM32H7xx_HAL_Driver/Src/stm32h7xx_hal.c ****   ******************************************************************************
  19:Drivers/STM32H7xx_HAL_Driver/Src/stm32h7xx_hal.c ****   @verbatim
  20:Drivers/STM32H7xx_HAL_Driver/Src/stm32h7xx_hal.c ****   ==============================================================================
  21:Drivers/STM32H7xx_HAL_Driver/Src/stm32h7xx_hal.c ****                      ##### How to use this driver #####
  22:Drivers/STM32H7xx_HAL_Driver/Src/stm32h7xx_hal.c ****   ==============================================================================
  23:Drivers/STM32H7xx_HAL_Driver/Src/stm32h7xx_hal.c ****     [..]
  24:Drivers/STM32H7xx_HAL_Driver/Src/stm32h7xx_hal.c ****     The common HAL driver contains a set of generic and common APIs that can be
  25:Drivers/STM32H7xx_HAL_Driver/Src/stm32h7xx_hal.c ****     used by the PPP peripheral drivers and the user to start using the HAL.
  26:Drivers/STM32H7xx_HAL_Driver/Src/stm32h7xx_hal.c ****     [..]
  27:Drivers/STM32H7xx_HAL_Driver/Src/stm32h7xx_hal.c ****     The HAL contains two APIs' categories:
  28:Drivers/STM32H7xx_HAL_Driver/Src/stm32h7xx_hal.c ****          (+) Common HAL APIs
  29:Drivers/STM32H7xx_HAL_Driver/Src/stm32h7xx_hal.c ****          (+) Services HAL APIs
  30:Drivers/STM32H7xx_HAL_Driver/Src/stm32h7xx_hal.c **** 
ARM GAS  /tmp/ccbNDzm8.s 			page 2


  31:Drivers/STM32H7xx_HAL_Driver/Src/stm32h7xx_hal.c ****   @endverbatim
  32:Drivers/STM32H7xx_HAL_Driver/Src/stm32h7xx_hal.c ****   ******************************************************************************
  33:Drivers/STM32H7xx_HAL_Driver/Src/stm32h7xx_hal.c ****   */
  34:Drivers/STM32H7xx_HAL_Driver/Src/stm32h7xx_hal.c **** 
  35:Drivers/STM32H7xx_HAL_Driver/Src/stm32h7xx_hal.c **** /* Includes ------------------------------------------------------------------*/
  36:Drivers/STM32H7xx_HAL_Driver/Src/stm32h7xx_hal.c **** #include "stm32h7xx_hal.h"
  37:Drivers/STM32H7xx_HAL_Driver/Src/stm32h7xx_hal.c **** 
  38:Drivers/STM32H7xx_HAL_Driver/Src/stm32h7xx_hal.c **** /** @addtogroup STM32H7xx_HAL_Driver
  39:Drivers/STM32H7xx_HAL_Driver/Src/stm32h7xx_hal.c ****   * @{
  40:Drivers/STM32H7xx_HAL_Driver/Src/stm32h7xx_hal.c ****   */
  41:Drivers/STM32H7xx_HAL_Driver/Src/stm32h7xx_hal.c **** 
  42:Drivers/STM32H7xx_HAL_Driver/Src/stm32h7xx_hal.c **** /** @defgroup HAL  HAL
  43:Drivers/STM32H7xx_HAL_Driver/Src/stm32h7xx_hal.c ****   * @brief HAL module driver.
  44:Drivers/STM32H7xx_HAL_Driver/Src/stm32h7xx_hal.c ****   * @{
  45:Drivers/STM32H7xx_HAL_Driver/Src/stm32h7xx_hal.c ****   */
  46:Drivers/STM32H7xx_HAL_Driver/Src/stm32h7xx_hal.c **** 
  47:Drivers/STM32H7xx_HAL_Driver/Src/stm32h7xx_hal.c **** /* Private typedef -----------------------------------------------------------*/
  48:Drivers/STM32H7xx_HAL_Driver/Src/stm32h7xx_hal.c **** /* Private define ------------------------------------------------------------*/
  49:Drivers/STM32H7xx_HAL_Driver/Src/stm32h7xx_hal.c **** /**
  50:Drivers/STM32H7xx_HAL_Driver/Src/stm32h7xx_hal.c ****  * @brief STM32H7xx HAL Driver version number V1.11.0
  51:Drivers/STM32H7xx_HAL_Driver/Src/stm32h7xx_hal.c ****    */
  52:Drivers/STM32H7xx_HAL_Driver/Src/stm32h7xx_hal.c **** #define __STM32H7xx_HAL_VERSION_MAIN   (0x01UL) /*!< [31:24] main version */
  53:Drivers/STM32H7xx_HAL_Driver/Src/stm32h7xx_hal.c **** #define __STM32H7xx_HAL_VERSION_SUB1   (0x0BUL) /*!< [23:16] sub1 version */
  54:Drivers/STM32H7xx_HAL_Driver/Src/stm32h7xx_hal.c **** #define __STM32H7xx_HAL_VERSION_SUB2   (0x00UL) /*!< [15:8]  sub2 version */
  55:Drivers/STM32H7xx_HAL_Driver/Src/stm32h7xx_hal.c **** #define __STM32H7xx_HAL_VERSION_RC     (0x00UL) /*!< [7:0]  release candidate */
  56:Drivers/STM32H7xx_HAL_Driver/Src/stm32h7xx_hal.c **** #define __STM32H7xx_HAL_VERSION         ((__STM32H7xx_HAL_VERSION_MAIN << 24)\
  57:Drivers/STM32H7xx_HAL_Driver/Src/stm32h7xx_hal.c ****                                         |(__STM32H7xx_HAL_VERSION_SUB1 << 16)\
  58:Drivers/STM32H7xx_HAL_Driver/Src/stm32h7xx_hal.c ****                                         |(__STM32H7xx_HAL_VERSION_SUB2 << 8 )\
  59:Drivers/STM32H7xx_HAL_Driver/Src/stm32h7xx_hal.c ****                                         |(__STM32H7xx_HAL_VERSION_RC))
  60:Drivers/STM32H7xx_HAL_Driver/Src/stm32h7xx_hal.c **** 
  61:Drivers/STM32H7xx_HAL_Driver/Src/stm32h7xx_hal.c **** #define IDCODE_DEVID_MASK    ((uint32_t)0x00000FFF)
  62:Drivers/STM32H7xx_HAL_Driver/Src/stm32h7xx_hal.c **** #define VREFBUF_TIMEOUT_VALUE     (uint32_t)10   /* 10 ms  */
  63:Drivers/STM32H7xx_HAL_Driver/Src/stm32h7xx_hal.c **** 
  64:Drivers/STM32H7xx_HAL_Driver/Src/stm32h7xx_hal.c **** /* Private macro -------------------------------------------------------------*/
  65:Drivers/STM32H7xx_HAL_Driver/Src/stm32h7xx_hal.c **** /* Private variables ---------------------------------------------------------*/
  66:Drivers/STM32H7xx_HAL_Driver/Src/stm32h7xx_hal.c **** /* Exported variables --------------------------------------------------------*/
  67:Drivers/STM32H7xx_HAL_Driver/Src/stm32h7xx_hal.c **** 
  68:Drivers/STM32H7xx_HAL_Driver/Src/stm32h7xx_hal.c **** /** @defgroup HAL_Exported_Variables HAL Exported Variables
  69:Drivers/STM32H7xx_HAL_Driver/Src/stm32h7xx_hal.c ****   * @{
  70:Drivers/STM32H7xx_HAL_Driver/Src/stm32h7xx_hal.c ****   */
  71:Drivers/STM32H7xx_HAL_Driver/Src/stm32h7xx_hal.c **** __IO uint32_t uwTick;
  72:Drivers/STM32H7xx_HAL_Driver/Src/stm32h7xx_hal.c **** uint32_t uwTickPrio   = (1UL << __NVIC_PRIO_BITS); /* Invalid PRIO */
  73:Drivers/STM32H7xx_HAL_Driver/Src/stm32h7xx_hal.c **** HAL_TickFreqTypeDef uwTickFreq = HAL_TICK_FREQ_DEFAULT;  /* 1KHz */
  74:Drivers/STM32H7xx_HAL_Driver/Src/stm32h7xx_hal.c **** /**
  75:Drivers/STM32H7xx_HAL_Driver/Src/stm32h7xx_hal.c ****   * @}
  76:Drivers/STM32H7xx_HAL_Driver/Src/stm32h7xx_hal.c ****   */
  77:Drivers/STM32H7xx_HAL_Driver/Src/stm32h7xx_hal.c **** 
  78:Drivers/STM32H7xx_HAL_Driver/Src/stm32h7xx_hal.c **** /* Private function prototypes -----------------------------------------------*/
  79:Drivers/STM32H7xx_HAL_Driver/Src/stm32h7xx_hal.c **** /* Private functions ---------------------------------------------------------*/
  80:Drivers/STM32H7xx_HAL_Driver/Src/stm32h7xx_hal.c **** 
  81:Drivers/STM32H7xx_HAL_Driver/Src/stm32h7xx_hal.c **** /** @defgroup HAL_Private_Functions  HAL Private Functions
  82:Drivers/STM32H7xx_HAL_Driver/Src/stm32h7xx_hal.c ****   * @{
  83:Drivers/STM32H7xx_HAL_Driver/Src/stm32h7xx_hal.c ****   */
  84:Drivers/STM32H7xx_HAL_Driver/Src/stm32h7xx_hal.c **** 
  85:Drivers/STM32H7xx_HAL_Driver/Src/stm32h7xx_hal.c **** /** @defgroup HAL_Group1 Initialization and de-initialization Functions
  86:Drivers/STM32H7xx_HAL_Driver/Src/stm32h7xx_hal.c ****  *  @brief    Initialization and de-initialization functions
  87:Drivers/STM32H7xx_HAL_Driver/Src/stm32h7xx_hal.c ****  *
ARM GAS  /tmp/ccbNDzm8.s 			page 3


  88:Drivers/STM32H7xx_HAL_Driver/Src/stm32h7xx_hal.c **** @verbatim
  89:Drivers/STM32H7xx_HAL_Driver/Src/stm32h7xx_hal.c ****  ===============================================================================
  90:Drivers/STM32H7xx_HAL_Driver/Src/stm32h7xx_hal.c ****               ##### Initialization and de-initialization functions #####
  91:Drivers/STM32H7xx_HAL_Driver/Src/stm32h7xx_hal.c ****  ===============================================================================
  92:Drivers/STM32H7xx_HAL_Driver/Src/stm32h7xx_hal.c ****     [..]  This section provides functions allowing to:
  93:Drivers/STM32H7xx_HAL_Driver/Src/stm32h7xx_hal.c ****       (+) Initializes the Flash interface the NVIC allocation and initial clock
  94:Drivers/STM32H7xx_HAL_Driver/Src/stm32h7xx_hal.c ****           configuration. It initializes the systick also when timeout is needed
  95:Drivers/STM32H7xx_HAL_Driver/Src/stm32h7xx_hal.c ****           and the backup domain when enabled.
  96:Drivers/STM32H7xx_HAL_Driver/Src/stm32h7xx_hal.c ****       (+) De-Initializes common part of the HAL.
  97:Drivers/STM32H7xx_HAL_Driver/Src/stm32h7xx_hal.c ****       (+) Configure The time base source to have 1ms time base with a dedicated
  98:Drivers/STM32H7xx_HAL_Driver/Src/stm32h7xx_hal.c ****           Tick interrupt priority.
  99:Drivers/STM32H7xx_HAL_Driver/Src/stm32h7xx_hal.c ****         (++) SysTick timer is used by default as source of time base, but user
 100:Drivers/STM32H7xx_HAL_Driver/Src/stm32h7xx_hal.c ****              can eventually implement his proper time base source (a general purpose
 101:Drivers/STM32H7xx_HAL_Driver/Src/stm32h7xx_hal.c ****              timer for example or other time source), keeping in mind that Time base
 102:Drivers/STM32H7xx_HAL_Driver/Src/stm32h7xx_hal.c ****              duration should be kept 1ms since PPP_TIMEOUT_VALUEs are defined and
 103:Drivers/STM32H7xx_HAL_Driver/Src/stm32h7xx_hal.c ****              handled in milliseconds basis.
 104:Drivers/STM32H7xx_HAL_Driver/Src/stm32h7xx_hal.c ****         (++) Time base configuration function (HAL_InitTick ()) is called automatically
 105:Drivers/STM32H7xx_HAL_Driver/Src/stm32h7xx_hal.c ****              at the beginning of the program after reset by HAL_Init() or at any time
 106:Drivers/STM32H7xx_HAL_Driver/Src/stm32h7xx_hal.c ****              when clock is configured, by HAL_RCC_ClockConfig().
 107:Drivers/STM32H7xx_HAL_Driver/Src/stm32h7xx_hal.c ****         (++) Source of time base is configured  to generate interrupts at regular
 108:Drivers/STM32H7xx_HAL_Driver/Src/stm32h7xx_hal.c ****              time intervals. Care must be taken if HAL_Delay() is called from a
 109:Drivers/STM32H7xx_HAL_Driver/Src/stm32h7xx_hal.c ****              peripheral ISR process, the Tick interrupt line must have higher priority
 110:Drivers/STM32H7xx_HAL_Driver/Src/stm32h7xx_hal.c ****             (numerically lower) than the peripheral interrupt. Otherwise the caller
 111:Drivers/STM32H7xx_HAL_Driver/Src/stm32h7xx_hal.c ****             ISR process will be blocked.
 112:Drivers/STM32H7xx_HAL_Driver/Src/stm32h7xx_hal.c ****        (++) functions affecting time base configurations are declared as __weak
 113:Drivers/STM32H7xx_HAL_Driver/Src/stm32h7xx_hal.c ****              to make  override possible  in case of other  implementations in user file.
 114:Drivers/STM32H7xx_HAL_Driver/Src/stm32h7xx_hal.c **** @endverbatim
 115:Drivers/STM32H7xx_HAL_Driver/Src/stm32h7xx_hal.c ****   * @{
 116:Drivers/STM32H7xx_HAL_Driver/Src/stm32h7xx_hal.c ****   */
 117:Drivers/STM32H7xx_HAL_Driver/Src/stm32h7xx_hal.c **** 
 118:Drivers/STM32H7xx_HAL_Driver/Src/stm32h7xx_hal.c **** /**
 119:Drivers/STM32H7xx_HAL_Driver/Src/stm32h7xx_hal.c ****   * @brief  This function is used to initialize the HAL Library; it must be the first
 120:Drivers/STM32H7xx_HAL_Driver/Src/stm32h7xx_hal.c ****   *         instruction to be executed in the main program (before to call any other
 121:Drivers/STM32H7xx_HAL_Driver/Src/stm32h7xx_hal.c ****   *         HAL function), it performs the following:
 122:Drivers/STM32H7xx_HAL_Driver/Src/stm32h7xx_hal.c ****   *           Configures the SysTick to generate an interrupt each 1 millisecond,
 123:Drivers/STM32H7xx_HAL_Driver/Src/stm32h7xx_hal.c ****   *           which is clocked by the HSI (at this stage, the clock is not yet
 124:Drivers/STM32H7xx_HAL_Driver/Src/stm32h7xx_hal.c ****   *           configured and thus the system is running from the internal HSI at 16 MHz).
 125:Drivers/STM32H7xx_HAL_Driver/Src/stm32h7xx_hal.c ****   *           Set NVIC Group Priority to 4.
 126:Drivers/STM32H7xx_HAL_Driver/Src/stm32h7xx_hal.c ****   *           Calls the HAL_MspInit() callback function defined in user file
 127:Drivers/STM32H7xx_HAL_Driver/Src/stm32h7xx_hal.c ****   *           "stm32h7xx_hal_msp.c" to do the global low level hardware initialization
 128:Drivers/STM32H7xx_HAL_Driver/Src/stm32h7xx_hal.c ****   *
 129:Drivers/STM32H7xx_HAL_Driver/Src/stm32h7xx_hal.c ****   * @note   SysTick is used as time base for the HAL_Delay() function, the application
 130:Drivers/STM32H7xx_HAL_Driver/Src/stm32h7xx_hal.c ****   *         need to ensure that the SysTick time base is always set to 1 millisecond
 131:Drivers/STM32H7xx_HAL_Driver/Src/stm32h7xx_hal.c ****   *         to have correct HAL operation.
 132:Drivers/STM32H7xx_HAL_Driver/Src/stm32h7xx_hal.c ****   * @retval HAL status
 133:Drivers/STM32H7xx_HAL_Driver/Src/stm32h7xx_hal.c ****   */
 134:Drivers/STM32H7xx_HAL_Driver/Src/stm32h7xx_hal.c **** HAL_StatusTypeDef HAL_Init(void)
 135:Drivers/STM32H7xx_HAL_Driver/Src/stm32h7xx_hal.c **** {
 136:Drivers/STM32H7xx_HAL_Driver/Src/stm32h7xx_hal.c **** 
 137:Drivers/STM32H7xx_HAL_Driver/Src/stm32h7xx_hal.c **** uint32_t common_system_clock;
 138:Drivers/STM32H7xx_HAL_Driver/Src/stm32h7xx_hal.c **** 
 139:Drivers/STM32H7xx_HAL_Driver/Src/stm32h7xx_hal.c **** #if defined(DUAL_CORE) && defined(CORE_CM4)
 140:Drivers/STM32H7xx_HAL_Driver/Src/stm32h7xx_hal.c ****    /* Configure Cortex-M4 Instruction cache through ART accelerator */
 141:Drivers/STM32H7xx_HAL_Driver/Src/stm32h7xx_hal.c ****    __HAL_RCC_ART_CLK_ENABLE();                   /* Enable the Cortex-M4 ART Clock */
 142:Drivers/STM32H7xx_HAL_Driver/Src/stm32h7xx_hal.c ****    __HAL_ART_CONFIG_BASE_ADDRESS(0x08100000UL);  /* Configure the Cortex-M4 ART Base address to the
 143:Drivers/STM32H7xx_HAL_Driver/Src/stm32h7xx_hal.c ****    __HAL_ART_ENABLE();                           /* Enable the Cortex-M4 ART */
 144:Drivers/STM32H7xx_HAL_Driver/Src/stm32h7xx_hal.c **** #endif /* DUAL_CORE &&  CORE_CM4 */
ARM GAS  /tmp/ccbNDzm8.s 			page 4


 145:Drivers/STM32H7xx_HAL_Driver/Src/stm32h7xx_hal.c **** 
 146:Drivers/STM32H7xx_HAL_Driver/Src/stm32h7xx_hal.c ****   /* Set Interrupt Group Priority */
 147:Drivers/STM32H7xx_HAL_Driver/Src/stm32h7xx_hal.c ****   HAL_NVIC_SetPriorityGrouping(NVIC_PRIORITYGROUP_4);
 148:Drivers/STM32H7xx_HAL_Driver/Src/stm32h7xx_hal.c **** 
 149:Drivers/STM32H7xx_HAL_Driver/Src/stm32h7xx_hal.c ****   /* Update the SystemCoreClock global variable */
 150:Drivers/STM32H7xx_HAL_Driver/Src/stm32h7xx_hal.c **** #if defined(RCC_D1CFGR_D1CPRE)
 151:Drivers/STM32H7xx_HAL_Driver/Src/stm32h7xx_hal.c ****   common_system_clock = HAL_RCC_GetSysClockFreq() >> ((D1CorePrescTable[(RCC->D1CFGR & RCC_D1CFGR_D
 152:Drivers/STM32H7xx_HAL_Driver/Src/stm32h7xx_hal.c **** #else
 153:Drivers/STM32H7xx_HAL_Driver/Src/stm32h7xx_hal.c ****   common_system_clock = HAL_RCC_GetSysClockFreq() >> ((D1CorePrescTable[(RCC->CDCFGR1 & RCC_CDCFGR1
 154:Drivers/STM32H7xx_HAL_Driver/Src/stm32h7xx_hal.c **** #endif
 155:Drivers/STM32H7xx_HAL_Driver/Src/stm32h7xx_hal.c **** 
 156:Drivers/STM32H7xx_HAL_Driver/Src/stm32h7xx_hal.c ****   /* Update the SystemD2Clock global variable */
 157:Drivers/STM32H7xx_HAL_Driver/Src/stm32h7xx_hal.c **** #if defined(RCC_D1CFGR_HPRE)
 158:Drivers/STM32H7xx_HAL_Driver/Src/stm32h7xx_hal.c ****   SystemD2Clock = (common_system_clock >> ((D1CorePrescTable[(RCC->D1CFGR & RCC_D1CFGR_HPRE)>> RCC_
 159:Drivers/STM32H7xx_HAL_Driver/Src/stm32h7xx_hal.c **** #else
 160:Drivers/STM32H7xx_HAL_Driver/Src/stm32h7xx_hal.c ****   SystemD2Clock = (common_system_clock >> ((D1CorePrescTable[(RCC->CDCFGR1 & RCC_CDCFGR1_HPRE)>> RC
 161:Drivers/STM32H7xx_HAL_Driver/Src/stm32h7xx_hal.c **** #endif
 162:Drivers/STM32H7xx_HAL_Driver/Src/stm32h7xx_hal.c **** 
 163:Drivers/STM32H7xx_HAL_Driver/Src/stm32h7xx_hal.c **** #if defined(DUAL_CORE) && defined(CORE_CM4)
 164:Drivers/STM32H7xx_HAL_Driver/Src/stm32h7xx_hal.c ****   SystemCoreClock = SystemD2Clock;
 165:Drivers/STM32H7xx_HAL_Driver/Src/stm32h7xx_hal.c **** #else
 166:Drivers/STM32H7xx_HAL_Driver/Src/stm32h7xx_hal.c ****   SystemCoreClock = common_system_clock;
 167:Drivers/STM32H7xx_HAL_Driver/Src/stm32h7xx_hal.c **** #endif /* DUAL_CORE && CORE_CM4 */
 168:Drivers/STM32H7xx_HAL_Driver/Src/stm32h7xx_hal.c **** 
 169:Drivers/STM32H7xx_HAL_Driver/Src/stm32h7xx_hal.c ****   /* Use systick as time base source and configure 1ms tick (default clock after Reset is HSI) */
 170:Drivers/STM32H7xx_HAL_Driver/Src/stm32h7xx_hal.c ****   if(HAL_InitTick(TICK_INT_PRIORITY) != HAL_OK)
 171:Drivers/STM32H7xx_HAL_Driver/Src/stm32h7xx_hal.c ****   {
 172:Drivers/STM32H7xx_HAL_Driver/Src/stm32h7xx_hal.c ****     return HAL_ERROR;
 173:Drivers/STM32H7xx_HAL_Driver/Src/stm32h7xx_hal.c ****   }
 174:Drivers/STM32H7xx_HAL_Driver/Src/stm32h7xx_hal.c **** 
 175:Drivers/STM32H7xx_HAL_Driver/Src/stm32h7xx_hal.c ****   /* Init the low level hardware */
 176:Drivers/STM32H7xx_HAL_Driver/Src/stm32h7xx_hal.c ****   HAL_MspInit();
 177:Drivers/STM32H7xx_HAL_Driver/Src/stm32h7xx_hal.c **** 
 178:Drivers/STM32H7xx_HAL_Driver/Src/stm32h7xx_hal.c ****   /* Return function status */
 179:Drivers/STM32H7xx_HAL_Driver/Src/stm32h7xx_hal.c ****   return HAL_OK;
 180:Drivers/STM32H7xx_HAL_Driver/Src/stm32h7xx_hal.c **** }
 181:Drivers/STM32H7xx_HAL_Driver/Src/stm32h7xx_hal.c **** 
 182:Drivers/STM32H7xx_HAL_Driver/Src/stm32h7xx_hal.c **** /**
 183:Drivers/STM32H7xx_HAL_Driver/Src/stm32h7xx_hal.c ****   * @brief  This function de-Initializes common part of the HAL and stops the systick.
 184:Drivers/STM32H7xx_HAL_Driver/Src/stm32h7xx_hal.c ****   *         This function is optional.
 185:Drivers/STM32H7xx_HAL_Driver/Src/stm32h7xx_hal.c ****   * @retval HAL status
 186:Drivers/STM32H7xx_HAL_Driver/Src/stm32h7xx_hal.c ****   */
 187:Drivers/STM32H7xx_HAL_Driver/Src/stm32h7xx_hal.c **** HAL_StatusTypeDef HAL_DeInit(void)
 188:Drivers/STM32H7xx_HAL_Driver/Src/stm32h7xx_hal.c **** {
 189:Drivers/STM32H7xx_HAL_Driver/Src/stm32h7xx_hal.c ****   /* Reset of all peripherals */
 190:Drivers/STM32H7xx_HAL_Driver/Src/stm32h7xx_hal.c ****   __HAL_RCC_AHB3_FORCE_RESET();
 191:Drivers/STM32H7xx_HAL_Driver/Src/stm32h7xx_hal.c ****   __HAL_RCC_AHB3_RELEASE_RESET();
 192:Drivers/STM32H7xx_HAL_Driver/Src/stm32h7xx_hal.c **** 
 193:Drivers/STM32H7xx_HAL_Driver/Src/stm32h7xx_hal.c ****   __HAL_RCC_AHB1_FORCE_RESET();
 194:Drivers/STM32H7xx_HAL_Driver/Src/stm32h7xx_hal.c ****   __HAL_RCC_AHB1_RELEASE_RESET();
 195:Drivers/STM32H7xx_HAL_Driver/Src/stm32h7xx_hal.c **** 
 196:Drivers/STM32H7xx_HAL_Driver/Src/stm32h7xx_hal.c ****   __HAL_RCC_AHB2_FORCE_RESET();
 197:Drivers/STM32H7xx_HAL_Driver/Src/stm32h7xx_hal.c ****   __HAL_RCC_AHB2_RELEASE_RESET();
 198:Drivers/STM32H7xx_HAL_Driver/Src/stm32h7xx_hal.c **** 
 199:Drivers/STM32H7xx_HAL_Driver/Src/stm32h7xx_hal.c ****   __HAL_RCC_AHB4_FORCE_RESET();
 200:Drivers/STM32H7xx_HAL_Driver/Src/stm32h7xx_hal.c ****  __HAL_RCC_AHB4_RELEASE_RESET();
 201:Drivers/STM32H7xx_HAL_Driver/Src/stm32h7xx_hal.c **** 
ARM GAS  /tmp/ccbNDzm8.s 			page 5


 202:Drivers/STM32H7xx_HAL_Driver/Src/stm32h7xx_hal.c ****   __HAL_RCC_APB3_FORCE_RESET();
 203:Drivers/STM32H7xx_HAL_Driver/Src/stm32h7xx_hal.c ****   __HAL_RCC_APB3_RELEASE_RESET();
 204:Drivers/STM32H7xx_HAL_Driver/Src/stm32h7xx_hal.c **** 
 205:Drivers/STM32H7xx_HAL_Driver/Src/stm32h7xx_hal.c ****   __HAL_RCC_APB1L_FORCE_RESET();
 206:Drivers/STM32H7xx_HAL_Driver/Src/stm32h7xx_hal.c ****   __HAL_RCC_APB1L_RELEASE_RESET();
 207:Drivers/STM32H7xx_HAL_Driver/Src/stm32h7xx_hal.c **** 
 208:Drivers/STM32H7xx_HAL_Driver/Src/stm32h7xx_hal.c ****   __HAL_RCC_APB1H_FORCE_RESET();
 209:Drivers/STM32H7xx_HAL_Driver/Src/stm32h7xx_hal.c ****   __HAL_RCC_APB1H_RELEASE_RESET();
 210:Drivers/STM32H7xx_HAL_Driver/Src/stm32h7xx_hal.c **** 
 211:Drivers/STM32H7xx_HAL_Driver/Src/stm32h7xx_hal.c ****    __HAL_RCC_APB2_FORCE_RESET();
 212:Drivers/STM32H7xx_HAL_Driver/Src/stm32h7xx_hal.c ****    __HAL_RCC_APB2_RELEASE_RESET();
 213:Drivers/STM32H7xx_HAL_Driver/Src/stm32h7xx_hal.c **** 
 214:Drivers/STM32H7xx_HAL_Driver/Src/stm32h7xx_hal.c ****   __HAL_RCC_APB4_FORCE_RESET();
 215:Drivers/STM32H7xx_HAL_Driver/Src/stm32h7xx_hal.c ****   __HAL_RCC_APB4_RELEASE_RESET();
 216:Drivers/STM32H7xx_HAL_Driver/Src/stm32h7xx_hal.c **** 
 217:Drivers/STM32H7xx_HAL_Driver/Src/stm32h7xx_hal.c ****   /* De-Init the low level hardware */
 218:Drivers/STM32H7xx_HAL_Driver/Src/stm32h7xx_hal.c ****   HAL_MspDeInit();
 219:Drivers/STM32H7xx_HAL_Driver/Src/stm32h7xx_hal.c **** 
 220:Drivers/STM32H7xx_HAL_Driver/Src/stm32h7xx_hal.c ****   /* Return function status */
 221:Drivers/STM32H7xx_HAL_Driver/Src/stm32h7xx_hal.c ****   return HAL_OK;
 222:Drivers/STM32H7xx_HAL_Driver/Src/stm32h7xx_hal.c **** }
 223:Drivers/STM32H7xx_HAL_Driver/Src/stm32h7xx_hal.c **** 
 224:Drivers/STM32H7xx_HAL_Driver/Src/stm32h7xx_hal.c **** /**
 225:Drivers/STM32H7xx_HAL_Driver/Src/stm32h7xx_hal.c ****   * @brief  Initializes the MSP.
 226:Drivers/STM32H7xx_HAL_Driver/Src/stm32h7xx_hal.c ****   * @retval None
 227:Drivers/STM32H7xx_HAL_Driver/Src/stm32h7xx_hal.c ****   */
 228:Drivers/STM32H7xx_HAL_Driver/Src/stm32h7xx_hal.c **** __weak void HAL_MspInit(void)
 229:Drivers/STM32H7xx_HAL_Driver/Src/stm32h7xx_hal.c **** {
  29              		.loc 1 229 1 view -0
  30              		.cfi_startproc
  31              		@ args = 0, pretend = 0, frame = 0
  32              		@ frame_needed = 0, uses_anonymous_args = 0
  33              		@ link register save eliminated.
 230:Drivers/STM32H7xx_HAL_Driver/Src/stm32h7xx_hal.c ****   /* NOTE : This function Should not be modified, when the callback is needed,
 231:Drivers/STM32H7xx_HAL_Driver/Src/stm32h7xx_hal.c ****             the HAL_MspInit could be implemented in the user file
 232:Drivers/STM32H7xx_HAL_Driver/Src/stm32h7xx_hal.c ****    */
 233:Drivers/STM32H7xx_HAL_Driver/Src/stm32h7xx_hal.c **** }
  34              		.loc 1 233 1 view .LVU1
  35 0000 7047     		bx	lr
  36              		.cfi_endproc
  37              	.LFE146:
  39 0002 00BF     		.section	.text.HAL_MspDeInit,"ax",%progbits
  40              		.align	1
  41              		.p2align 2,,3
  42              		.weak	HAL_MspDeInit
  43              		.syntax unified
  44              		.thumb
  45              		.thumb_func
  46              		.fpu fpv5-d16
  48              	HAL_MspDeInit:
  49              	.LFB194:
  50              		.cfi_startproc
  51              		@ args = 0, pretend = 0, frame = 0
  52              		@ frame_needed = 0, uses_anonymous_args = 0
  53              		@ link register save eliminated.
  54 0000 7047     		bx	lr
  55              		.cfi_endproc
ARM GAS  /tmp/ccbNDzm8.s 			page 6


  56              	.LFE194:
  58 0002 00BF     		.section	.text.HAL_DeInit,"ax",%progbits
  59              		.align	1
  60              		.p2align 2,,3
  61              		.global	HAL_DeInit
  62              		.syntax unified
  63              		.thumb
  64              		.thumb_func
  65              		.fpu fpv5-d16
  67              	HAL_DeInit:
  68              	.LFB145:
 188:Drivers/STM32H7xx_HAL_Driver/Src/stm32h7xx_hal.c ****   /* Reset of all peripherals */
  69              		.loc 1 188 1 view -0
  70              		.cfi_startproc
  71              		@ args = 0, pretend = 0, frame = 0
  72              		@ frame_needed = 0, uses_anonymous_args = 0
 190:Drivers/STM32H7xx_HAL_Driver/Src/stm32h7xx_hal.c ****   __HAL_RCC_AHB3_RELEASE_RESET();
  73              		.loc 1 190 3 view .LVU3
 188:Drivers/STM32H7xx_HAL_Driver/Src/stm32h7xx_hal.c ****   /* Reset of all peripherals */
  74              		.loc 1 188 1 is_stmt 0 view .LVU4
  75 0000 10B5     		push	{r4, lr}
  76              	.LCFI0:
  77              		.cfi_def_cfa_offset 8
  78              		.cfi_offset 4, -8
  79              		.cfi_offset 14, -4
 190:Drivers/STM32H7xx_HAL_Driver/Src/stm32h7xx_hal.c ****   __HAL_RCC_AHB3_RELEASE_RESET();
  80              		.loc 1 190 3 view .LVU5
  81 0002 194B     		ldr	r3, .L6
 191:Drivers/STM32H7xx_HAL_Driver/Src/stm32h7xx_hal.c **** 
  82              		.loc 1 191 3 view .LVU6
  83 0004 0024     		movs	r4, #0
 190:Drivers/STM32H7xx_HAL_Driver/Src/stm32h7xx_hal.c ****   __HAL_RCC_AHB3_RELEASE_RESET();
  84              		.loc 1 190 3 view .LVU7
  85 0006 1949     		ldr	r1, .L6+4
 196:Drivers/STM32H7xx_HAL_Driver/Src/stm32h7xx_hal.c ****   __HAL_RCC_AHB2_RELEASE_RESET();
  86              		.loc 1 196 3 view .LVU8
  87 0008 40F27120 		movw	r0, #625
 193:Drivers/STM32H7xx_HAL_Driver/Src/stm32h7xx_hal.c ****   __HAL_RCC_AHB1_RELEASE_RESET();
  88              		.loc 1 193 3 view .LVU9
  89 000c 184A     		ldr	r2, .L6+8
 190:Drivers/STM32H7xx_HAL_Driver/Src/stm32h7xx_hal.c ****   __HAL_RCC_AHB3_RELEASE_RESET();
  90              		.loc 1 190 3 view .LVU10
  91 000e D967     		str	r1, [r3, #124]
 191:Drivers/STM32H7xx_HAL_Driver/Src/stm32h7xx_hal.c **** 
  92              		.loc 1 191 3 is_stmt 1 view .LVU11
 202:Drivers/STM32H7xx_HAL_Driver/Src/stm32h7xx_hal.c ****   __HAL_RCC_APB3_RELEASE_RESET();
  93              		.loc 1 202 3 is_stmt 0 view .LVU12
  94 0010 1821     		movs	r1, #24
 191:Drivers/STM32H7xx_HAL_Driver/Src/stm32h7xx_hal.c **** 
  95              		.loc 1 191 3 view .LVU13
  96 0012 DC67     		str	r4, [r3, #124]
 193:Drivers/STM32H7xx_HAL_Driver/Src/stm32h7xx_hal.c ****   __HAL_RCC_AHB1_RELEASE_RESET();
  97              		.loc 1 193 3 is_stmt 1 view .LVU14
  98 0014 C3F88020 		str	r2, [r3, #128]
 194:Drivers/STM32H7xx_HAL_Driver/Src/stm32h7xx_hal.c **** 
  99              		.loc 1 194 3 view .LVU15
 199:Drivers/STM32H7xx_HAL_Driver/Src/stm32h7xx_hal.c ****  __HAL_RCC_AHB4_RELEASE_RESET();
ARM GAS  /tmp/ccbNDzm8.s 			page 7


 100              		.loc 1 199 3 is_stmt 0 view .LVU16
 101 0018 164A     		ldr	r2, .L6+12
 194:Drivers/STM32H7xx_HAL_Driver/Src/stm32h7xx_hal.c **** 
 102              		.loc 1 194 3 view .LVU17
 103 001a C3F88040 		str	r4, [r3, #128]
 196:Drivers/STM32H7xx_HAL_Driver/Src/stm32h7xx_hal.c ****   __HAL_RCC_AHB2_RELEASE_RESET();
 104              		.loc 1 196 3 is_stmt 1 view .LVU18
 105 001e C3F88400 		str	r0, [r3, #132]
 197:Drivers/STM32H7xx_HAL_Driver/Src/stm32h7xx_hal.c **** 
 106              		.loc 1 197 3 view .LVU19
 208:Drivers/STM32H7xx_HAL_Driver/Src/stm32h7xx_hal.c ****   __HAL_RCC_APB1H_RELEASE_RESET();
 107              		.loc 1 208 3 is_stmt 0 view .LVU20
 108 0022 4FF49B70 		mov	r0, #310
 197:Drivers/STM32H7xx_HAL_Driver/Src/stm32h7xx_hal.c **** 
 109              		.loc 1 197 3 view .LVU21
 110 0026 C3F88440 		str	r4, [r3, #132]
 199:Drivers/STM32H7xx_HAL_Driver/Src/stm32h7xx_hal.c ****  __HAL_RCC_AHB4_RELEASE_RESET();
 111              		.loc 1 199 3 is_stmt 1 view .LVU22
 112 002a C3F88820 		str	r2, [r3, #136]
 200:Drivers/STM32H7xx_HAL_Driver/Src/stm32h7xx_hal.c **** 
 113              		.loc 1 200 2 view .LVU23
 205:Drivers/STM32H7xx_HAL_Driver/Src/stm32h7xx_hal.c ****   __HAL_RCC_APB1L_RELEASE_RESET();
 114              		.loc 1 205 3 is_stmt 0 view .LVU24
 115 002e 124A     		ldr	r2, .L6+16
 200:Drivers/STM32H7xx_HAL_Driver/Src/stm32h7xx_hal.c **** 
 116              		.loc 1 200 2 view .LVU25
 117 0030 C3F88840 		str	r4, [r3, #136]
 202:Drivers/STM32H7xx_HAL_Driver/Src/stm32h7xx_hal.c ****   __HAL_RCC_APB3_RELEASE_RESET();
 118              		.loc 1 202 3 is_stmt 1 view .LVU26
 119 0034 C3F88C10 		str	r1, [r3, #140]
 203:Drivers/STM32H7xx_HAL_Driver/Src/stm32h7xx_hal.c **** 
 120              		.loc 1 203 3 view .LVU27
 121 0038 C3F88C40 		str	r4, [r3, #140]
 205:Drivers/STM32H7xx_HAL_Driver/Src/stm32h7xx_hal.c ****   __HAL_RCC_APB1L_RELEASE_RESET();
 122              		.loc 1 205 3 view .LVU28
 211:Drivers/STM32H7xx_HAL_Driver/Src/stm32h7xx_hal.c ****    __HAL_RCC_APB2_RELEASE_RESET();
 123              		.loc 1 211 4 is_stmt 0 view .LVU29
 124 003c 0F49     		ldr	r1, .L6+20
 205:Drivers/STM32H7xx_HAL_Driver/Src/stm32h7xx_hal.c ****   __HAL_RCC_APB1L_RELEASE_RESET();
 125              		.loc 1 205 3 view .LVU30
 126 003e C3F89020 		str	r2, [r3, #144]
 206:Drivers/STM32H7xx_HAL_Driver/Src/stm32h7xx_hal.c **** 
 127              		.loc 1 206 3 is_stmt 1 view .LVU31
 214:Drivers/STM32H7xx_HAL_Driver/Src/stm32h7xx_hal.c ****   __HAL_RCC_APB4_RELEASE_RESET();
 128              		.loc 1 214 3 is_stmt 0 view .LVU32
 129 0042 0F4A     		ldr	r2, .L6+24
 206:Drivers/STM32H7xx_HAL_Driver/Src/stm32h7xx_hal.c **** 
 130              		.loc 1 206 3 view .LVU33
 131 0044 C3F89040 		str	r4, [r3, #144]
 208:Drivers/STM32H7xx_HAL_Driver/Src/stm32h7xx_hal.c ****   __HAL_RCC_APB1H_RELEASE_RESET();
 132              		.loc 1 208 3 is_stmt 1 view .LVU34
 133 0048 C3F89400 		str	r0, [r3, #148]
 209:Drivers/STM32H7xx_HAL_Driver/Src/stm32h7xx_hal.c **** 
 134              		.loc 1 209 3 view .LVU35
 135 004c C3F89440 		str	r4, [r3, #148]
 211:Drivers/STM32H7xx_HAL_Driver/Src/stm32h7xx_hal.c ****    __HAL_RCC_APB2_RELEASE_RESET();
 136              		.loc 1 211 4 view .LVU36
ARM GAS  /tmp/ccbNDzm8.s 			page 8


 137 0050 C3F89810 		str	r1, [r3, #152]
 212:Drivers/STM32H7xx_HAL_Driver/Src/stm32h7xx_hal.c **** 
 138              		.loc 1 212 4 view .LVU37
 139 0054 C3F89840 		str	r4, [r3, #152]
 214:Drivers/STM32H7xx_HAL_Driver/Src/stm32h7xx_hal.c ****   __HAL_RCC_APB4_RELEASE_RESET();
 140              		.loc 1 214 3 view .LVU38
 141 0058 C3F89C20 		str	r2, [r3, #156]
 215:Drivers/STM32H7xx_HAL_Driver/Src/stm32h7xx_hal.c **** 
 142              		.loc 1 215 3 view .LVU39
 143 005c C3F89C40 		str	r4, [r3, #156]
 218:Drivers/STM32H7xx_HAL_Driver/Src/stm32h7xx_hal.c **** 
 144              		.loc 1 218 3 view .LVU40
 145 0060 FFF7FEFF 		bl	HAL_MspDeInit
 146              	.LVL0:
 221:Drivers/STM32H7xx_HAL_Driver/Src/stm32h7xx_hal.c **** }
 147              		.loc 1 221 3 view .LVU41
 222:Drivers/STM32H7xx_HAL_Driver/Src/stm32h7xx_hal.c **** 
 148              		.loc 1 222 1 is_stmt 0 view .LVU42
 149 0064 2046     		mov	r0, r4
 150 0066 10BD     		pop	{r4, pc}
 151              	.L7:
 152              		.align	2
 153              	.L6:
 154 0068 00440258 		.word	1476543488
 155 006c 31500100 		.word	86065
 156 0070 23C0000A 		.word	167821347
 157 0074 FF072803 		.word	52955135
 158 0078 FFC3FFE8 		.word	-385891329
 159 007c 3330D731 		.word	836186163
 160 0080 AADE2000 		.word	2154154
 161              		.cfi_endproc
 162              	.LFE145:
 164              		.section	.text.HAL_InitTick,"ax",%progbits
 165              		.align	1
 166              		.p2align 2,,3
 167              		.weak	HAL_InitTick
 168              		.syntax unified
 169              		.thumb
 170              		.thumb_func
 171              		.fpu fpv5-d16
 173              	HAL_InitTick:
 174              	.LVL1:
 175              	.LFB148:
 234:Drivers/STM32H7xx_HAL_Driver/Src/stm32h7xx_hal.c **** 
 235:Drivers/STM32H7xx_HAL_Driver/Src/stm32h7xx_hal.c **** /**
 236:Drivers/STM32H7xx_HAL_Driver/Src/stm32h7xx_hal.c ****   * @brief  DeInitializes the MSP.
 237:Drivers/STM32H7xx_HAL_Driver/Src/stm32h7xx_hal.c ****   * @retval None
 238:Drivers/STM32H7xx_HAL_Driver/Src/stm32h7xx_hal.c ****   */
 239:Drivers/STM32H7xx_HAL_Driver/Src/stm32h7xx_hal.c **** __weak void HAL_MspDeInit(void)
 240:Drivers/STM32H7xx_HAL_Driver/Src/stm32h7xx_hal.c **** {
 241:Drivers/STM32H7xx_HAL_Driver/Src/stm32h7xx_hal.c ****   /* NOTE : This function Should not be modified, when the callback is needed,
 242:Drivers/STM32H7xx_HAL_Driver/Src/stm32h7xx_hal.c ****             the HAL_MspDeInit could be implemented in the user file
 243:Drivers/STM32H7xx_HAL_Driver/Src/stm32h7xx_hal.c ****    */
 244:Drivers/STM32H7xx_HAL_Driver/Src/stm32h7xx_hal.c **** }
 245:Drivers/STM32H7xx_HAL_Driver/Src/stm32h7xx_hal.c **** 
 246:Drivers/STM32H7xx_HAL_Driver/Src/stm32h7xx_hal.c **** /**
 247:Drivers/STM32H7xx_HAL_Driver/Src/stm32h7xx_hal.c ****   * @brief This function configures the source of the time base.
ARM GAS  /tmp/ccbNDzm8.s 			page 9


 248:Drivers/STM32H7xx_HAL_Driver/Src/stm32h7xx_hal.c ****   *        The time source is configured  to have 1ms time base with a dedicated
 249:Drivers/STM32H7xx_HAL_Driver/Src/stm32h7xx_hal.c ****   *        Tick interrupt priority.
 250:Drivers/STM32H7xx_HAL_Driver/Src/stm32h7xx_hal.c ****   * @note This function is called  automatically at the beginning of program after
 251:Drivers/STM32H7xx_HAL_Driver/Src/stm32h7xx_hal.c ****   *       reset by HAL_Init() or at any time when clock is reconfigured  by HAL_RCC_ClockConfig().
 252:Drivers/STM32H7xx_HAL_Driver/Src/stm32h7xx_hal.c ****   * @note In the default implementation, SysTick timer is the source of time base.
 253:Drivers/STM32H7xx_HAL_Driver/Src/stm32h7xx_hal.c ****   *       It is used to generate interrupts at regular time intervals.
 254:Drivers/STM32H7xx_HAL_Driver/Src/stm32h7xx_hal.c ****   *       Care must be taken if HAL_Delay() is called from a peripheral ISR process,
 255:Drivers/STM32H7xx_HAL_Driver/Src/stm32h7xx_hal.c ****   *       The the SysTick interrupt must have higher priority (numerically lower)
 256:Drivers/STM32H7xx_HAL_Driver/Src/stm32h7xx_hal.c ****   *       than the peripheral interrupt. Otherwise the caller ISR process will be blocked.
 257:Drivers/STM32H7xx_HAL_Driver/Src/stm32h7xx_hal.c ****   *       The function is declared as __weak  to be overwritten  in case of other
 258:Drivers/STM32H7xx_HAL_Driver/Src/stm32h7xx_hal.c ****   *       implementation  in user file.
 259:Drivers/STM32H7xx_HAL_Driver/Src/stm32h7xx_hal.c ****   * @param TickPriority: Tick interrupt priority.
 260:Drivers/STM32H7xx_HAL_Driver/Src/stm32h7xx_hal.c ****   * @retval HAL status
 261:Drivers/STM32H7xx_HAL_Driver/Src/stm32h7xx_hal.c ****   */
 262:Drivers/STM32H7xx_HAL_Driver/Src/stm32h7xx_hal.c **** __weak HAL_StatusTypeDef HAL_InitTick(uint32_t TickPriority)
 263:Drivers/STM32H7xx_HAL_Driver/Src/stm32h7xx_hal.c **** {
 176              		.loc 1 263 1 is_stmt 1 view -0
 177              		.cfi_startproc
 178              		@ args = 0, pretend = 0, frame = 0
 179              		@ frame_needed = 0, uses_anonymous_args = 0
 264:Drivers/STM32H7xx_HAL_Driver/Src/stm32h7xx_hal.c ****   /* Check uwTickFreq for MisraC 2012 (even if uwTickFreq is a enum type that don't take the value 
 265:Drivers/STM32H7xx_HAL_Driver/Src/stm32h7xx_hal.c ****   if((uint32_t)uwTickFreq == 0UL)
 180              		.loc 1 265 3 view .LVU44
 181              		.loc 1 265 27 is_stmt 0 view .LVU45
 182 0000 0F4B     		ldr	r3, .L22
 183 0002 1B78     		ldrb	r3, [r3]	@ zero_extendqisi2
 184              		.loc 1 265 5 view .LVU46
 185 0004 0BB9     		cbnz	r3, .L9
 266:Drivers/STM32H7xx_HAL_Driver/Src/stm32h7xx_hal.c ****   {
 267:Drivers/STM32H7xx_HAL_Driver/Src/stm32h7xx_hal.c ****     return HAL_ERROR;
 186              		.loc 1 267 12 view .LVU47
 187 0006 0120     		movs	r0, #1
 188              	.LVL2:
 268:Drivers/STM32H7xx_HAL_Driver/Src/stm32h7xx_hal.c ****   }
 269:Drivers/STM32H7xx_HAL_Driver/Src/stm32h7xx_hal.c **** 
 270:Drivers/STM32H7xx_HAL_Driver/Src/stm32h7xx_hal.c ****     /* Configure the SysTick to have interrupt in 1ms time basis*/
 271:Drivers/STM32H7xx_HAL_Driver/Src/stm32h7xx_hal.c ****     if (HAL_SYSTICK_Config(SystemCoreClock / (1000UL / (uint32_t)uwTickFreq)) > 0U)
 272:Drivers/STM32H7xx_HAL_Driver/Src/stm32h7xx_hal.c ****     {
 273:Drivers/STM32H7xx_HAL_Driver/Src/stm32h7xx_hal.c ****       return HAL_ERROR;
 274:Drivers/STM32H7xx_HAL_Driver/Src/stm32h7xx_hal.c ****     }
 275:Drivers/STM32H7xx_HAL_Driver/Src/stm32h7xx_hal.c **** 
 276:Drivers/STM32H7xx_HAL_Driver/Src/stm32h7xx_hal.c ****   /* Configure the SysTick IRQ priority */
 277:Drivers/STM32H7xx_HAL_Driver/Src/stm32h7xx_hal.c ****   if (TickPriority < (1UL << __NVIC_PRIO_BITS))
 278:Drivers/STM32H7xx_HAL_Driver/Src/stm32h7xx_hal.c ****   {
 279:Drivers/STM32H7xx_HAL_Driver/Src/stm32h7xx_hal.c ****     HAL_NVIC_SetPriority(SysTick_IRQn, TickPriority, 0U);
 280:Drivers/STM32H7xx_HAL_Driver/Src/stm32h7xx_hal.c ****     uwTickPrio = TickPriority;
 281:Drivers/STM32H7xx_HAL_Driver/Src/stm32h7xx_hal.c ****   }
 282:Drivers/STM32H7xx_HAL_Driver/Src/stm32h7xx_hal.c ****   else
 283:Drivers/STM32H7xx_HAL_Driver/Src/stm32h7xx_hal.c ****   {
 284:Drivers/STM32H7xx_HAL_Driver/Src/stm32h7xx_hal.c ****     return HAL_ERROR;
 285:Drivers/STM32H7xx_HAL_Driver/Src/stm32h7xx_hal.c ****   }
 286:Drivers/STM32H7xx_HAL_Driver/Src/stm32h7xx_hal.c **** 
 287:Drivers/STM32H7xx_HAL_Driver/Src/stm32h7xx_hal.c ****   /* Return function status */
 288:Drivers/STM32H7xx_HAL_Driver/Src/stm32h7xx_hal.c ****   return HAL_OK;
 289:Drivers/STM32H7xx_HAL_Driver/Src/stm32h7xx_hal.c **** }
 189              		.loc 1 289 1 view .LVU48
 190 0008 7047     		bx	lr
ARM GAS  /tmp/ccbNDzm8.s 			page 10


 191              	.LVL3:
 192              	.L9:
 271:Drivers/STM32H7xx_HAL_Driver/Src/stm32h7xx_hal.c ****     {
 193              		.loc 1 271 5 is_stmt 1 view .LVU49
 263:Drivers/STM32H7xx_HAL_Driver/Src/stm32h7xx_hal.c ****   /* Check uwTickFreq for MisraC 2012 (even if uwTickFreq is a enum type that don't take the value 
 194              		.loc 1 263 1 is_stmt 0 view .LVU50
 195 000a 10B5     		push	{r4, lr}
 196              	.LCFI1:
 197              		.cfi_def_cfa_offset 8
 198              		.cfi_offset 4, -8
 199              		.cfi_offset 14, -4
 200 000c 0446     		mov	r4, r0
 271:Drivers/STM32H7xx_HAL_Driver/Src/stm32h7xx_hal.c ****     {
 201              		.loc 1 271 54 view .LVU51
 202 000e 4FF47A70 		mov	r0, #1000
 203              	.LVL4:
 271:Drivers/STM32H7xx_HAL_Driver/Src/stm32h7xx_hal.c ****     {
 204              		.loc 1 271 9 view .LVU52
 205 0012 0C4A     		ldr	r2, .L22+4
 271:Drivers/STM32H7xx_HAL_Driver/Src/stm32h7xx_hal.c ****     {
 206              		.loc 1 271 54 view .LVU53
 207 0014 B0FBF3F3 		udiv	r3, r0, r3
 271:Drivers/STM32H7xx_HAL_Driver/Src/stm32h7xx_hal.c ****     {
 208              		.loc 1 271 9 view .LVU54
 209 0018 1068     		ldr	r0, [r2]
 210 001a B0FBF3F0 		udiv	r0, r0, r3
 211 001e FFF7FEFF 		bl	HAL_SYSTICK_Config
 212              	.LVL5:
 277:Drivers/STM32H7xx_HAL_Driver/Src/stm32h7xx_hal.c ****   {
 213              		.loc 1 277 3 is_stmt 1 view .LVU55
 277:Drivers/STM32H7xx_HAL_Driver/Src/stm32h7xx_hal.c ****   {
 214              		.loc 1 277 6 is_stmt 0 view .LVU56
 215 0022 0F2C     		cmp	r4, #15
 216 0024 00D8     		bhi	.L11
 277:Drivers/STM32H7xx_HAL_Driver/Src/stm32h7xx_hal.c ****   {
 217              		.loc 1 277 6 view .LVU57
 218 0026 08B1     		cbz	r0, .L21
 219              	.L11:
 267:Drivers/STM32H7xx_HAL_Driver/Src/stm32h7xx_hal.c ****   }
 220              		.loc 1 267 12 view .LVU58
 221 0028 0120     		movs	r0, #1
 222              		.loc 1 289 1 view .LVU59
 223 002a 10BD     		pop	{r4, pc}
 224              	.LVL6:
 225              	.L21:
 226              	.LBB4:
 227              	.LBI4:
 262:Drivers/STM32H7xx_HAL_Driver/Src/stm32h7xx_hal.c **** {
 228              		.loc 1 262 26 is_stmt 1 view .LVU60
 229              	.LBB5:
 279:Drivers/STM32H7xx_HAL_Driver/Src/stm32h7xx_hal.c ****     uwTickPrio = TickPriority;
 230              		.loc 1 279 5 view .LVU61
 231 002c 0022     		movs	r2, #0
 232 002e 2146     		mov	r1, r4
 233 0030 4FF0FF30 		mov	r0, #-1
 234 0034 FFF7FEFF 		bl	HAL_NVIC_SetPriority
 235              	.LVL7:
ARM GAS  /tmp/ccbNDzm8.s 			page 11


 280:Drivers/STM32H7xx_HAL_Driver/Src/stm32h7xx_hal.c ****   }
 236              		.loc 1 280 5 view .LVU62
 280:Drivers/STM32H7xx_HAL_Driver/Src/stm32h7xx_hal.c ****   }
 237              		.loc 1 280 16 is_stmt 0 view .LVU63
 238 0038 034B     		ldr	r3, .L22+8
 239 003a 0020     		movs	r0, #0
 240 003c 1C60     		str	r4, [r3]
 288:Drivers/STM32H7xx_HAL_Driver/Src/stm32h7xx_hal.c **** }
 241              		.loc 1 288 3 is_stmt 1 view .LVU64
 242              	.LVL8:
 288:Drivers/STM32H7xx_HAL_Driver/Src/stm32h7xx_hal.c **** }
 243              		.loc 1 288 3 is_stmt 0 view .LVU65
 244              	.LBE5:
 245              	.LBE4:
 246              		.loc 1 289 1 view .LVU66
 247 003e 10BD     		pop	{r4, pc}
 248              	.LVL9:
 249              	.L23:
 250              		.loc 1 289 1 view .LVU67
 251              		.align	2
 252              	.L22:
 253 0040 00000000 		.word	.LANCHOR0
 254 0044 00000000 		.word	SystemCoreClock
 255 0048 00000000 		.word	.LANCHOR1
 256              		.cfi_endproc
 257              	.LFE148:
 259              		.section	.text.HAL_Init,"ax",%progbits
 260              		.align	1
 261              		.p2align 2,,3
 262              		.global	HAL_Init
 263              		.syntax unified
 264              		.thumb
 265              		.thumb_func
 266              		.fpu fpv5-d16
 268              	HAL_Init:
 269              	.LFB144:
 135:Drivers/STM32H7xx_HAL_Driver/Src/stm32h7xx_hal.c **** 
 270              		.loc 1 135 1 is_stmt 1 view -0
 271              		.cfi_startproc
 272              		@ args = 0, pretend = 0, frame = 0
 273              		@ frame_needed = 0, uses_anonymous_args = 0
 137:Drivers/STM32H7xx_HAL_Driver/Src/stm32h7xx_hal.c **** 
 274              		.loc 1 137 1 view .LVU69
 147:Drivers/STM32H7xx_HAL_Driver/Src/stm32h7xx_hal.c **** 
 275              		.loc 1 147 3 view .LVU70
 135:Drivers/STM32H7xx_HAL_Driver/Src/stm32h7xx_hal.c **** 
 276              		.loc 1 135 1 is_stmt 0 view .LVU71
 277 0000 10B5     		push	{r4, lr}
 278              	.LCFI2:
 279              		.cfi_def_cfa_offset 8
 280              		.cfi_offset 4, -8
 281              		.cfi_offset 14, -4
 147:Drivers/STM32H7xx_HAL_Driver/Src/stm32h7xx_hal.c **** 
 282              		.loc 1 147 3 view .LVU72
 283 0002 0320     		movs	r0, #3
 158:Drivers/STM32H7xx_HAL_Driver/Src/stm32h7xx_hal.c **** #else
 284              		.loc 1 158 17 view .LVU73
ARM GAS  /tmp/ccbNDzm8.s 			page 12


 285 0004 124C     		ldr	r4, .L29
 147:Drivers/STM32H7xx_HAL_Driver/Src/stm32h7xx_hal.c **** 
 286              		.loc 1 147 3 view .LVU74
 287 0006 FFF7FEFF 		bl	HAL_NVIC_SetPriorityGrouping
 288              	.LVL10:
 151:Drivers/STM32H7xx_HAL_Driver/Src/stm32h7xx_hal.c **** #else
 289              		.loc 1 151 3 is_stmt 1 view .LVU75
 151:Drivers/STM32H7xx_HAL_Driver/Src/stm32h7xx_hal.c **** #else
 290              		.loc 1 151 25 is_stmt 0 view .LVU76
 291 000a FFF7FEFF 		bl	HAL_RCC_GetSysClockFreq
 292              	.LVL11:
 151:Drivers/STM32H7xx_HAL_Driver/Src/stm32h7xx_hal.c **** #else
 293              		.loc 1 151 77 view .LVU77
 294 000e 114B     		ldr	r3, .L29+4
 151:Drivers/STM32H7xx_HAL_Driver/Src/stm32h7xx_hal.c **** #else
 295              		.loc 1 151 72 view .LVU78
 296 0010 1149     		ldr	r1, .L29+8
 151:Drivers/STM32H7xx_HAL_Driver/Src/stm32h7xx_hal.c **** #else
 297              		.loc 1 151 77 view .LVU79
 298 0012 9A69     		ldr	r2, [r3, #24]
 158:Drivers/STM32H7xx_HAL_Driver/Src/stm32h7xx_hal.c **** #else
 299              		.loc 1 158 66 view .LVU80
 300 0014 9B69     		ldr	r3, [r3, #24]
 151:Drivers/STM32H7xx_HAL_Driver/Src/stm32h7xx_hal.c **** #else
 301              		.loc 1 151 106 view .LVU81
 302 0016 C2F30322 		ubfx	r2, r2, #8, #4
 158:Drivers/STM32H7xx_HAL_Driver/Src/stm32h7xx_hal.c **** #else
 303              		.loc 1 158 93 view .LVU82
 304 001a 03F00F03 		and	r3, r3, #15
 151:Drivers/STM32H7xx_HAL_Driver/Src/stm32h7xx_hal.c **** #else
 305              		.loc 1 151 133 view .LVU83
 306 001e 8A5C     		ldrb	r2, [r1, r2]	@ zero_extendqisi2
 158:Drivers/STM32H7xx_HAL_Driver/Src/stm32h7xx_hal.c **** #else
 307              		.loc 1 158 118 view .LVU84
 308 0020 CB5C     		ldrb	r3, [r1, r3]	@ zero_extendqisi2
 151:Drivers/STM32H7xx_HAL_Driver/Src/stm32h7xx_hal.c **** #else
 309              		.loc 1 151 133 view .LVU85
 310 0022 02F01F02 		and	r2, r2, #31
 166:Drivers/STM32H7xx_HAL_Driver/Src/stm32h7xx_hal.c **** #endif /* DUAL_CORE && CORE_CM4 */
 311              		.loc 1 166 19 view .LVU86
 312 0026 0D49     		ldr	r1, .L29+12
 158:Drivers/STM32H7xx_HAL_Driver/Src/stm32h7xx_hal.c **** #else
 313              		.loc 1 158 118 view .LVU87
 314 0028 03F01F03 		and	r3, r3, #31
 151:Drivers/STM32H7xx_HAL_Driver/Src/stm32h7xx_hal.c **** #else
 315              		.loc 1 151 23 view .LVU88
 316 002c D040     		lsrs	r0, r0, r2
 317              	.LVL12:
 158:Drivers/STM32H7xx_HAL_Driver/Src/stm32h7xx_hal.c **** #else
 318              		.loc 1 158 3 is_stmt 1 view .LVU89
 158:Drivers/STM32H7xx_HAL_Driver/Src/stm32h7xx_hal.c **** #else
 319              		.loc 1 158 40 is_stmt 0 view .LVU90
 320 002e 20FA03F3 		lsr	r3, r0, r3
 166:Drivers/STM32H7xx_HAL_Driver/Src/stm32h7xx_hal.c **** #endif /* DUAL_CORE && CORE_CM4 */
 321              		.loc 1 166 19 view .LVU91
 322 0032 0860     		str	r0, [r1]
 170:Drivers/STM32H7xx_HAL_Driver/Src/stm32h7xx_hal.c ****   {
ARM GAS  /tmp/ccbNDzm8.s 			page 13


 323              		.loc 1 170 6 view .LVU92
 324 0034 0F20     		movs	r0, #15
 325              	.LVL13:
 158:Drivers/STM32H7xx_HAL_Driver/Src/stm32h7xx_hal.c **** #else
 326              		.loc 1 158 17 view .LVU93
 327 0036 2360     		str	r3, [r4]
 166:Drivers/STM32H7xx_HAL_Driver/Src/stm32h7xx_hal.c **** #endif /* DUAL_CORE && CORE_CM4 */
 328              		.loc 1 166 3 is_stmt 1 view .LVU94
 170:Drivers/STM32H7xx_HAL_Driver/Src/stm32h7xx_hal.c ****   {
 329              		.loc 1 170 3 view .LVU95
 170:Drivers/STM32H7xx_HAL_Driver/Src/stm32h7xx_hal.c ****   {
 330              		.loc 1 170 6 is_stmt 0 view .LVU96
 331 0038 FFF7FEFF 		bl	HAL_InitTick
 332              	.LVL14:
 170:Drivers/STM32H7xx_HAL_Driver/Src/stm32h7xx_hal.c ****   {
 333              		.loc 1 170 5 view .LVU97
 334 003c 10B1     		cbz	r0, .L28
 172:Drivers/STM32H7xx_HAL_Driver/Src/stm32h7xx_hal.c ****   }
 335              		.loc 1 172 12 view .LVU98
 336 003e 0124     		movs	r4, #1
 180:Drivers/STM32H7xx_HAL_Driver/Src/stm32h7xx_hal.c **** 
 337              		.loc 1 180 1 view .LVU99
 338 0040 2046     		mov	r0, r4
 339 0042 10BD     		pop	{r4, pc}
 340              	.L28:
 341 0044 0446     		mov	r4, r0
 176:Drivers/STM32H7xx_HAL_Driver/Src/stm32h7xx_hal.c **** 
 342              		.loc 1 176 3 is_stmt 1 view .LVU100
 343 0046 FFF7FEFF 		bl	HAL_MspInit
 344              	.LVL15:
 179:Drivers/STM32H7xx_HAL_Driver/Src/stm32h7xx_hal.c **** }
 345              		.loc 1 179 3 view .LVU101
 180:Drivers/STM32H7xx_HAL_Driver/Src/stm32h7xx_hal.c **** 
 346              		.loc 1 180 1 is_stmt 0 view .LVU102
 347 004a 2046     		mov	r0, r4
 348 004c 10BD     		pop	{r4, pc}
 349              	.L30:
 350 004e 00BF     		.align	2
 351              	.L29:
 352 0050 00000000 		.word	SystemD2Clock
 353 0054 00440258 		.word	1476543488
 354 0058 00000000 		.word	D1CorePrescTable
 355 005c 00000000 		.word	SystemCoreClock
 356              		.cfi_endproc
 357              	.LFE144:
 359              		.section	.text.HAL_IncTick,"ax",%progbits
 360              		.align	1
 361              		.p2align 2,,3
 362              		.weak	HAL_IncTick
 363              		.syntax unified
 364              		.thumb
 365              		.thumb_func
 366              		.fpu fpv5-d16
 368              	HAL_IncTick:
 369              	.LFB149:
 290:Drivers/STM32H7xx_HAL_Driver/Src/stm32h7xx_hal.c **** 
 291:Drivers/STM32H7xx_HAL_Driver/Src/stm32h7xx_hal.c **** /**
ARM GAS  /tmp/ccbNDzm8.s 			page 14


 292:Drivers/STM32H7xx_HAL_Driver/Src/stm32h7xx_hal.c ****   * @}
 293:Drivers/STM32H7xx_HAL_Driver/Src/stm32h7xx_hal.c ****   */
 294:Drivers/STM32H7xx_HAL_Driver/Src/stm32h7xx_hal.c **** 
 295:Drivers/STM32H7xx_HAL_Driver/Src/stm32h7xx_hal.c **** /** @defgroup HAL_Group2 HAL Control functions
 296:Drivers/STM32H7xx_HAL_Driver/Src/stm32h7xx_hal.c ****  *  @brief    HAL Control functions
 297:Drivers/STM32H7xx_HAL_Driver/Src/stm32h7xx_hal.c ****  *
 298:Drivers/STM32H7xx_HAL_Driver/Src/stm32h7xx_hal.c **** @verbatim
 299:Drivers/STM32H7xx_HAL_Driver/Src/stm32h7xx_hal.c ****  ===============================================================================
 300:Drivers/STM32H7xx_HAL_Driver/Src/stm32h7xx_hal.c ****                       ##### HAL Control functions #####
 301:Drivers/STM32H7xx_HAL_Driver/Src/stm32h7xx_hal.c ****  ===============================================================================
 302:Drivers/STM32H7xx_HAL_Driver/Src/stm32h7xx_hal.c ****     [..]  This section provides functions allowing to:
 303:Drivers/STM32H7xx_HAL_Driver/Src/stm32h7xx_hal.c ****       (+) Provide a tick value in millisecond
 304:Drivers/STM32H7xx_HAL_Driver/Src/stm32h7xx_hal.c ****       (+) Provide a blocking delay in millisecond
 305:Drivers/STM32H7xx_HAL_Driver/Src/stm32h7xx_hal.c ****       (+) Suspend the time base source interrupt
 306:Drivers/STM32H7xx_HAL_Driver/Src/stm32h7xx_hal.c ****       (+) Resume the time base source interrupt
 307:Drivers/STM32H7xx_HAL_Driver/Src/stm32h7xx_hal.c ****       (+) Get the HAL API driver version
 308:Drivers/STM32H7xx_HAL_Driver/Src/stm32h7xx_hal.c ****       (+) Get the device identifier
 309:Drivers/STM32H7xx_HAL_Driver/Src/stm32h7xx_hal.c ****       (+) Get the device revision identifier
 310:Drivers/STM32H7xx_HAL_Driver/Src/stm32h7xx_hal.c ****       (+) Enable/Disable Debug module during SLEEP mode
 311:Drivers/STM32H7xx_HAL_Driver/Src/stm32h7xx_hal.c ****       (+) Enable/Disable Debug module during STOP mode
 312:Drivers/STM32H7xx_HAL_Driver/Src/stm32h7xx_hal.c ****       (+) Enable/Disable Debug module during STANDBY mode
 313:Drivers/STM32H7xx_HAL_Driver/Src/stm32h7xx_hal.c **** 
 314:Drivers/STM32H7xx_HAL_Driver/Src/stm32h7xx_hal.c **** @endverbatim
 315:Drivers/STM32H7xx_HAL_Driver/Src/stm32h7xx_hal.c ****   * @{
 316:Drivers/STM32H7xx_HAL_Driver/Src/stm32h7xx_hal.c ****   */
 317:Drivers/STM32H7xx_HAL_Driver/Src/stm32h7xx_hal.c **** 
 318:Drivers/STM32H7xx_HAL_Driver/Src/stm32h7xx_hal.c **** /**
 319:Drivers/STM32H7xx_HAL_Driver/Src/stm32h7xx_hal.c ****   * @brief This function is called to increment  a global variable "uwTick"
 320:Drivers/STM32H7xx_HAL_Driver/Src/stm32h7xx_hal.c ****   *        used as application time base.
 321:Drivers/STM32H7xx_HAL_Driver/Src/stm32h7xx_hal.c ****   * @note In the default implementation, this variable is incremented each 1ms
 322:Drivers/STM32H7xx_HAL_Driver/Src/stm32h7xx_hal.c ****   *       in Systick ISR.
 323:Drivers/STM32H7xx_HAL_Driver/Src/stm32h7xx_hal.c ****  * @note This function is declared as __weak to be overwritten in case of other
 324:Drivers/STM32H7xx_HAL_Driver/Src/stm32h7xx_hal.c ****   *      implementations in user file.
 325:Drivers/STM32H7xx_HAL_Driver/Src/stm32h7xx_hal.c ****   * @retval None
 326:Drivers/STM32H7xx_HAL_Driver/Src/stm32h7xx_hal.c ****   */
 327:Drivers/STM32H7xx_HAL_Driver/Src/stm32h7xx_hal.c **** __weak void HAL_IncTick(void)
 328:Drivers/STM32H7xx_HAL_Driver/Src/stm32h7xx_hal.c **** {
 370              		.loc 1 328 1 is_stmt 1 view -0
 371              		.cfi_startproc
 372              		@ args = 0, pretend = 0, frame = 0
 373              		@ frame_needed = 0, uses_anonymous_args = 0
 374              		@ link register save eliminated.
 329:Drivers/STM32H7xx_HAL_Driver/Src/stm32h7xx_hal.c ****   uwTick += (uint32_t)uwTickFreq;
 375              		.loc 1 329 3 view .LVU104
 376              		.loc 1 329 10 is_stmt 0 view .LVU105
 377 0000 034A     		ldr	r2, .L32
 378              		.loc 1 329 13 view .LVU106
 379 0002 044B     		ldr	r3, .L32+4
 380              		.loc 1 329 10 view .LVU107
 381 0004 1168     		ldr	r1, [r2]
 382              		.loc 1 329 13 view .LVU108
 383 0006 1B78     		ldrb	r3, [r3]	@ zero_extendqisi2
 384              		.loc 1 329 10 view .LVU109
 385 0008 0B44     		add	r3, r3, r1
 386 000a 1360     		str	r3, [r2]
 330:Drivers/STM32H7xx_HAL_Driver/Src/stm32h7xx_hal.c **** }
 387              		.loc 1 330 1 view .LVU110
ARM GAS  /tmp/ccbNDzm8.s 			page 15


 388 000c 7047     		bx	lr
 389              	.L33:
 390 000e 00BF     		.align	2
 391              	.L32:
 392 0010 00000000 		.word	.LANCHOR2
 393 0014 00000000 		.word	.LANCHOR0
 394              		.cfi_endproc
 395              	.LFE149:
 397              		.section	.text.HAL_GetTick,"ax",%progbits
 398              		.align	1
 399              		.p2align 2,,3
 400              		.weak	HAL_GetTick
 401              		.syntax unified
 402              		.thumb
 403              		.thumb_func
 404              		.fpu fpv5-d16
 406              	HAL_GetTick:
 407              	.LFB150:
 331:Drivers/STM32H7xx_HAL_Driver/Src/stm32h7xx_hal.c **** 
 332:Drivers/STM32H7xx_HAL_Driver/Src/stm32h7xx_hal.c **** /**
 333:Drivers/STM32H7xx_HAL_Driver/Src/stm32h7xx_hal.c ****   * @brief Provides a tick value in millisecond.
 334:Drivers/STM32H7xx_HAL_Driver/Src/stm32h7xx_hal.c ****   * @note This function is declared as __weak to be overwritten in case of other
 335:Drivers/STM32H7xx_HAL_Driver/Src/stm32h7xx_hal.c ****   *       implementations in user file.
 336:Drivers/STM32H7xx_HAL_Driver/Src/stm32h7xx_hal.c ****   * @retval tick value
 337:Drivers/STM32H7xx_HAL_Driver/Src/stm32h7xx_hal.c ****   */
 338:Drivers/STM32H7xx_HAL_Driver/Src/stm32h7xx_hal.c **** __weak uint32_t HAL_GetTick(void)
 339:Drivers/STM32H7xx_HAL_Driver/Src/stm32h7xx_hal.c **** {
 408              		.loc 1 339 1 is_stmt 1 view -0
 409              		.cfi_startproc
 410              		@ args = 0, pretend = 0, frame = 0
 411              		@ frame_needed = 0, uses_anonymous_args = 0
 412              		@ link register save eliminated.
 340:Drivers/STM32H7xx_HAL_Driver/Src/stm32h7xx_hal.c ****   return uwTick;
 413              		.loc 1 340 3 view .LVU112
 414              		.loc 1 340 10 is_stmt 0 view .LVU113
 415 0000 014B     		ldr	r3, .L35
 416 0002 1868     		ldr	r0, [r3]
 341:Drivers/STM32H7xx_HAL_Driver/Src/stm32h7xx_hal.c **** }
 417              		.loc 1 341 1 view .LVU114
 418 0004 7047     		bx	lr
 419              	.L36:
 420 0006 00BF     		.align	2
 421              	.L35:
 422 0008 00000000 		.word	.LANCHOR2
 423              		.cfi_endproc
 424              	.LFE150:
 426              		.section	.text.HAL_GetTickPrio,"ax",%progbits
 427              		.align	1
 428              		.p2align 2,,3
 429              		.global	HAL_GetTickPrio
 430              		.syntax unified
 431              		.thumb
 432              		.thumb_func
 433              		.fpu fpv5-d16
 435              	HAL_GetTickPrio:
 436              	.LFB151:
 342:Drivers/STM32H7xx_HAL_Driver/Src/stm32h7xx_hal.c **** 
ARM GAS  /tmp/ccbNDzm8.s 			page 16


 343:Drivers/STM32H7xx_HAL_Driver/Src/stm32h7xx_hal.c **** /**
 344:Drivers/STM32H7xx_HAL_Driver/Src/stm32h7xx_hal.c ****   * @brief This function returns a tick priority.
 345:Drivers/STM32H7xx_HAL_Driver/Src/stm32h7xx_hal.c ****   * @retval tick priority
 346:Drivers/STM32H7xx_HAL_Driver/Src/stm32h7xx_hal.c ****   */
 347:Drivers/STM32H7xx_HAL_Driver/Src/stm32h7xx_hal.c **** uint32_t HAL_GetTickPrio(void)
 348:Drivers/STM32H7xx_HAL_Driver/Src/stm32h7xx_hal.c **** {
 437              		.loc 1 348 1 is_stmt 1 view -0
 438              		.cfi_startproc
 439              		@ args = 0, pretend = 0, frame = 0
 440              		@ frame_needed = 0, uses_anonymous_args = 0
 441              		@ link register save eliminated.
 349:Drivers/STM32H7xx_HAL_Driver/Src/stm32h7xx_hal.c ****   return uwTickPrio;
 442              		.loc 1 349 3 view .LVU116
 443              		.loc 1 349 10 is_stmt 0 view .LVU117
 444 0000 014B     		ldr	r3, .L38
 350:Drivers/STM32H7xx_HAL_Driver/Src/stm32h7xx_hal.c **** }
 445              		.loc 1 350 1 view .LVU118
 446 0002 1868     		ldr	r0, [r3]
 447 0004 7047     		bx	lr
 448              	.L39:
 449 0006 00BF     		.align	2
 450              	.L38:
 451 0008 00000000 		.word	.LANCHOR1
 452              		.cfi_endproc
 453              	.LFE151:
 455              		.section	.text.HAL_SetTickFreq,"ax",%progbits
 456              		.align	1
 457              		.p2align 2,,3
 458              		.global	HAL_SetTickFreq
 459              		.syntax unified
 460              		.thumb
 461              		.thumb_func
 462              		.fpu fpv5-d16
 464              	HAL_SetTickFreq:
 465              	.LVL16:
 466              	.LFB152:
 351:Drivers/STM32H7xx_HAL_Driver/Src/stm32h7xx_hal.c **** 
 352:Drivers/STM32H7xx_HAL_Driver/Src/stm32h7xx_hal.c **** /**
 353:Drivers/STM32H7xx_HAL_Driver/Src/stm32h7xx_hal.c ****   * @brief Set new tick Freq.
 354:Drivers/STM32H7xx_HAL_Driver/Src/stm32h7xx_hal.c ****   * @retval Status
 355:Drivers/STM32H7xx_HAL_Driver/Src/stm32h7xx_hal.c ****   */
 356:Drivers/STM32H7xx_HAL_Driver/Src/stm32h7xx_hal.c **** HAL_StatusTypeDef HAL_SetTickFreq(HAL_TickFreqTypeDef Freq)
 357:Drivers/STM32H7xx_HAL_Driver/Src/stm32h7xx_hal.c **** {
 467              		.loc 1 357 1 is_stmt 1 view -0
 468              		.cfi_startproc
 469              		@ args = 0, pretend = 0, frame = 0
 470              		@ frame_needed = 0, uses_anonymous_args = 0
 358:Drivers/STM32H7xx_HAL_Driver/Src/stm32h7xx_hal.c ****   HAL_StatusTypeDef status  = HAL_OK;
 471              		.loc 1 358 3 view .LVU120
 359:Drivers/STM32H7xx_HAL_Driver/Src/stm32h7xx_hal.c ****   HAL_TickFreqTypeDef prevTickFreq;
 472              		.loc 1 359 3 view .LVU121
 360:Drivers/STM32H7xx_HAL_Driver/Src/stm32h7xx_hal.c **** 
 361:Drivers/STM32H7xx_HAL_Driver/Src/stm32h7xx_hal.c ****   assert_param(IS_TICKFREQ(Freq));
 473              		.loc 1 361 3 view .LVU122
 362:Drivers/STM32H7xx_HAL_Driver/Src/stm32h7xx_hal.c **** 
 363:Drivers/STM32H7xx_HAL_Driver/Src/stm32h7xx_hal.c ****   if (uwTickFreq != Freq)
 474              		.loc 1 363 3 view .LVU123
ARM GAS  /tmp/ccbNDzm8.s 			page 17


 357:Drivers/STM32H7xx_HAL_Driver/Src/stm32h7xx_hal.c ****   HAL_StatusTypeDef status  = HAL_OK;
 475              		.loc 1 357 1 is_stmt 0 view .LVU124
 476 0000 38B5     		push	{r3, r4, r5, lr}
 477              	.LCFI3:
 478              		.cfi_def_cfa_offset 16
 479              		.cfi_offset 3, -16
 480              		.cfi_offset 4, -12
 481              		.cfi_offset 5, -8
 482              		.cfi_offset 14, -4
 483              		.loc 1 363 18 view .LVU125
 484 0002 074C     		ldr	r4, .L48
 485 0004 2578     		ldrb	r5, [r4]	@ zero_extendqisi2
 486              		.loc 1 363 6 view .LVU126
 487 0006 8542     		cmp	r5, r0
 488 0008 01D1     		bne	.L47
 358:Drivers/STM32H7xx_HAL_Driver/Src/stm32h7xx_hal.c ****   HAL_TickFreqTypeDef prevTickFreq;
 489              		.loc 1 358 21 view .LVU127
 490 000a 0020     		movs	r0, #0
 491              	.LVL17:
 492              	.L41:
 364:Drivers/STM32H7xx_HAL_Driver/Src/stm32h7xx_hal.c ****   {
 365:Drivers/STM32H7xx_HAL_Driver/Src/stm32h7xx_hal.c **** 
 366:Drivers/STM32H7xx_HAL_Driver/Src/stm32h7xx_hal.c ****     /* Back up uwTickFreq frequency */
 367:Drivers/STM32H7xx_HAL_Driver/Src/stm32h7xx_hal.c ****     prevTickFreq = uwTickFreq;
 368:Drivers/STM32H7xx_HAL_Driver/Src/stm32h7xx_hal.c **** 
 369:Drivers/STM32H7xx_HAL_Driver/Src/stm32h7xx_hal.c ****     /* Update uwTickFreq global variable used by HAL_InitTick() */
 370:Drivers/STM32H7xx_HAL_Driver/Src/stm32h7xx_hal.c ****     uwTickFreq = Freq;
 371:Drivers/STM32H7xx_HAL_Driver/Src/stm32h7xx_hal.c **** 
 372:Drivers/STM32H7xx_HAL_Driver/Src/stm32h7xx_hal.c ****     /* Apply the new tick Freq  */
 373:Drivers/STM32H7xx_HAL_Driver/Src/stm32h7xx_hal.c ****     status = HAL_InitTick(uwTickPrio);
 374:Drivers/STM32H7xx_HAL_Driver/Src/stm32h7xx_hal.c ****     if (status != HAL_OK)
 375:Drivers/STM32H7xx_HAL_Driver/Src/stm32h7xx_hal.c ****     {
 376:Drivers/STM32H7xx_HAL_Driver/Src/stm32h7xx_hal.c ****       /* Restore previous tick frequency */
 377:Drivers/STM32H7xx_HAL_Driver/Src/stm32h7xx_hal.c ****       uwTickFreq = prevTickFreq;
 378:Drivers/STM32H7xx_HAL_Driver/Src/stm32h7xx_hal.c ****     }
 379:Drivers/STM32H7xx_HAL_Driver/Src/stm32h7xx_hal.c ****   }
 380:Drivers/STM32H7xx_HAL_Driver/Src/stm32h7xx_hal.c **** 
 381:Drivers/STM32H7xx_HAL_Driver/Src/stm32h7xx_hal.c ****   return status;
 493              		.loc 1 381 3 is_stmt 1 view .LVU128
 382:Drivers/STM32H7xx_HAL_Driver/Src/stm32h7xx_hal.c **** }
 494              		.loc 1 382 1 is_stmt 0 view .LVU129
 495 000c 38BD     		pop	{r3, r4, r5, pc}
 496              	.LVL18:
 497              	.L47:
 367:Drivers/STM32H7xx_HAL_Driver/Src/stm32h7xx_hal.c **** 
 498              		.loc 1 367 5 is_stmt 1 view .LVU130
 370:Drivers/STM32H7xx_HAL_Driver/Src/stm32h7xx_hal.c **** 
 499              		.loc 1 370 5 view .LVU131
 373:Drivers/STM32H7xx_HAL_Driver/Src/stm32h7xx_hal.c ****     if (status != HAL_OK)
 500              		.loc 1 373 14 is_stmt 0 view .LVU132
 501 000e 054B     		ldr	r3, .L48+4
 370:Drivers/STM32H7xx_HAL_Driver/Src/stm32h7xx_hal.c **** 
 502              		.loc 1 370 16 view .LVU133
 503 0010 2070     		strb	r0, [r4]
 373:Drivers/STM32H7xx_HAL_Driver/Src/stm32h7xx_hal.c ****     if (status != HAL_OK)
 504              		.loc 1 373 5 is_stmt 1 view .LVU134
 373:Drivers/STM32H7xx_HAL_Driver/Src/stm32h7xx_hal.c ****     if (status != HAL_OK)
ARM GAS  /tmp/ccbNDzm8.s 			page 18


 505              		.loc 1 373 14 is_stmt 0 view .LVU135
 506 0012 1868     		ldr	r0, [r3]
 507              	.LVL19:
 373:Drivers/STM32H7xx_HAL_Driver/Src/stm32h7xx_hal.c ****     if (status != HAL_OK)
 508              		.loc 1 373 14 view .LVU136
 509 0014 FFF7FEFF 		bl	HAL_InitTick
 510              	.LVL20:
 374:Drivers/STM32H7xx_HAL_Driver/Src/stm32h7xx_hal.c ****     {
 511              		.loc 1 374 5 is_stmt 1 view .LVU137
 374:Drivers/STM32H7xx_HAL_Driver/Src/stm32h7xx_hal.c ****     {
 512              		.loc 1 374 8 is_stmt 0 view .LVU138
 513 0018 0028     		cmp	r0, #0
 514 001a F7D0     		beq	.L41
 377:Drivers/STM32H7xx_HAL_Driver/Src/stm32h7xx_hal.c ****     }
 515              		.loc 1 377 7 is_stmt 1 view .LVU139
 377:Drivers/STM32H7xx_HAL_Driver/Src/stm32h7xx_hal.c ****     }
 516              		.loc 1 377 18 is_stmt 0 view .LVU140
 517 001c 2570     		strb	r5, [r4]
 381:Drivers/STM32H7xx_HAL_Driver/Src/stm32h7xx_hal.c **** }
 518              		.loc 1 381 3 is_stmt 1 view .LVU141
 519              		.loc 1 382 1 is_stmt 0 view .LVU142
 520 001e 38BD     		pop	{r3, r4, r5, pc}
 521              	.LVL21:
 522              	.L49:
 523              		.loc 1 382 1 view .LVU143
 524              		.align	2
 525              	.L48:
 526 0020 00000000 		.word	.LANCHOR0
 527 0024 00000000 		.word	.LANCHOR1
 528              		.cfi_endproc
 529              	.LFE152:
 531              		.section	.text.HAL_GetTickFreq,"ax",%progbits
 532              		.align	1
 533              		.p2align 2,,3
 534              		.global	HAL_GetTickFreq
 535              		.syntax unified
 536              		.thumb
 537              		.thumb_func
 538              		.fpu fpv5-d16
 540              	HAL_GetTickFreq:
 541              	.LFB153:
 383:Drivers/STM32H7xx_HAL_Driver/Src/stm32h7xx_hal.c **** 
 384:Drivers/STM32H7xx_HAL_Driver/Src/stm32h7xx_hal.c **** /**
 385:Drivers/STM32H7xx_HAL_Driver/Src/stm32h7xx_hal.c ****   * @brief Return tick frequency.
 386:Drivers/STM32H7xx_HAL_Driver/Src/stm32h7xx_hal.c ****   * @retval tick period in Hz
 387:Drivers/STM32H7xx_HAL_Driver/Src/stm32h7xx_hal.c ****   */
 388:Drivers/STM32H7xx_HAL_Driver/Src/stm32h7xx_hal.c **** HAL_TickFreqTypeDef HAL_GetTickFreq(void)
 389:Drivers/STM32H7xx_HAL_Driver/Src/stm32h7xx_hal.c **** {
 542              		.loc 1 389 1 is_stmt 1 view -0
 543              		.cfi_startproc
 544              		@ args = 0, pretend = 0, frame = 0
 545              		@ frame_needed = 0, uses_anonymous_args = 0
 546              		@ link register save eliminated.
 390:Drivers/STM32H7xx_HAL_Driver/Src/stm32h7xx_hal.c ****   return uwTickFreq;
 547              		.loc 1 390 3 view .LVU145
 548              		.loc 1 390 10 is_stmt 0 view .LVU146
 549 0000 014B     		ldr	r3, .L51
ARM GAS  /tmp/ccbNDzm8.s 			page 19


 391:Drivers/STM32H7xx_HAL_Driver/Src/stm32h7xx_hal.c **** }
 550              		.loc 1 391 1 view .LVU147
 551 0002 1878     		ldrb	r0, [r3]	@ zero_extendqisi2
 552 0004 7047     		bx	lr
 553              	.L52:
 554 0006 00BF     		.align	2
 555              	.L51:
 556 0008 00000000 		.word	.LANCHOR0
 557              		.cfi_endproc
 558              	.LFE153:
 560              		.section	.text.HAL_Delay,"ax",%progbits
 561              		.align	1
 562              		.p2align 2,,3
 563              		.weak	HAL_Delay
 564              		.syntax unified
 565              		.thumb
 566              		.thumb_func
 567              		.fpu fpv5-d16
 569              	HAL_Delay:
 570              	.LVL22:
 571              	.LFB154:
 392:Drivers/STM32H7xx_HAL_Driver/Src/stm32h7xx_hal.c **** 
 393:Drivers/STM32H7xx_HAL_Driver/Src/stm32h7xx_hal.c **** /**
 394:Drivers/STM32H7xx_HAL_Driver/Src/stm32h7xx_hal.c ****   * @brief This function provides minimum delay (in milliseconds) based
 395:Drivers/STM32H7xx_HAL_Driver/Src/stm32h7xx_hal.c ****   *        on variable incremented.
 396:Drivers/STM32H7xx_HAL_Driver/Src/stm32h7xx_hal.c ****   * @note In the default implementation , SysTick timer is the source of time base.
 397:Drivers/STM32H7xx_HAL_Driver/Src/stm32h7xx_hal.c ****   *       It is used to generate interrupts at regular time intervals where uwTick
 398:Drivers/STM32H7xx_HAL_Driver/Src/stm32h7xx_hal.c ****   *       is incremented.
 399:Drivers/STM32H7xx_HAL_Driver/Src/stm32h7xx_hal.c ****   * @note This function is declared as __weak to be overwritten in case of other
 400:Drivers/STM32H7xx_HAL_Driver/Src/stm32h7xx_hal.c ****   *       implementations in user file.
 401:Drivers/STM32H7xx_HAL_Driver/Src/stm32h7xx_hal.c ****   * @param Delay  specifies the delay time length, in milliseconds.
 402:Drivers/STM32H7xx_HAL_Driver/Src/stm32h7xx_hal.c ****   * @retval None
 403:Drivers/STM32H7xx_HAL_Driver/Src/stm32h7xx_hal.c ****   */
 404:Drivers/STM32H7xx_HAL_Driver/Src/stm32h7xx_hal.c **** __weak void HAL_Delay(uint32_t Delay)
 405:Drivers/STM32H7xx_HAL_Driver/Src/stm32h7xx_hal.c **** {
 572              		.loc 1 405 1 is_stmt 1 view -0
 573              		.cfi_startproc
 574              		@ args = 0, pretend = 0, frame = 0
 575              		@ frame_needed = 0, uses_anonymous_args = 0
 406:Drivers/STM32H7xx_HAL_Driver/Src/stm32h7xx_hal.c ****   uint32_t tickstart = HAL_GetTick();
 576              		.loc 1 406 3 view .LVU149
 405:Drivers/STM32H7xx_HAL_Driver/Src/stm32h7xx_hal.c ****   uint32_t tickstart = HAL_GetTick();
 577              		.loc 1 405 1 is_stmt 0 view .LVU150
 578 0000 38B5     		push	{r3, r4, r5, lr}
 579              	.LCFI4:
 580              		.cfi_def_cfa_offset 16
 581              		.cfi_offset 3, -16
 582              		.cfi_offset 4, -12
 583              		.cfi_offset 5, -8
 584              		.cfi_offset 14, -4
 405:Drivers/STM32H7xx_HAL_Driver/Src/stm32h7xx_hal.c ****   uint32_t tickstart = HAL_GetTick();
 585              		.loc 1 405 1 view .LVU151
 586 0002 0446     		mov	r4, r0
 587              		.loc 1 406 24 view .LVU152
 588 0004 FFF7FEFF 		bl	HAL_GetTick
 589              	.LVL23:
 590              		.loc 1 406 24 view .LVU153
ARM GAS  /tmp/ccbNDzm8.s 			page 20


 591 0008 0546     		mov	r5, r0
 592              	.LVL24:
 407:Drivers/STM32H7xx_HAL_Driver/Src/stm32h7xx_hal.c ****   uint32_t wait = Delay;
 593              		.loc 1 407 3 is_stmt 1 view .LVU154
 408:Drivers/STM32H7xx_HAL_Driver/Src/stm32h7xx_hal.c **** 
 409:Drivers/STM32H7xx_HAL_Driver/Src/stm32h7xx_hal.c ****   /* Add a freq to guarantee minimum wait */
 410:Drivers/STM32H7xx_HAL_Driver/Src/stm32h7xx_hal.c ****   if (wait < HAL_MAX_DELAY)
 594              		.loc 1 410 3 view .LVU155
 595              		.loc 1 410 6 is_stmt 0 view .LVU156
 596 000a 631C     		adds	r3, r4, #1
 597 000c 02D0     		beq	.L55
 411:Drivers/STM32H7xx_HAL_Driver/Src/stm32h7xx_hal.c ****   {
 412:Drivers/STM32H7xx_HAL_Driver/Src/stm32h7xx_hal.c ****     wait += (uint32_t)(uwTickFreq);
 598              		.loc 1 412 5 is_stmt 1 view .LVU157
 599              		.loc 1 412 13 is_stmt 0 view .LVU158
 600 000e 044B     		ldr	r3, .L61
 601 0010 1B78     		ldrb	r3, [r3]	@ zero_extendqisi2
 602              		.loc 1 412 10 view .LVU159
 603 0012 1C44     		add	r4, r4, r3
 604              	.LVL25:
 605              	.L55:
 413:Drivers/STM32H7xx_HAL_Driver/Src/stm32h7xx_hal.c ****   }
 414:Drivers/STM32H7xx_HAL_Driver/Src/stm32h7xx_hal.c **** 
 415:Drivers/STM32H7xx_HAL_Driver/Src/stm32h7xx_hal.c ****   while ((HAL_GetTick() - tickstart) < wait)
 416:Drivers/STM32H7xx_HAL_Driver/Src/stm32h7xx_hal.c ****   {
 417:Drivers/STM32H7xx_HAL_Driver/Src/stm32h7xx_hal.c ****   }
 606              		.loc 1 417 3 is_stmt 1 discriminator 1 view .LVU160
 415:Drivers/STM32H7xx_HAL_Driver/Src/stm32h7xx_hal.c ****   {
 607              		.loc 1 415 9 discriminator 1 view .LVU161
 415:Drivers/STM32H7xx_HAL_Driver/Src/stm32h7xx_hal.c ****   {
 608              		.loc 1 415 11 is_stmt 0 discriminator 1 view .LVU162
 609 0014 FFF7FEFF 		bl	HAL_GetTick
 610              	.LVL26:
 415:Drivers/STM32H7xx_HAL_Driver/Src/stm32h7xx_hal.c ****   {
 611              		.loc 1 415 25 discriminator 1 view .LVU163
 612 0018 431B     		subs	r3, r0, r5
 415:Drivers/STM32H7xx_HAL_Driver/Src/stm32h7xx_hal.c ****   {
 613              		.loc 1 415 9 discriminator 1 view .LVU164
 614 001a A342     		cmp	r3, r4
 615 001c FAD3     		bcc	.L55
 418:Drivers/STM32H7xx_HAL_Driver/Src/stm32h7xx_hal.c **** }
 616              		.loc 1 418 1 view .LVU165
 617 001e 38BD     		pop	{r3, r4, r5, pc}
 618              	.LVL27:
 619              	.L62:
 620              		.loc 1 418 1 view .LVU166
 621              		.align	2
 622              	.L61:
 623 0020 00000000 		.word	.LANCHOR0
 624              		.cfi_endproc
 625              	.LFE154:
 627              		.section	.text.HAL_SuspendTick,"ax",%progbits
 628              		.align	1
 629              		.p2align 2,,3
 630              		.weak	HAL_SuspendTick
 631              		.syntax unified
 632              		.thumb
ARM GAS  /tmp/ccbNDzm8.s 			page 21


 633              		.thumb_func
 634              		.fpu fpv5-d16
 636              	HAL_SuspendTick:
 637              	.LFB155:
 419:Drivers/STM32H7xx_HAL_Driver/Src/stm32h7xx_hal.c **** 
 420:Drivers/STM32H7xx_HAL_Driver/Src/stm32h7xx_hal.c **** /**
 421:Drivers/STM32H7xx_HAL_Driver/Src/stm32h7xx_hal.c ****   * @brief Suspend Tick increment.
 422:Drivers/STM32H7xx_HAL_Driver/Src/stm32h7xx_hal.c ****   * @note In the default implementation , SysTick timer is the source of time base. It is
 423:Drivers/STM32H7xx_HAL_Driver/Src/stm32h7xx_hal.c ****   *       used to generate interrupts at regular time intervals. Once HAL_SuspendTick()
 424:Drivers/STM32H7xx_HAL_Driver/Src/stm32h7xx_hal.c ****   *       is called, the the SysTick interrupt will be disabled and so Tick increment
 425:Drivers/STM32H7xx_HAL_Driver/Src/stm32h7xx_hal.c ****   *       is suspended.
 426:Drivers/STM32H7xx_HAL_Driver/Src/stm32h7xx_hal.c ****   * @note This function is declared as __weak to be overwritten in case of other
 427:Drivers/STM32H7xx_HAL_Driver/Src/stm32h7xx_hal.c ****   *       implementations in user file.
 428:Drivers/STM32H7xx_HAL_Driver/Src/stm32h7xx_hal.c ****   * @retval None
 429:Drivers/STM32H7xx_HAL_Driver/Src/stm32h7xx_hal.c ****   */
 430:Drivers/STM32H7xx_HAL_Driver/Src/stm32h7xx_hal.c **** __weak void HAL_SuspendTick(void)
 431:Drivers/STM32H7xx_HAL_Driver/Src/stm32h7xx_hal.c **** {
 638              		.loc 1 431 1 is_stmt 1 view -0
 639              		.cfi_startproc
 640              		@ args = 0, pretend = 0, frame = 0
 641              		@ frame_needed = 0, uses_anonymous_args = 0
 642              		@ link register save eliminated.
 432:Drivers/STM32H7xx_HAL_Driver/Src/stm32h7xx_hal.c ****   /* Disable SysTick Interrupt */
 433:Drivers/STM32H7xx_HAL_Driver/Src/stm32h7xx_hal.c ****   SysTick->CTRL &= ~SysTick_CTRL_TICKINT_Msk;
 643              		.loc 1 433 3 view .LVU168
 644              		.loc 1 433 17 is_stmt 0 view .LVU169
 645 0000 4FF0E022 		mov	r2, #-536813568
 646 0004 1369     		ldr	r3, [r2, #16]
 647 0006 23F00203 		bic	r3, r3, #2
 648 000a 1361     		str	r3, [r2, #16]
 434:Drivers/STM32H7xx_HAL_Driver/Src/stm32h7xx_hal.c **** }
 649              		.loc 1 434 1 view .LVU170
 650 000c 7047     		bx	lr
 651              		.cfi_endproc
 652              	.LFE155:
 654 000e 00BF     		.section	.text.HAL_ResumeTick,"ax",%progbits
 655              		.align	1
 656              		.p2align 2,,3
 657              		.weak	HAL_ResumeTick
 658              		.syntax unified
 659              		.thumb
 660              		.thumb_func
 661              		.fpu fpv5-d16
 663              	HAL_ResumeTick:
 664              	.LFB156:
 435:Drivers/STM32H7xx_HAL_Driver/Src/stm32h7xx_hal.c **** 
 436:Drivers/STM32H7xx_HAL_Driver/Src/stm32h7xx_hal.c **** /**
 437:Drivers/STM32H7xx_HAL_Driver/Src/stm32h7xx_hal.c ****   * @brief Resume Tick increment.
 438:Drivers/STM32H7xx_HAL_Driver/Src/stm32h7xx_hal.c ****   * @note In the default implementation , SysTick timer is the source of time base. It is
 439:Drivers/STM32H7xx_HAL_Driver/Src/stm32h7xx_hal.c ****   *       used to generate interrupts at regular time intervals. Once HAL_ResumeTick()
 440:Drivers/STM32H7xx_HAL_Driver/Src/stm32h7xx_hal.c ****   *       is called, the the SysTick interrupt will be enabled and so Tick increment
 441:Drivers/STM32H7xx_HAL_Driver/Src/stm32h7xx_hal.c ****   *       is resumed.
 442:Drivers/STM32H7xx_HAL_Driver/Src/stm32h7xx_hal.c ****   * @note This function is declared as __weak to be overwritten in case of other
 443:Drivers/STM32H7xx_HAL_Driver/Src/stm32h7xx_hal.c ****   *       implementations in user file.
 444:Drivers/STM32H7xx_HAL_Driver/Src/stm32h7xx_hal.c ****   * @retval None
 445:Drivers/STM32H7xx_HAL_Driver/Src/stm32h7xx_hal.c ****   */
 446:Drivers/STM32H7xx_HAL_Driver/Src/stm32h7xx_hal.c **** __weak void HAL_ResumeTick(void)
ARM GAS  /tmp/ccbNDzm8.s 			page 22


 447:Drivers/STM32H7xx_HAL_Driver/Src/stm32h7xx_hal.c **** {
 665              		.loc 1 447 1 is_stmt 1 view -0
 666              		.cfi_startproc
 667              		@ args = 0, pretend = 0, frame = 0
 668              		@ frame_needed = 0, uses_anonymous_args = 0
 669              		@ link register save eliminated.
 448:Drivers/STM32H7xx_HAL_Driver/Src/stm32h7xx_hal.c ****   /* Enable SysTick Interrupt */
 449:Drivers/STM32H7xx_HAL_Driver/Src/stm32h7xx_hal.c ****   SysTick->CTRL  |= SysTick_CTRL_TICKINT_Msk;
 670              		.loc 1 449 3 view .LVU172
 671              		.loc 1 449 18 is_stmt 0 view .LVU173
 672 0000 4FF0E022 		mov	r2, #-536813568
 673 0004 1369     		ldr	r3, [r2, #16]
 674 0006 43F00203 		orr	r3, r3, #2
 675 000a 1361     		str	r3, [r2, #16]
 450:Drivers/STM32H7xx_HAL_Driver/Src/stm32h7xx_hal.c **** }
 676              		.loc 1 450 1 view .LVU174
 677 000c 7047     		bx	lr
 678              		.cfi_endproc
 679              	.LFE156:
 681 000e 00BF     		.section	.text.HAL_GetHalVersion,"ax",%progbits
 682              		.align	1
 683              		.p2align 2,,3
 684              		.global	HAL_GetHalVersion
 685              		.syntax unified
 686              		.thumb
 687              		.thumb_func
 688              		.fpu fpv5-d16
 690              	HAL_GetHalVersion:
 691              	.LFB157:
 451:Drivers/STM32H7xx_HAL_Driver/Src/stm32h7xx_hal.c **** 
 452:Drivers/STM32H7xx_HAL_Driver/Src/stm32h7xx_hal.c **** /**
 453:Drivers/STM32H7xx_HAL_Driver/Src/stm32h7xx_hal.c ****   * @brief  Returns the HAL revision
 454:Drivers/STM32H7xx_HAL_Driver/Src/stm32h7xx_hal.c ****   * @retval version : 0xXYZR (8bits for each decimal, R for RC)
 455:Drivers/STM32H7xx_HAL_Driver/Src/stm32h7xx_hal.c ****   */
 456:Drivers/STM32H7xx_HAL_Driver/Src/stm32h7xx_hal.c **** uint32_t HAL_GetHalVersion(void)
 457:Drivers/STM32H7xx_HAL_Driver/Src/stm32h7xx_hal.c **** {
 692              		.loc 1 457 1 is_stmt 1 view -0
 693              		.cfi_startproc
 694              		@ args = 0, pretend = 0, frame = 0
 695              		@ frame_needed = 0, uses_anonymous_args = 0
 696              		@ link register save eliminated.
 458:Drivers/STM32H7xx_HAL_Driver/Src/stm32h7xx_hal.c ****  return __STM32H7xx_HAL_VERSION;
 697              		.loc 1 458 2 view .LVU176
 459:Drivers/STM32H7xx_HAL_Driver/Src/stm32h7xx_hal.c **** }
 698              		.loc 1 459 1 is_stmt 0 view .LVU177
 699 0000 0048     		ldr	r0, .L66
 700 0002 7047     		bx	lr
 701              	.L67:
 702              		.align	2
 703              	.L66:
 704 0004 00000B01 		.word	17498112
 705              		.cfi_endproc
 706              	.LFE157:
 708              		.section	.text.HAL_GetREVID,"ax",%progbits
 709              		.align	1
 710              		.p2align 2,,3
 711              		.global	HAL_GetREVID
ARM GAS  /tmp/ccbNDzm8.s 			page 23


 712              		.syntax unified
 713              		.thumb
 714              		.thumb_func
 715              		.fpu fpv5-d16
 717              	HAL_GetREVID:
 718              	.LFB158:
 460:Drivers/STM32H7xx_HAL_Driver/Src/stm32h7xx_hal.c **** 
 461:Drivers/STM32H7xx_HAL_Driver/Src/stm32h7xx_hal.c **** /**
 462:Drivers/STM32H7xx_HAL_Driver/Src/stm32h7xx_hal.c ****   * @brief  Returns the device revision identifier.
 463:Drivers/STM32H7xx_HAL_Driver/Src/stm32h7xx_hal.c ****   * @retval Device revision identifier
 464:Drivers/STM32H7xx_HAL_Driver/Src/stm32h7xx_hal.c ****   */
 465:Drivers/STM32H7xx_HAL_Driver/Src/stm32h7xx_hal.c **** uint32_t HAL_GetREVID(void)
 466:Drivers/STM32H7xx_HAL_Driver/Src/stm32h7xx_hal.c **** {
 719              		.loc 1 466 1 is_stmt 1 view -0
 720              		.cfi_startproc
 721              		@ args = 0, pretend = 0, frame = 0
 722              		@ frame_needed = 0, uses_anonymous_args = 0
 723              		@ link register save eliminated.
 467:Drivers/STM32H7xx_HAL_Driver/Src/stm32h7xx_hal.c ****    return((DBGMCU->IDCODE) >> 16);
 724              		.loc 1 467 4 view .LVU179
 725              		.loc 1 467 18 is_stmt 0 view .LVU180
 726 0000 014B     		ldr	r3, .L69
 727 0002 1868     		ldr	r0, [r3]
 468:Drivers/STM32H7xx_HAL_Driver/Src/stm32h7xx_hal.c **** }
 728              		.loc 1 468 1 view .LVU181
 729 0004 000C     		lsrs	r0, r0, #16
 730 0006 7047     		bx	lr
 731              	.L70:
 732              		.align	2
 733              	.L69:
 734 0008 0010005C 		.word	1543507968
 735              		.cfi_endproc
 736              	.LFE158:
 738              		.section	.text.HAL_GetDEVID,"ax",%progbits
 739              		.align	1
 740              		.p2align 2,,3
 741              		.global	HAL_GetDEVID
 742              		.syntax unified
 743              		.thumb
 744              		.thumb_func
 745              		.fpu fpv5-d16
 747              	HAL_GetDEVID:
 748              	.LFB159:
 469:Drivers/STM32H7xx_HAL_Driver/Src/stm32h7xx_hal.c **** 
 470:Drivers/STM32H7xx_HAL_Driver/Src/stm32h7xx_hal.c **** /**
 471:Drivers/STM32H7xx_HAL_Driver/Src/stm32h7xx_hal.c ****   * @brief  Returns the device identifier.
 472:Drivers/STM32H7xx_HAL_Driver/Src/stm32h7xx_hal.c ****   * @retval Device identifier
 473:Drivers/STM32H7xx_HAL_Driver/Src/stm32h7xx_hal.c ****   */
 474:Drivers/STM32H7xx_HAL_Driver/Src/stm32h7xx_hal.c **** uint32_t HAL_GetDEVID(void)
 475:Drivers/STM32H7xx_HAL_Driver/Src/stm32h7xx_hal.c **** {
 749              		.loc 1 475 1 is_stmt 1 view -0
 750              		.cfi_startproc
 751              		@ args = 0, pretend = 0, frame = 0
 752              		@ frame_needed = 0, uses_anonymous_args = 0
 753              		@ link register save eliminated.
 476:Drivers/STM32H7xx_HAL_Driver/Src/stm32h7xx_hal.c ****    return((DBGMCU->IDCODE) & IDCODE_DEVID_MASK);
 754              		.loc 1 476 4 view .LVU183
ARM GAS  /tmp/ccbNDzm8.s 			page 24


 755              		.loc 1 476 18 is_stmt 0 view .LVU184
 756 0000 024B     		ldr	r3, .L72
 757 0002 1868     		ldr	r0, [r3]
 477:Drivers/STM32H7xx_HAL_Driver/Src/stm32h7xx_hal.c **** }
 758              		.loc 1 477 1 view .LVU185
 759 0004 C0F30B00 		ubfx	r0, r0, #0, #12
 760 0008 7047     		bx	lr
 761              	.L73:
 762 000a 00BF     		.align	2
 763              	.L72:
 764 000c 0010005C 		.word	1543507968
 765              		.cfi_endproc
 766              	.LFE159:
 768              		.section	.text.HAL_GetUIDw0,"ax",%progbits
 769              		.align	1
 770              		.p2align 2,,3
 771              		.global	HAL_GetUIDw0
 772              		.syntax unified
 773              		.thumb
 774              		.thumb_func
 775              		.fpu fpv5-d16
 777              	HAL_GetUIDw0:
 778              	.LFB160:
 478:Drivers/STM32H7xx_HAL_Driver/Src/stm32h7xx_hal.c **** 
 479:Drivers/STM32H7xx_HAL_Driver/Src/stm32h7xx_hal.c **** /**
 480:Drivers/STM32H7xx_HAL_Driver/Src/stm32h7xx_hal.c ****   * @brief  Return the first word of the unique device identifier (UID based on 96 bits)
 481:Drivers/STM32H7xx_HAL_Driver/Src/stm32h7xx_hal.c ****   * @retval Device identifier
 482:Drivers/STM32H7xx_HAL_Driver/Src/stm32h7xx_hal.c ****   */
 483:Drivers/STM32H7xx_HAL_Driver/Src/stm32h7xx_hal.c **** uint32_t HAL_GetUIDw0(void)
 484:Drivers/STM32H7xx_HAL_Driver/Src/stm32h7xx_hal.c **** {
 779              		.loc 1 484 1 is_stmt 1 view -0
 780              		.cfi_startproc
 781              		@ args = 0, pretend = 0, frame = 0
 782              		@ frame_needed = 0, uses_anonymous_args = 0
 783              		@ link register save eliminated.
 485:Drivers/STM32H7xx_HAL_Driver/Src/stm32h7xx_hal.c ****   return(READ_REG(*((uint32_t *)UID_BASE)));
 784              		.loc 1 485 3 view .LVU187
 785              		.loc 1 485 10 is_stmt 0 view .LVU188
 786 0000 014B     		ldr	r3, .L75
 486:Drivers/STM32H7xx_HAL_Driver/Src/stm32h7xx_hal.c **** }
 787              		.loc 1 486 1 view .LVU189
 788 0002 D3F80008 		ldr	r0, [r3, #2048]
 789 0006 7047     		bx	lr
 790              	.L76:
 791              		.align	2
 792              	.L75:
 793 0008 00E0F11F 		.word	535945216
 794              		.cfi_endproc
 795              	.LFE160:
 797              		.section	.text.HAL_GetUIDw1,"ax",%progbits
 798              		.align	1
 799              		.p2align 2,,3
 800              		.global	HAL_GetUIDw1
 801              		.syntax unified
 802              		.thumb
 803              		.thumb_func
 804              		.fpu fpv5-d16
ARM GAS  /tmp/ccbNDzm8.s 			page 25


 806              	HAL_GetUIDw1:
 807              	.LFB161:
 487:Drivers/STM32H7xx_HAL_Driver/Src/stm32h7xx_hal.c **** 
 488:Drivers/STM32H7xx_HAL_Driver/Src/stm32h7xx_hal.c **** /**
 489:Drivers/STM32H7xx_HAL_Driver/Src/stm32h7xx_hal.c ****   * @brief  Return the second word of the unique device identifier (UID based on 96 bits)
 490:Drivers/STM32H7xx_HAL_Driver/Src/stm32h7xx_hal.c ****   * @retval Device identifier
 491:Drivers/STM32H7xx_HAL_Driver/Src/stm32h7xx_hal.c ****   */
 492:Drivers/STM32H7xx_HAL_Driver/Src/stm32h7xx_hal.c **** uint32_t HAL_GetUIDw1(void)
 493:Drivers/STM32H7xx_HAL_Driver/Src/stm32h7xx_hal.c **** {
 808              		.loc 1 493 1 is_stmt 1 view -0
 809              		.cfi_startproc
 810              		@ args = 0, pretend = 0, frame = 0
 811              		@ frame_needed = 0, uses_anonymous_args = 0
 812              		@ link register save eliminated.
 494:Drivers/STM32H7xx_HAL_Driver/Src/stm32h7xx_hal.c ****   return(READ_REG(*((uint32_t *)(UID_BASE + 4U))));
 813              		.loc 1 494 3 view .LVU191
 814              		.loc 1 494 10 is_stmt 0 view .LVU192
 815 0000 014B     		ldr	r3, .L78
 495:Drivers/STM32H7xx_HAL_Driver/Src/stm32h7xx_hal.c **** }
 816              		.loc 1 495 1 view .LVU193
 817 0002 D3F80408 		ldr	r0, [r3, #2052]
 818 0006 7047     		bx	lr
 819              	.L79:
 820              		.align	2
 821              	.L78:
 822 0008 00E0F11F 		.word	535945216
 823              		.cfi_endproc
 824              	.LFE161:
 826              		.section	.text.HAL_GetUIDw2,"ax",%progbits
 827              		.align	1
 828              		.p2align 2,,3
 829              		.global	HAL_GetUIDw2
 830              		.syntax unified
 831              		.thumb
 832              		.thumb_func
 833              		.fpu fpv5-d16
 835              	HAL_GetUIDw2:
 836              	.LFB162:
 496:Drivers/STM32H7xx_HAL_Driver/Src/stm32h7xx_hal.c **** 
 497:Drivers/STM32H7xx_HAL_Driver/Src/stm32h7xx_hal.c **** /**
 498:Drivers/STM32H7xx_HAL_Driver/Src/stm32h7xx_hal.c ****   * @brief  Return the third word of the unique device identifier (UID based on 96 bits)
 499:Drivers/STM32H7xx_HAL_Driver/Src/stm32h7xx_hal.c ****   * @retval Device identifier
 500:Drivers/STM32H7xx_HAL_Driver/Src/stm32h7xx_hal.c ****   */
 501:Drivers/STM32H7xx_HAL_Driver/Src/stm32h7xx_hal.c **** uint32_t HAL_GetUIDw2(void)
 502:Drivers/STM32H7xx_HAL_Driver/Src/stm32h7xx_hal.c **** {
 837              		.loc 1 502 1 is_stmt 1 view -0
 838              		.cfi_startproc
 839              		@ args = 0, pretend = 0, frame = 0
 840              		@ frame_needed = 0, uses_anonymous_args = 0
 841              		@ link register save eliminated.
 503:Drivers/STM32H7xx_HAL_Driver/Src/stm32h7xx_hal.c ****   return(READ_REG(*((uint32_t *)(UID_BASE + 8U))));
 842              		.loc 1 503 3 view .LVU195
 843              		.loc 1 503 10 is_stmt 0 view .LVU196
 844 0000 014B     		ldr	r3, .L81
 504:Drivers/STM32H7xx_HAL_Driver/Src/stm32h7xx_hal.c **** }
 845              		.loc 1 504 1 view .LVU197
 846 0002 D3F80808 		ldr	r0, [r3, #2056]
ARM GAS  /tmp/ccbNDzm8.s 			page 26


 847 0006 7047     		bx	lr
 848              	.L82:
 849              		.align	2
 850              	.L81:
 851 0008 00E0F11F 		.word	535945216
 852              		.cfi_endproc
 853              	.LFE162:
 855              		.section	.text.HAL_SYSCFG_VREFBUF_VoltageScalingConfig,"ax",%progbits
 856              		.align	1
 857              		.p2align 2,,3
 858              		.global	HAL_SYSCFG_VREFBUF_VoltageScalingConfig
 859              		.syntax unified
 860              		.thumb
 861              		.thumb_func
 862              		.fpu fpv5-d16
 864              	HAL_SYSCFG_VREFBUF_VoltageScalingConfig:
 865              	.LVL28:
 866              	.LFB163:
 505:Drivers/STM32H7xx_HAL_Driver/Src/stm32h7xx_hal.c **** 
 506:Drivers/STM32H7xx_HAL_Driver/Src/stm32h7xx_hal.c **** /**
 507:Drivers/STM32H7xx_HAL_Driver/Src/stm32h7xx_hal.c ****   * @brief Configure the internal voltage reference buffer voltage scale.
 508:Drivers/STM32H7xx_HAL_Driver/Src/stm32h7xx_hal.c ****   * @param VoltageScaling  specifies the output voltage to achieve
 509:Drivers/STM32H7xx_HAL_Driver/Src/stm32h7xx_hal.c ****   *          This parameter can be one of the following values:
 510:Drivers/STM32H7xx_HAL_Driver/Src/stm32h7xx_hal.c ****   *            @arg SYSCFG_VREFBUF_VOLTAGE_SCALE0: VREF_OUT1 around 2.5 V.
 511:Drivers/STM32H7xx_HAL_Driver/Src/stm32h7xx_hal.c ****   *                                                This requires VDDA equal to or higher than 2.8 V
 512:Drivers/STM32H7xx_HAL_Driver/Src/stm32h7xx_hal.c ****   *            @arg SYSCFG_VREFBUF_VOLTAGE_SCALE1: VREF_OUT2 around 2.048 V.
 513:Drivers/STM32H7xx_HAL_Driver/Src/stm32h7xx_hal.c ****   *                                                This requires VDDA equal to or higher than 2.4 V
 514:Drivers/STM32H7xx_HAL_Driver/Src/stm32h7xx_hal.c ****   *            @arg SYSCFG_VREFBUF_VOLTAGE_SCALE2: VREF_OUT3 around 1.8 V.
 515:Drivers/STM32H7xx_HAL_Driver/Src/stm32h7xx_hal.c ****   *                                                This requires VDDA equal to or higher than 2.1 V
 516:Drivers/STM32H7xx_HAL_Driver/Src/stm32h7xx_hal.c ****   *            @arg SYSCFG_VREFBUF_VOLTAGE_SCALE3: VREF_OUT4 around 1.5 V.
 517:Drivers/STM32H7xx_HAL_Driver/Src/stm32h7xx_hal.c ****   *                                                This requires VDDA equal to or higher than 1.8 V
 518:Drivers/STM32H7xx_HAL_Driver/Src/stm32h7xx_hal.c ****   * @retval None
 519:Drivers/STM32H7xx_HAL_Driver/Src/stm32h7xx_hal.c ****   */
 520:Drivers/STM32H7xx_HAL_Driver/Src/stm32h7xx_hal.c **** void HAL_SYSCFG_VREFBUF_VoltageScalingConfig(uint32_t VoltageScaling)
 521:Drivers/STM32H7xx_HAL_Driver/Src/stm32h7xx_hal.c **** {
 867              		.loc 1 521 1 is_stmt 1 view -0
 868              		.cfi_startproc
 869              		@ args = 0, pretend = 0, frame = 0
 870              		@ frame_needed = 0, uses_anonymous_args = 0
 871              		@ link register save eliminated.
 522:Drivers/STM32H7xx_HAL_Driver/Src/stm32h7xx_hal.c ****   /* Check the parameters */
 523:Drivers/STM32H7xx_HAL_Driver/Src/stm32h7xx_hal.c ****   assert_param(IS_SYSCFG_VREFBUF_VOLTAGE_SCALE(VoltageScaling));
 872              		.loc 1 523 3 view .LVU199
 524:Drivers/STM32H7xx_HAL_Driver/Src/stm32h7xx_hal.c **** 
 525:Drivers/STM32H7xx_HAL_Driver/Src/stm32h7xx_hal.c ****   MODIFY_REG(VREFBUF->CSR, VREFBUF_CSR_VRS, VoltageScaling);
 873              		.loc 1 525 3 view .LVU200
 874 0000 034A     		ldr	r2, .L84
 875 0002 1368     		ldr	r3, [r2]
 876 0004 23F07003 		bic	r3, r3, #112
 877 0008 1843     		orrs	r0, r0, r3
 878              	.LVL29:
 879              		.loc 1 525 3 is_stmt 0 view .LVU201
 880 000a 1060     		str	r0, [r2]
 526:Drivers/STM32H7xx_HAL_Driver/Src/stm32h7xx_hal.c **** }
 881              		.loc 1 526 1 view .LVU202
 882 000c 7047     		bx	lr
 883              	.L85:
ARM GAS  /tmp/ccbNDzm8.s 			page 27


 884 000e 00BF     		.align	2
 885              	.L84:
 886 0010 003C0058 		.word	1476410368
 887              		.cfi_endproc
 888              	.LFE163:
 890              		.section	.text.HAL_SYSCFG_VREFBUF_HighImpedanceConfig,"ax",%progbits
 891              		.align	1
 892              		.p2align 2,,3
 893              		.global	HAL_SYSCFG_VREFBUF_HighImpedanceConfig
 894              		.syntax unified
 895              		.thumb
 896              		.thumb_func
 897              		.fpu fpv5-d16
 899              	HAL_SYSCFG_VREFBUF_HighImpedanceConfig:
 900              	.LVL30:
 901              	.LFB164:
 527:Drivers/STM32H7xx_HAL_Driver/Src/stm32h7xx_hal.c **** 
 528:Drivers/STM32H7xx_HAL_Driver/Src/stm32h7xx_hal.c **** /**
 529:Drivers/STM32H7xx_HAL_Driver/Src/stm32h7xx_hal.c ****   * @brief Configure the internal voltage reference buffer high impedance mode.
 530:Drivers/STM32H7xx_HAL_Driver/Src/stm32h7xx_hal.c ****   * @param Mode  specifies the high impedance mode
 531:Drivers/STM32H7xx_HAL_Driver/Src/stm32h7xx_hal.c ****   *          This parameter can be one of the following values:
 532:Drivers/STM32H7xx_HAL_Driver/Src/stm32h7xx_hal.c ****   *            @arg SYSCFG_VREFBUF_HIGH_IMPEDANCE_DISABLE: VREF+ pin is internally connect to VREFI
 533:Drivers/STM32H7xx_HAL_Driver/Src/stm32h7xx_hal.c ****   *            @arg SYSCFG_VREFBUF_HIGH_IMPEDANCE_ENABLE: VREF+ pin is high impedance.
 534:Drivers/STM32H7xx_HAL_Driver/Src/stm32h7xx_hal.c ****   * @retval None
 535:Drivers/STM32H7xx_HAL_Driver/Src/stm32h7xx_hal.c ****   */
 536:Drivers/STM32H7xx_HAL_Driver/Src/stm32h7xx_hal.c **** void HAL_SYSCFG_VREFBUF_HighImpedanceConfig(uint32_t Mode)
 537:Drivers/STM32H7xx_HAL_Driver/Src/stm32h7xx_hal.c **** {
 902              		.loc 1 537 1 is_stmt 1 view -0
 903              		.cfi_startproc
 904              		@ args = 0, pretend = 0, frame = 0
 905              		@ frame_needed = 0, uses_anonymous_args = 0
 906              		@ link register save eliminated.
 538:Drivers/STM32H7xx_HAL_Driver/Src/stm32h7xx_hal.c ****   /* Check the parameters */
 539:Drivers/STM32H7xx_HAL_Driver/Src/stm32h7xx_hal.c ****   assert_param(IS_SYSCFG_VREFBUF_HIGH_IMPEDANCE(Mode));
 907              		.loc 1 539 3 view .LVU204
 540:Drivers/STM32H7xx_HAL_Driver/Src/stm32h7xx_hal.c **** 
 541:Drivers/STM32H7xx_HAL_Driver/Src/stm32h7xx_hal.c ****   MODIFY_REG(VREFBUF->CSR, VREFBUF_CSR_HIZ, Mode);
 908              		.loc 1 541 3 view .LVU205
 909 0000 034A     		ldr	r2, .L87
 910 0002 1368     		ldr	r3, [r2]
 911 0004 23F00203 		bic	r3, r3, #2
 912 0008 1843     		orrs	r0, r0, r3
 913              	.LVL31:
 914              		.loc 1 541 3 is_stmt 0 view .LVU206
 915 000a 1060     		str	r0, [r2]
 542:Drivers/STM32H7xx_HAL_Driver/Src/stm32h7xx_hal.c **** }
 916              		.loc 1 542 1 view .LVU207
 917 000c 7047     		bx	lr
 918              	.L88:
 919 000e 00BF     		.align	2
 920              	.L87:
 921 0010 003C0058 		.word	1476410368
 922              		.cfi_endproc
 923              	.LFE164:
 925              		.section	.text.HAL_SYSCFG_VREFBUF_TrimmingConfig,"ax",%progbits
 926              		.align	1
 927              		.p2align 2,,3
ARM GAS  /tmp/ccbNDzm8.s 			page 28


 928              		.global	HAL_SYSCFG_VREFBUF_TrimmingConfig
 929              		.syntax unified
 930              		.thumb
 931              		.thumb_func
 932              		.fpu fpv5-d16
 934              	HAL_SYSCFG_VREFBUF_TrimmingConfig:
 935              	.LVL32:
 936              	.LFB165:
 543:Drivers/STM32H7xx_HAL_Driver/Src/stm32h7xx_hal.c **** 
 544:Drivers/STM32H7xx_HAL_Driver/Src/stm32h7xx_hal.c **** /**
 545:Drivers/STM32H7xx_HAL_Driver/Src/stm32h7xx_hal.c ****   * @brief  Tune the Internal Voltage Reference buffer (VREFBUF).
 546:Drivers/STM32H7xx_HAL_Driver/Src/stm32h7xx_hal.c ****   * @retval None
 547:Drivers/STM32H7xx_HAL_Driver/Src/stm32h7xx_hal.c ****   */
 548:Drivers/STM32H7xx_HAL_Driver/Src/stm32h7xx_hal.c **** void HAL_SYSCFG_VREFBUF_TrimmingConfig(uint32_t TrimmingValue)
 549:Drivers/STM32H7xx_HAL_Driver/Src/stm32h7xx_hal.c **** {
 937              		.loc 1 549 1 is_stmt 1 view -0
 938              		.cfi_startproc
 939              		@ args = 0, pretend = 0, frame = 0
 940              		@ frame_needed = 0, uses_anonymous_args = 0
 941              		@ link register save eliminated.
 550:Drivers/STM32H7xx_HAL_Driver/Src/stm32h7xx_hal.c ****   /* Check the parameters */
 551:Drivers/STM32H7xx_HAL_Driver/Src/stm32h7xx_hal.c ****   assert_param(IS_SYSCFG_VREFBUF_TRIMMING(TrimmingValue));
 942              		.loc 1 551 3 view .LVU209
 552:Drivers/STM32H7xx_HAL_Driver/Src/stm32h7xx_hal.c **** 
 553:Drivers/STM32H7xx_HAL_Driver/Src/stm32h7xx_hal.c ****   MODIFY_REG(VREFBUF->CCR, VREFBUF_CCR_TRIM, TrimmingValue);
 943              		.loc 1 553 3 view .LVU210
 944 0000 034A     		ldr	r2, .L90
 945 0002 5368     		ldr	r3, [r2, #4]
 946 0004 23F03F03 		bic	r3, r3, #63
 947 0008 1843     		orrs	r0, r0, r3
 948              	.LVL33:
 949              		.loc 1 553 3 is_stmt 0 view .LVU211
 950 000a 5060     		str	r0, [r2, #4]
 554:Drivers/STM32H7xx_HAL_Driver/Src/stm32h7xx_hal.c **** }
 951              		.loc 1 554 1 view .LVU212
 952 000c 7047     		bx	lr
 953              	.L91:
 954 000e 00BF     		.align	2
 955              	.L90:
 956 0010 003C0058 		.word	1476410368
 957              		.cfi_endproc
 958              	.LFE165:
 960              		.section	.text.HAL_SYSCFG_EnableVREFBUF,"ax",%progbits
 961              		.align	1
 962              		.p2align 2,,3
 963              		.global	HAL_SYSCFG_EnableVREFBUF
 964              		.syntax unified
 965              		.thumb
 966              		.thumb_func
 967              		.fpu fpv5-d16
 969              	HAL_SYSCFG_EnableVREFBUF:
 970              	.LFB166:
 555:Drivers/STM32H7xx_HAL_Driver/Src/stm32h7xx_hal.c **** 
 556:Drivers/STM32H7xx_HAL_Driver/Src/stm32h7xx_hal.c **** /**
 557:Drivers/STM32H7xx_HAL_Driver/Src/stm32h7xx_hal.c ****   * @brief  Enable the Internal Voltage Reference buffer (VREFBUF).
 558:Drivers/STM32H7xx_HAL_Driver/Src/stm32h7xx_hal.c ****   * @retval HAL_OK/HAL_TIMEOUT
 559:Drivers/STM32H7xx_HAL_Driver/Src/stm32h7xx_hal.c ****   */
ARM GAS  /tmp/ccbNDzm8.s 			page 29


 560:Drivers/STM32H7xx_HAL_Driver/Src/stm32h7xx_hal.c **** HAL_StatusTypeDef HAL_SYSCFG_EnableVREFBUF(void)
 561:Drivers/STM32H7xx_HAL_Driver/Src/stm32h7xx_hal.c **** {
 971              		.loc 1 561 1 is_stmt 1 view -0
 972              		.cfi_startproc
 973              		@ args = 0, pretend = 0, frame = 0
 974              		@ frame_needed = 0, uses_anonymous_args = 0
 562:Drivers/STM32H7xx_HAL_Driver/Src/stm32h7xx_hal.c ****   uint32_t  tickstart;
 975              		.loc 1 562 3 view .LVU214
 563:Drivers/STM32H7xx_HAL_Driver/Src/stm32h7xx_hal.c **** 
 564:Drivers/STM32H7xx_HAL_Driver/Src/stm32h7xx_hal.c ****   SET_BIT(VREFBUF->CSR, VREFBUF_CSR_ENVR);
 976              		.loc 1 564 3 view .LVU215
 561:Drivers/STM32H7xx_HAL_Driver/Src/stm32h7xx_hal.c ****   uint32_t  tickstart;
 977              		.loc 1 561 1 is_stmt 0 view .LVU216
 978 0000 38B5     		push	{r3, r4, r5, lr}
 979              	.LCFI5:
 980              		.cfi_def_cfa_offset 16
 981              		.cfi_offset 3, -16
 982              		.cfi_offset 4, -12
 983              		.cfi_offset 5, -8
 984              		.cfi_offset 14, -4
 985              		.loc 1 564 3 view .LVU217
 986 0002 0A4C     		ldr	r4, .L98
 987 0004 2368     		ldr	r3, [r4]
 988 0006 43F00103 		orr	r3, r3, #1
 989 000a 2360     		str	r3, [r4]
 565:Drivers/STM32H7xx_HAL_Driver/Src/stm32h7xx_hal.c **** 
 566:Drivers/STM32H7xx_HAL_Driver/Src/stm32h7xx_hal.c ****   /* Get Start Tick*/
 567:Drivers/STM32H7xx_HAL_Driver/Src/stm32h7xx_hal.c ****   tickstart = HAL_GetTick();
 990              		.loc 1 567 3 is_stmt 1 view .LVU218
 991              		.loc 1 567 15 is_stmt 0 view .LVU219
 992 000c FFF7FEFF 		bl	HAL_GetTick
 993              	.LVL34:
 994 0010 0546     		mov	r5, r0
 995              	.LVL35:
 568:Drivers/STM32H7xx_HAL_Driver/Src/stm32h7xx_hal.c **** 
 569:Drivers/STM32H7xx_HAL_Driver/Src/stm32h7xx_hal.c ****   /* Wait for VRR bit  */
 570:Drivers/STM32H7xx_HAL_Driver/Src/stm32h7xx_hal.c ****   while(READ_BIT(VREFBUF->CSR, VREFBUF_CSR_VRR) == 0UL)
 996              		.loc 1 570 3 is_stmt 1 view .LVU220
 997              		.loc 1 570 8 is_stmt 0 view .LVU221
 998 0012 04E0     		b	.L93
 999              	.LVL36:
 1000              	.L95:
 571:Drivers/STM32H7xx_HAL_Driver/Src/stm32h7xx_hal.c ****   {
 572:Drivers/STM32H7xx_HAL_Driver/Src/stm32h7xx_hal.c ****     if((HAL_GetTick() - tickstart) > VREFBUF_TIMEOUT_VALUE)
 1001              		.loc 1 572 9 view .LVU222
 1002 0014 FFF7FEFF 		bl	HAL_GetTick
 1003              	.LVL37:
 1004              		.loc 1 572 23 view .LVU223
 1005 0018 401B     		subs	r0, r0, r5
 1006              		.loc 1 572 7 view .LVU224
 1007 001a 0A28     		cmp	r0, #10
 1008 001c 04D8     		bhi	.L96
 1009              	.L93:
 1010              		.loc 1 572 5 is_stmt 1 view .LVU225
 570:Drivers/STM32H7xx_HAL_Driver/Src/stm32h7xx_hal.c ****   {
 1011              		.loc 1 570 8 view .LVU226
 570:Drivers/STM32H7xx_HAL_Driver/Src/stm32h7xx_hal.c ****   {
ARM GAS  /tmp/ccbNDzm8.s 			page 30


 1012              		.loc 1 570 9 is_stmt 0 view .LVU227
 1013 001e 2368     		ldr	r3, [r4]
 570:Drivers/STM32H7xx_HAL_Driver/Src/stm32h7xx_hal.c ****   {
 1014              		.loc 1 570 8 view .LVU228
 1015 0020 1B07     		lsls	r3, r3, #28
 1016 0022 F7D5     		bpl	.L95
 573:Drivers/STM32H7xx_HAL_Driver/Src/stm32h7xx_hal.c ****     {
 574:Drivers/STM32H7xx_HAL_Driver/Src/stm32h7xx_hal.c ****       return HAL_TIMEOUT;
 575:Drivers/STM32H7xx_HAL_Driver/Src/stm32h7xx_hal.c ****     }
 576:Drivers/STM32H7xx_HAL_Driver/Src/stm32h7xx_hal.c ****   }
 577:Drivers/STM32H7xx_HAL_Driver/Src/stm32h7xx_hal.c **** 
 578:Drivers/STM32H7xx_HAL_Driver/Src/stm32h7xx_hal.c ****   return HAL_OK;
 1017              		.loc 1 578 10 view .LVU229
 1018 0024 0020     		movs	r0, #0
 579:Drivers/STM32H7xx_HAL_Driver/Src/stm32h7xx_hal.c **** }
 1019              		.loc 1 579 1 view .LVU230
 1020 0026 38BD     		pop	{r3, r4, r5, pc}
 1021              	.LVL38:
 1022              	.L96:
 574:Drivers/STM32H7xx_HAL_Driver/Src/stm32h7xx_hal.c ****     }
 1023              		.loc 1 574 14 view .LVU231
 1024 0028 0320     		movs	r0, #3
 1025              		.loc 1 579 1 view .LVU232
 1026 002a 38BD     		pop	{r3, r4, r5, pc}
 1027              	.LVL39:
 1028              	.L99:
 1029              		.loc 1 579 1 view .LVU233
 1030              		.align	2
 1031              	.L98:
 1032 002c 003C0058 		.word	1476410368
 1033              		.cfi_endproc
 1034              	.LFE166:
 1036              		.section	.text.HAL_SYSCFG_DisableVREFBUF,"ax",%progbits
 1037              		.align	1
 1038              		.p2align 2,,3
 1039              		.global	HAL_SYSCFG_DisableVREFBUF
 1040              		.syntax unified
 1041              		.thumb
 1042              		.thumb_func
 1043              		.fpu fpv5-d16
 1045              	HAL_SYSCFG_DisableVREFBUF:
 1046              	.LFB167:
 580:Drivers/STM32H7xx_HAL_Driver/Src/stm32h7xx_hal.c **** 
 581:Drivers/STM32H7xx_HAL_Driver/Src/stm32h7xx_hal.c **** /**
 582:Drivers/STM32H7xx_HAL_Driver/Src/stm32h7xx_hal.c ****   * @brief  Disable the Internal Voltage Reference buffer (VREFBUF).
 583:Drivers/STM32H7xx_HAL_Driver/Src/stm32h7xx_hal.c ****   *
 584:Drivers/STM32H7xx_HAL_Driver/Src/stm32h7xx_hal.c ****   * @retval None
 585:Drivers/STM32H7xx_HAL_Driver/Src/stm32h7xx_hal.c ****   */
 586:Drivers/STM32H7xx_HAL_Driver/Src/stm32h7xx_hal.c **** void HAL_SYSCFG_DisableVREFBUF(void)
 587:Drivers/STM32H7xx_HAL_Driver/Src/stm32h7xx_hal.c **** {
 1047              		.loc 1 587 1 is_stmt 1 view -0
 1048              		.cfi_startproc
 1049              		@ args = 0, pretend = 0, frame = 0
 1050              		@ frame_needed = 0, uses_anonymous_args = 0
 1051              		@ link register save eliminated.
 588:Drivers/STM32H7xx_HAL_Driver/Src/stm32h7xx_hal.c ****   CLEAR_BIT(VREFBUF->CSR, VREFBUF_CSR_ENVR);
 1052              		.loc 1 588 3 view .LVU235
ARM GAS  /tmp/ccbNDzm8.s 			page 31


 1053 0000 024A     		ldr	r2, .L101
 1054 0002 1368     		ldr	r3, [r2]
 1055 0004 23F00103 		bic	r3, r3, #1
 1056 0008 1360     		str	r3, [r2]
 589:Drivers/STM32H7xx_HAL_Driver/Src/stm32h7xx_hal.c **** }
 1057              		.loc 1 589 1 is_stmt 0 view .LVU236
 1058 000a 7047     		bx	lr
 1059              	.L102:
 1060              		.align	2
 1061              	.L101:
 1062 000c 003C0058 		.word	1476410368
 1063              		.cfi_endproc
 1064              	.LFE167:
 1066              		.section	.text.HAL_SYSCFG_ETHInterfaceSelect,"ax",%progbits
 1067              		.align	1
 1068              		.p2align 2,,3
 1069              		.global	HAL_SYSCFG_ETHInterfaceSelect
 1070              		.syntax unified
 1071              		.thumb
 1072              		.thumb_func
 1073              		.fpu fpv5-d16
 1075              	HAL_SYSCFG_ETHInterfaceSelect:
 1076              	.LVL40:
 1077              	.LFB168:
 590:Drivers/STM32H7xx_HAL_Driver/Src/stm32h7xx_hal.c **** 
 591:Drivers/STM32H7xx_HAL_Driver/Src/stm32h7xx_hal.c **** #if defined(SYSCFG_PMCR_EPIS_SEL)
 592:Drivers/STM32H7xx_HAL_Driver/Src/stm32h7xx_hal.c **** /**
 593:Drivers/STM32H7xx_HAL_Driver/Src/stm32h7xx_hal.c ****   * @brief  Ethernet PHY Interface Selection either MII or RMII
 594:Drivers/STM32H7xx_HAL_Driver/Src/stm32h7xx_hal.c ****   * @param  SYSCFG_ETHInterface: Selects the Ethernet PHY interface
 595:Drivers/STM32H7xx_HAL_Driver/Src/stm32h7xx_hal.c ****   *   This parameter can be one of the following values:
 596:Drivers/STM32H7xx_HAL_Driver/Src/stm32h7xx_hal.c ****   *   @arg SYSCFG_ETH_MII : Select the Media Independent Interface
 597:Drivers/STM32H7xx_HAL_Driver/Src/stm32h7xx_hal.c ****   *   @arg SYSCFG_ETH_RMII: Select the Reduced Media Independent Interface
 598:Drivers/STM32H7xx_HAL_Driver/Src/stm32h7xx_hal.c ****   * @retval None
 599:Drivers/STM32H7xx_HAL_Driver/Src/stm32h7xx_hal.c ****   */
 600:Drivers/STM32H7xx_HAL_Driver/Src/stm32h7xx_hal.c **** void HAL_SYSCFG_ETHInterfaceSelect(uint32_t SYSCFG_ETHInterface)
 601:Drivers/STM32H7xx_HAL_Driver/Src/stm32h7xx_hal.c **** {
 1078              		.loc 1 601 1 is_stmt 1 view -0
 1079              		.cfi_startproc
 1080              		@ args = 0, pretend = 0, frame = 0
 1081              		@ frame_needed = 0, uses_anonymous_args = 0
 1082              		@ link register save eliminated.
 602:Drivers/STM32H7xx_HAL_Driver/Src/stm32h7xx_hal.c ****   /* Check the parameter */
 603:Drivers/STM32H7xx_HAL_Driver/Src/stm32h7xx_hal.c ****   assert_param(IS_SYSCFG_ETHERNET_CONFIG(SYSCFG_ETHInterface));
 1083              		.loc 1 603 3 view .LVU238
 604:Drivers/STM32H7xx_HAL_Driver/Src/stm32h7xx_hal.c **** 
 605:Drivers/STM32H7xx_HAL_Driver/Src/stm32h7xx_hal.c ****   MODIFY_REG(SYSCFG->PMCR, SYSCFG_PMCR_EPIS_SEL, (uint32_t)(SYSCFG_ETHInterface));
 1084              		.loc 1 605 3 view .LVU239
 1085 0000 034A     		ldr	r2, .L104
 1086 0002 5368     		ldr	r3, [r2, #4]
 1087 0004 23F46003 		bic	r3, r3, #14680064
 1088 0008 1843     		orrs	r0, r0, r3
 1089              	.LVL41:
 1090              		.loc 1 605 3 is_stmt 0 view .LVU240
 1091 000a 5060     		str	r0, [r2, #4]
 606:Drivers/STM32H7xx_HAL_Driver/Src/stm32h7xx_hal.c **** }
 1092              		.loc 1 606 1 view .LVU241
 1093 000c 7047     		bx	lr
ARM GAS  /tmp/ccbNDzm8.s 			page 32


 1094              	.L105:
 1095 000e 00BF     		.align	2
 1096              	.L104:
 1097 0010 00040058 		.word	1476396032
 1098              		.cfi_endproc
 1099              	.LFE168:
 1101              		.section	.text.HAL_SYSCFG_AnalogSwitchConfig,"ax",%progbits
 1102              		.align	1
 1103              		.p2align 2,,3
 1104              		.global	HAL_SYSCFG_AnalogSwitchConfig
 1105              		.syntax unified
 1106              		.thumb
 1107              		.thumb_func
 1108              		.fpu fpv5-d16
 1110              	HAL_SYSCFG_AnalogSwitchConfig:
 1111              	.LVL42:
 1112              	.LFB169:
 607:Drivers/STM32H7xx_HAL_Driver/Src/stm32h7xx_hal.c **** #endif /* SYSCFG_PMCR_EPIS_SEL */
 608:Drivers/STM32H7xx_HAL_Driver/Src/stm32h7xx_hal.c **** 
 609:Drivers/STM32H7xx_HAL_Driver/Src/stm32h7xx_hal.c **** /**
 610:Drivers/STM32H7xx_HAL_Driver/Src/stm32h7xx_hal.c ****   * @brief  Analog Switch control for dual analog pads.
 611:Drivers/STM32H7xx_HAL_Driver/Src/stm32h7xx_hal.c ****   * @param  SYSCFG_AnalogSwitch: Selects the analog pad
 612:Drivers/STM32H7xx_HAL_Driver/Src/stm32h7xx_hal.c ****   *   This parameter can be one or a combination of the following values:
 613:Drivers/STM32H7xx_HAL_Driver/Src/stm32h7xx_hal.c ****   *   @arg SYSCFG_SWITCH_PA0 : Select PA0 analog switch
 614:Drivers/STM32H7xx_HAL_Driver/Src/stm32h7xx_hal.c ****   *   @arg SYSCFG_SWITCH_PA1:  Select PA1 analog switch
 615:Drivers/STM32H7xx_HAL_Driver/Src/stm32h7xx_hal.c ****   *   @arg SYSCFG_SWITCH_PC2 : Select PC2 analog switch
 616:Drivers/STM32H7xx_HAL_Driver/Src/stm32h7xx_hal.c ****   *   @arg SYSCFG_SWITCH_PC3:  Select PC3 analog switch
 617:Drivers/STM32H7xx_HAL_Driver/Src/stm32h7xx_hal.c ****   * @param  SYSCFG_SwitchState: Open or Close the analog switch between dual pads (PXn and PXn_C)
 618:Drivers/STM32H7xx_HAL_Driver/Src/stm32h7xx_hal.c ****   *   This parameter can be one or a combination of the following values:
 619:Drivers/STM32H7xx_HAL_Driver/Src/stm32h7xx_hal.c ****   *   @arg SYSCFG_SWITCH_PA0_OPEN
 620:Drivers/STM32H7xx_HAL_Driver/Src/stm32h7xx_hal.c ****   *   @arg SYSCFG_SWITCH_PA0_CLOSE
 621:Drivers/STM32H7xx_HAL_Driver/Src/stm32h7xx_hal.c ****   *   @arg SYSCFG_SWITCH_PA1_OPEN
 622:Drivers/STM32H7xx_HAL_Driver/Src/stm32h7xx_hal.c ****   *   @arg SYSCFG_SWITCH_PA1_CLOSE
 623:Drivers/STM32H7xx_HAL_Driver/Src/stm32h7xx_hal.c ****   *   @arg SYSCFG_SWITCH_PC2_OPEN
 624:Drivers/STM32H7xx_HAL_Driver/Src/stm32h7xx_hal.c ****   *   @arg SYSCFG_SWITCH_PC2_CLOSE
 625:Drivers/STM32H7xx_HAL_Driver/Src/stm32h7xx_hal.c ****   *   @arg SYSCFG_SWITCH_PC3_OPEN
 626:Drivers/STM32H7xx_HAL_Driver/Src/stm32h7xx_hal.c ****   *   @arg SYSCFG_SWITCH_PC3_CLOSE
 627:Drivers/STM32H7xx_HAL_Driver/Src/stm32h7xx_hal.c ****   * @retval None
 628:Drivers/STM32H7xx_HAL_Driver/Src/stm32h7xx_hal.c ****   */
 629:Drivers/STM32H7xx_HAL_Driver/Src/stm32h7xx_hal.c **** 
 630:Drivers/STM32H7xx_HAL_Driver/Src/stm32h7xx_hal.c **** void HAL_SYSCFG_AnalogSwitchConfig(uint32_t SYSCFG_AnalogSwitch , uint32_t SYSCFG_SwitchState )
 631:Drivers/STM32H7xx_HAL_Driver/Src/stm32h7xx_hal.c **** {
 1113              		.loc 1 631 1 is_stmt 1 view -0
 1114              		.cfi_startproc
 1115              		@ args = 0, pretend = 0, frame = 0
 1116              		@ frame_needed = 0, uses_anonymous_args = 0
 1117              		@ link register save eliminated.
 632:Drivers/STM32H7xx_HAL_Driver/Src/stm32h7xx_hal.c ****   /* Check the parameter */
 633:Drivers/STM32H7xx_HAL_Driver/Src/stm32h7xx_hal.c ****   assert_param(IS_SYSCFG_ANALOG_SWITCH(SYSCFG_AnalogSwitch));
 1118              		.loc 1 633 3 view .LVU243
 634:Drivers/STM32H7xx_HAL_Driver/Src/stm32h7xx_hal.c ****   assert_param(IS_SYSCFG_SWITCH_STATE(SYSCFG_SwitchState));
 1119              		.loc 1 634 3 view .LVU244
 635:Drivers/STM32H7xx_HAL_Driver/Src/stm32h7xx_hal.c **** 
 636:Drivers/STM32H7xx_HAL_Driver/Src/stm32h7xx_hal.c ****   MODIFY_REG(SYSCFG->PMCR, (uint32_t) SYSCFG_AnalogSwitch, (uint32_t)(SYSCFG_SwitchState));
 1120              		.loc 1 636 3 view .LVU245
 1121 0000 034A     		ldr	r2, .L107
 1122 0002 5368     		ldr	r3, [r2, #4]
ARM GAS  /tmp/ccbNDzm8.s 			page 33


 1123 0004 23EA0000 		bic	r0, r3, r0
 1124              	.LVL43:
 1125              		.loc 1 636 3 is_stmt 0 view .LVU246
 1126 0008 0143     		orrs	r1, r1, r0
 1127              	.LVL44:
 1128              		.loc 1 636 3 view .LVU247
 1129 000a 5160     		str	r1, [r2, #4]
 637:Drivers/STM32H7xx_HAL_Driver/Src/stm32h7xx_hal.c **** }
 1130              		.loc 1 637 1 view .LVU248
 1131 000c 7047     		bx	lr
 1132              	.L108:
 1133 000e 00BF     		.align	2
 1134              	.L107:
 1135 0010 00040058 		.word	1476396032
 1136              		.cfi_endproc
 1137              	.LFE169:
 1139              		.section	.text.HAL_SYSCFG_EnableBOOST,"ax",%progbits
 1140              		.align	1
 1141              		.p2align 2,,3
 1142              		.global	HAL_SYSCFG_EnableBOOST
 1143              		.syntax unified
 1144              		.thumb
 1145              		.thumb_func
 1146              		.fpu fpv5-d16
 1148              	HAL_SYSCFG_EnableBOOST:
 1149              	.LFB170:
 638:Drivers/STM32H7xx_HAL_Driver/Src/stm32h7xx_hal.c **** 
 639:Drivers/STM32H7xx_HAL_Driver/Src/stm32h7xx_hal.c **** #if defined(SYSCFG_PMCR_BOOSTEN)
 640:Drivers/STM32H7xx_HAL_Driver/Src/stm32h7xx_hal.c **** /**
 641:Drivers/STM32H7xx_HAL_Driver/Src/stm32h7xx_hal.c ****   * @brief  Enables the booster to reduce the total harmonic distortion of the analog
 642:Drivers/STM32H7xx_HAL_Driver/Src/stm32h7xx_hal.c ****   *         switch when the supply voltage is lower than 2.7 V.
 643:Drivers/STM32H7xx_HAL_Driver/Src/stm32h7xx_hal.c ****   * @note   Activating the booster allows to guaranty the analog switch AC performance
 644:Drivers/STM32H7xx_HAL_Driver/Src/stm32h7xx_hal.c ****   *         when the supply voltage is below 2.7 V: in this case, the analog switch
 645:Drivers/STM32H7xx_HAL_Driver/Src/stm32h7xx_hal.c ****   *         performance is the same on the full voltage range
 646:Drivers/STM32H7xx_HAL_Driver/Src/stm32h7xx_hal.c ****   * @retval None
 647:Drivers/STM32H7xx_HAL_Driver/Src/stm32h7xx_hal.c ****   */
 648:Drivers/STM32H7xx_HAL_Driver/Src/stm32h7xx_hal.c **** void HAL_SYSCFG_EnableBOOST(void)
 649:Drivers/STM32H7xx_HAL_Driver/Src/stm32h7xx_hal.c **** {
 1150              		.loc 1 649 1 is_stmt 1 view -0
 1151              		.cfi_startproc
 1152              		@ args = 0, pretend = 0, frame = 0
 1153              		@ frame_needed = 0, uses_anonymous_args = 0
 1154              		@ link register save eliminated.
 650:Drivers/STM32H7xx_HAL_Driver/Src/stm32h7xx_hal.c ****  SET_BIT(SYSCFG->PMCR, SYSCFG_PMCR_BOOSTEN) ;
 1155              		.loc 1 650 2 view .LVU250
 1156 0000 024A     		ldr	r2, .L110
 1157 0002 5368     		ldr	r3, [r2, #4]
 1158 0004 43F48073 		orr	r3, r3, #256
 1159 0008 5360     		str	r3, [r2, #4]
 651:Drivers/STM32H7xx_HAL_Driver/Src/stm32h7xx_hal.c **** }
 1160              		.loc 1 651 1 is_stmt 0 view .LVU251
 1161 000a 7047     		bx	lr
 1162              	.L111:
 1163              		.align	2
 1164              	.L110:
 1165 000c 00040058 		.word	1476396032
 1166              		.cfi_endproc
ARM GAS  /tmp/ccbNDzm8.s 			page 34


 1167              	.LFE170:
 1169              		.section	.text.HAL_SYSCFG_DisableBOOST,"ax",%progbits
 1170              		.align	1
 1171              		.p2align 2,,3
 1172              		.global	HAL_SYSCFG_DisableBOOST
 1173              		.syntax unified
 1174              		.thumb
 1175              		.thumb_func
 1176              		.fpu fpv5-d16
 1178              	HAL_SYSCFG_DisableBOOST:
 1179              	.LFB171:
 652:Drivers/STM32H7xx_HAL_Driver/Src/stm32h7xx_hal.c **** 
 653:Drivers/STM32H7xx_HAL_Driver/Src/stm32h7xx_hal.c **** /**
 654:Drivers/STM32H7xx_HAL_Driver/Src/stm32h7xx_hal.c ****   * @brief  Disables the booster
 655:Drivers/STM32H7xx_HAL_Driver/Src/stm32h7xx_hal.c ****   * @note   Activating the booster allows to guaranty the analog switch AC performance
 656:Drivers/STM32H7xx_HAL_Driver/Src/stm32h7xx_hal.c ****   *         when the supply voltage is below 2.7 V: in this case, the analog switch
 657:Drivers/STM32H7xx_HAL_Driver/Src/stm32h7xx_hal.c ****   *         performance is the same on the full voltage range
 658:Drivers/STM32H7xx_HAL_Driver/Src/stm32h7xx_hal.c ****   * @retval None
 659:Drivers/STM32H7xx_HAL_Driver/Src/stm32h7xx_hal.c ****   */
 660:Drivers/STM32H7xx_HAL_Driver/Src/stm32h7xx_hal.c **** void HAL_SYSCFG_DisableBOOST(void)
 661:Drivers/STM32H7xx_HAL_Driver/Src/stm32h7xx_hal.c **** {
 1180              		.loc 1 661 1 is_stmt 1 view -0
 1181              		.cfi_startproc
 1182              		@ args = 0, pretend = 0, frame = 0
 1183              		@ frame_needed = 0, uses_anonymous_args = 0
 1184              		@ link register save eliminated.
 662:Drivers/STM32H7xx_HAL_Driver/Src/stm32h7xx_hal.c ****  CLEAR_BIT(SYSCFG->PMCR, SYSCFG_PMCR_BOOSTEN) ;
 1185              		.loc 1 662 2 view .LVU253
 1186 0000 024A     		ldr	r2, .L113
 1187 0002 5368     		ldr	r3, [r2, #4]
 1188 0004 23F48073 		bic	r3, r3, #256
 1189 0008 5360     		str	r3, [r2, #4]
 663:Drivers/STM32H7xx_HAL_Driver/Src/stm32h7xx_hal.c **** }
 1190              		.loc 1 663 1 is_stmt 0 view .LVU254
 1191 000a 7047     		bx	lr
 1192              	.L114:
 1193              		.align	2
 1194              	.L113:
 1195 000c 00040058 		.word	1476396032
 1196              		.cfi_endproc
 1197              	.LFE171:
 1199              		.section	.text.HAL_SYSCFG_CM7BootAddConfig,"ax",%progbits
 1200              		.align	1
 1201              		.p2align 2,,3
 1202              		.global	HAL_SYSCFG_CM7BootAddConfig
 1203              		.syntax unified
 1204              		.thumb
 1205              		.thumb_func
 1206              		.fpu fpv5-d16
 1208              	HAL_SYSCFG_CM7BootAddConfig:
 1209              	.LVL45:
 1210              	.LFB172:
 664:Drivers/STM32H7xx_HAL_Driver/Src/stm32h7xx_hal.c **** #endif /* SYSCFG_PMCR_BOOSTEN */
 665:Drivers/STM32H7xx_HAL_Driver/Src/stm32h7xx_hal.c **** 
 666:Drivers/STM32H7xx_HAL_Driver/Src/stm32h7xx_hal.c **** #if defined (SYSCFG_UR2_BOOT_ADD0) ||  defined (SYSCFG_UR2_BCM7_ADD0)
 667:Drivers/STM32H7xx_HAL_Driver/Src/stm32h7xx_hal.c **** /**
 668:Drivers/STM32H7xx_HAL_Driver/Src/stm32h7xx_hal.c ****   * @brief  BootCM7 address 0 configuration
ARM GAS  /tmp/ccbNDzm8.s 			page 35


 669:Drivers/STM32H7xx_HAL_Driver/Src/stm32h7xx_hal.c ****   * @param  BootRegister :Specifies the Boot Address register (Address0 or Address1)
 670:Drivers/STM32H7xx_HAL_Driver/Src/stm32h7xx_hal.c ****   *   This parameter can be one of the following values:
 671:Drivers/STM32H7xx_HAL_Driver/Src/stm32h7xx_hal.c ****   *   @arg SYSCFG_BOOT_ADDR0 : Select the boot address0
 672:Drivers/STM32H7xx_HAL_Driver/Src/stm32h7xx_hal.c ****   *   @arg SYSCFG_BOOT_ADDR1:  Select the boot address1
 673:Drivers/STM32H7xx_HAL_Driver/Src/stm32h7xx_hal.c ****   * @param  BootAddress :Specifies the CM7 Boot Address to be loaded in Address0 or Address1
 674:Drivers/STM32H7xx_HAL_Driver/Src/stm32h7xx_hal.c ****   * @retval None
 675:Drivers/STM32H7xx_HAL_Driver/Src/stm32h7xx_hal.c ****   */
 676:Drivers/STM32H7xx_HAL_Driver/Src/stm32h7xx_hal.c **** void HAL_SYSCFG_CM7BootAddConfig(uint32_t BootRegister, uint32_t BootAddress)
 677:Drivers/STM32H7xx_HAL_Driver/Src/stm32h7xx_hal.c **** {
 1211              		.loc 1 677 1 is_stmt 1 view -0
 1212              		.cfi_startproc
 1213              		@ args = 0, pretend = 0, frame = 0
 1214              		@ frame_needed = 0, uses_anonymous_args = 0
 1215              		@ link register save eliminated.
 678:Drivers/STM32H7xx_HAL_Driver/Src/stm32h7xx_hal.c ****   /* Check the parameters */
 679:Drivers/STM32H7xx_HAL_Driver/Src/stm32h7xx_hal.c ****   assert_param(IS_SYSCFG_BOOT_REGISTER(BootRegister));
 1216              		.loc 1 679 3 view .LVU256
 680:Drivers/STM32H7xx_HAL_Driver/Src/stm32h7xx_hal.c ****   assert_param(IS_SYSCFG_BOOT_ADDRESS(BootAddress));
 1217              		.loc 1 680 3 view .LVU257
 681:Drivers/STM32H7xx_HAL_Driver/Src/stm32h7xx_hal.c ****   if ( BootRegister == SYSCFG_BOOT_ADDR0 )
 1218              		.loc 1 681 3 view .LVU258
 1219              		.loc 1 681 6 is_stmt 0 view .LVU259
 1220 0000 48B9     		cbnz	r0, .L116
 682:Drivers/STM32H7xx_HAL_Driver/Src/stm32h7xx_hal.c ****   {
 683:Drivers/STM32H7xx_HAL_Driver/Src/stm32h7xx_hal.c ****     /* Configure CM7 BOOT ADD0 */
 684:Drivers/STM32H7xx_HAL_Driver/Src/stm32h7xx_hal.c **** #if defined(DUAL_CORE)
 685:Drivers/STM32H7xx_HAL_Driver/Src/stm32h7xx_hal.c ****     MODIFY_REG(SYSCFG->UR2, SYSCFG_UR2_BCM7_ADD0, ((BootAddress >> 16) << SYSCFG_UR2_BCM7_ADD0_Pos)
 686:Drivers/STM32H7xx_HAL_Driver/Src/stm32h7xx_hal.c **** #else
 687:Drivers/STM32H7xx_HAL_Driver/Src/stm32h7xx_hal.c ****     MODIFY_REG(SYSCFG->UR2, SYSCFG_UR2_BOOT_ADD0, ((BootAddress >> 16) << SYSCFG_UR2_BOOT_ADD0_Pos)
 1221              		.loc 1 687 5 is_stmt 1 view .LVU260
 1222 0002 0A48     		ldr	r0, .L118
 1223              	.LVL46:
 1224              		.loc 1 687 5 is_stmt 0 view .LVU261
 1225 0004 0A4B     		ldr	r3, .L118+4
 1226 0006 D0F80823 		ldr	r2, [r0, #776]
 1227 000a 0B40     		ands	r3, r3, r1
 1228 000c 92B2     		uxth	r2, r2
 1229 000e 1343     		orrs	r3, r3, r2
 1230 0010 C0F80833 		str	r3, [r0, #776]
 1231 0014 7047     		bx	lr
 1232              	.LVL47:
 1233              	.L116:
 688:Drivers/STM32H7xx_HAL_Driver/Src/stm32h7xx_hal.c **** #endif /*DUAL_CORE*/
 689:Drivers/STM32H7xx_HAL_Driver/Src/stm32h7xx_hal.c ****   }
 690:Drivers/STM32H7xx_HAL_Driver/Src/stm32h7xx_hal.c ****   else
 691:Drivers/STM32H7xx_HAL_Driver/Src/stm32h7xx_hal.c ****   {
 692:Drivers/STM32H7xx_HAL_Driver/Src/stm32h7xx_hal.c ****     /* Configure CM7 BOOT ADD1 */
 693:Drivers/STM32H7xx_HAL_Driver/Src/stm32h7xx_hal.c **** #if defined(DUAL_CORE)
 694:Drivers/STM32H7xx_HAL_Driver/Src/stm32h7xx_hal.c ****     MODIFY_REG(SYSCFG->UR3, SYSCFG_UR3_BCM7_ADD1, (BootAddress >> 16));
 695:Drivers/STM32H7xx_HAL_Driver/Src/stm32h7xx_hal.c **** #else
 696:Drivers/STM32H7xx_HAL_Driver/Src/stm32h7xx_hal.c ****     MODIFY_REG(SYSCFG->UR3, SYSCFG_UR3_BOOT_ADD1, (BootAddress >> 16));
 1234              		.loc 1 696 5 is_stmt 1 view .LVU262
 1235 0016 054A     		ldr	r2, .L118
 1236 0018 054B     		ldr	r3, .L118+4
 1237 001a D2F80C03 		ldr	r0, [r2, #780]
 1238              	.LVL48:
 1239              		.loc 1 696 5 is_stmt 0 view .LVU263
ARM GAS  /tmp/ccbNDzm8.s 			page 36


 1240 001e 0340     		ands	r3, r3, r0
 1241 0020 43EA1141 		orr	r1, r3, r1, lsr #16
 1242              	.LVL49:
 1243              		.loc 1 696 5 view .LVU264
 1244 0024 C2F80C13 		str	r1, [r2, #780]
 697:Drivers/STM32H7xx_HAL_Driver/Src/stm32h7xx_hal.c **** #endif /*DUAL_CORE*/
 698:Drivers/STM32H7xx_HAL_Driver/Src/stm32h7xx_hal.c ****   }
 699:Drivers/STM32H7xx_HAL_Driver/Src/stm32h7xx_hal.c **** }
 1245              		.loc 1 699 1 view .LVU265
 1246 0028 7047     		bx	lr
 1247              	.L119:
 1248 002a 00BF     		.align	2
 1249              	.L118:
 1250 002c 00040058 		.word	1476396032
 1251 0030 0000FFFF 		.word	-65536
 1252              		.cfi_endproc
 1253              	.LFE172:
 1255              		.section	.text.HAL_EnableCompensationCell,"ax",%progbits
 1256              		.align	1
 1257              		.p2align 2,,3
 1258              		.global	HAL_EnableCompensationCell
 1259              		.syntax unified
 1260              		.thumb
 1261              		.thumb_func
 1262              		.fpu fpv5-d16
 1264              	HAL_EnableCompensationCell:
 1265              	.LFB173:
 700:Drivers/STM32H7xx_HAL_Driver/Src/stm32h7xx_hal.c **** #endif /* SYSCFG_UR2_BOOT_ADD0 || SYSCFG_UR2_BCM7_ADD0 */
 701:Drivers/STM32H7xx_HAL_Driver/Src/stm32h7xx_hal.c **** 
 702:Drivers/STM32H7xx_HAL_Driver/Src/stm32h7xx_hal.c **** #if defined(DUAL_CORE)
 703:Drivers/STM32H7xx_HAL_Driver/Src/stm32h7xx_hal.c **** /**
 704:Drivers/STM32H7xx_HAL_Driver/Src/stm32h7xx_hal.c ****   * @brief  BootCM4 address 0 configuration
 705:Drivers/STM32H7xx_HAL_Driver/Src/stm32h7xx_hal.c ****   * @param  BootRegister :Specifies the Boot Address register (Address0 or Address1)
 706:Drivers/STM32H7xx_HAL_Driver/Src/stm32h7xx_hal.c ****   *   This parameter can be one of the following values:
 707:Drivers/STM32H7xx_HAL_Driver/Src/stm32h7xx_hal.c ****   *   @arg SYSCFG_BOOT_ADDR0 : Select the boot address0
 708:Drivers/STM32H7xx_HAL_Driver/Src/stm32h7xx_hal.c ****   *   @arg SYSCFG_BOOT_ADDR1:  Select the boot address1
 709:Drivers/STM32H7xx_HAL_Driver/Src/stm32h7xx_hal.c ****   * @param  BootAddress :Specifies the CM4 Boot Address to be loaded in Address0 or Address1
 710:Drivers/STM32H7xx_HAL_Driver/Src/stm32h7xx_hal.c ****   * @retval None
 711:Drivers/STM32H7xx_HAL_Driver/Src/stm32h7xx_hal.c ****   */
 712:Drivers/STM32H7xx_HAL_Driver/Src/stm32h7xx_hal.c **** void HAL_SYSCFG_CM4BootAddConfig(uint32_t BootRegister, uint32_t BootAddress)
 713:Drivers/STM32H7xx_HAL_Driver/Src/stm32h7xx_hal.c **** {
 714:Drivers/STM32H7xx_HAL_Driver/Src/stm32h7xx_hal.c ****   /* Check the parameters */
 715:Drivers/STM32H7xx_HAL_Driver/Src/stm32h7xx_hal.c ****   assert_param(IS_SYSCFG_BOOT_REGISTER(BootRegister));
 716:Drivers/STM32H7xx_HAL_Driver/Src/stm32h7xx_hal.c ****   assert_param(IS_SYSCFG_BOOT_ADDRESS(BootAddress));
 717:Drivers/STM32H7xx_HAL_Driver/Src/stm32h7xx_hal.c **** 
 718:Drivers/STM32H7xx_HAL_Driver/Src/stm32h7xx_hal.c ****   if ( BootRegister == SYSCFG_BOOT_ADDR0 )
 719:Drivers/STM32H7xx_HAL_Driver/Src/stm32h7xx_hal.c ****   {
 720:Drivers/STM32H7xx_HAL_Driver/Src/stm32h7xx_hal.c ****     /* Configure CM4 BOOT ADD0 */
 721:Drivers/STM32H7xx_HAL_Driver/Src/stm32h7xx_hal.c ****     MODIFY_REG(SYSCFG->UR3, SYSCFG_UR3_BCM4_ADD0, ((BootAddress >> 16)<< SYSCFG_UR3_BCM4_ADD0_Pos))
 722:Drivers/STM32H7xx_HAL_Driver/Src/stm32h7xx_hal.c ****   }
 723:Drivers/STM32H7xx_HAL_Driver/Src/stm32h7xx_hal.c **** 
 724:Drivers/STM32H7xx_HAL_Driver/Src/stm32h7xx_hal.c ****   else
 725:Drivers/STM32H7xx_HAL_Driver/Src/stm32h7xx_hal.c ****   {
 726:Drivers/STM32H7xx_HAL_Driver/Src/stm32h7xx_hal.c ****     /* Configure CM4 BOOT ADD1 */
 727:Drivers/STM32H7xx_HAL_Driver/Src/stm32h7xx_hal.c ****     MODIFY_REG(SYSCFG->UR4, SYSCFG_UR4_BCM4_ADD1, (BootAddress >> 16));
 728:Drivers/STM32H7xx_HAL_Driver/Src/stm32h7xx_hal.c ****   }
 729:Drivers/STM32H7xx_HAL_Driver/Src/stm32h7xx_hal.c **** }
ARM GAS  /tmp/ccbNDzm8.s 			page 37


 730:Drivers/STM32H7xx_HAL_Driver/Src/stm32h7xx_hal.c **** 
 731:Drivers/STM32H7xx_HAL_Driver/Src/stm32h7xx_hal.c **** /**
 732:Drivers/STM32H7xx_HAL_Driver/Src/stm32h7xx_hal.c ****   * @brief  Enables the Cortex-M7 boot
 733:Drivers/STM32H7xx_HAL_Driver/Src/stm32h7xx_hal.c ****   * @retval None
 734:Drivers/STM32H7xx_HAL_Driver/Src/stm32h7xx_hal.c ****   */
 735:Drivers/STM32H7xx_HAL_Driver/Src/stm32h7xx_hal.c **** void HAL_SYSCFG_EnableCM7BOOT(void)
 736:Drivers/STM32H7xx_HAL_Driver/Src/stm32h7xx_hal.c **** {
 737:Drivers/STM32H7xx_HAL_Driver/Src/stm32h7xx_hal.c ****  SET_BIT(SYSCFG->UR1, SYSCFG_UR1_BCM7);
 738:Drivers/STM32H7xx_HAL_Driver/Src/stm32h7xx_hal.c **** }
 739:Drivers/STM32H7xx_HAL_Driver/Src/stm32h7xx_hal.c **** 
 740:Drivers/STM32H7xx_HAL_Driver/Src/stm32h7xx_hal.c **** /**
 741:Drivers/STM32H7xx_HAL_Driver/Src/stm32h7xx_hal.c ****   * @brief  Disables the Cortex-M7 boot
 742:Drivers/STM32H7xx_HAL_Driver/Src/stm32h7xx_hal.c ****   * @note   Disabling the boot will gate the CPU clock
 743:Drivers/STM32H7xx_HAL_Driver/Src/stm32h7xx_hal.c ****   * @retval None
 744:Drivers/STM32H7xx_HAL_Driver/Src/stm32h7xx_hal.c ****   */
 745:Drivers/STM32H7xx_HAL_Driver/Src/stm32h7xx_hal.c **** void HAL_SYSCFG_DisableCM7BOOT(void)
 746:Drivers/STM32H7xx_HAL_Driver/Src/stm32h7xx_hal.c **** {
 747:Drivers/STM32H7xx_HAL_Driver/Src/stm32h7xx_hal.c ****  CLEAR_BIT(SYSCFG->UR1, SYSCFG_UR1_BCM7) ;
 748:Drivers/STM32H7xx_HAL_Driver/Src/stm32h7xx_hal.c **** }
 749:Drivers/STM32H7xx_HAL_Driver/Src/stm32h7xx_hal.c **** 
 750:Drivers/STM32H7xx_HAL_Driver/Src/stm32h7xx_hal.c **** /**
 751:Drivers/STM32H7xx_HAL_Driver/Src/stm32h7xx_hal.c ****   * @brief  Enables the Cortex-M4 boot
 752:Drivers/STM32H7xx_HAL_Driver/Src/stm32h7xx_hal.c ****   * @retval None
 753:Drivers/STM32H7xx_HAL_Driver/Src/stm32h7xx_hal.c ****   */
 754:Drivers/STM32H7xx_HAL_Driver/Src/stm32h7xx_hal.c **** void HAL_SYSCFG_EnableCM4BOOT(void)
 755:Drivers/STM32H7xx_HAL_Driver/Src/stm32h7xx_hal.c **** {
 756:Drivers/STM32H7xx_HAL_Driver/Src/stm32h7xx_hal.c ****  SET_BIT(SYSCFG->UR1, SYSCFG_UR1_BCM4);
 757:Drivers/STM32H7xx_HAL_Driver/Src/stm32h7xx_hal.c **** }
 758:Drivers/STM32H7xx_HAL_Driver/Src/stm32h7xx_hal.c **** 
 759:Drivers/STM32H7xx_HAL_Driver/Src/stm32h7xx_hal.c **** /**
 760:Drivers/STM32H7xx_HAL_Driver/Src/stm32h7xx_hal.c ****   * @brief  Disables the Cortex-M4 boot
 761:Drivers/STM32H7xx_HAL_Driver/Src/stm32h7xx_hal.c ****   * @note   Disabling the boot will gate the CPU clock
 762:Drivers/STM32H7xx_HAL_Driver/Src/stm32h7xx_hal.c ****   * @retval None
 763:Drivers/STM32H7xx_HAL_Driver/Src/stm32h7xx_hal.c ****   */
 764:Drivers/STM32H7xx_HAL_Driver/Src/stm32h7xx_hal.c **** void HAL_SYSCFG_DisableCM4BOOT(void)
 765:Drivers/STM32H7xx_HAL_Driver/Src/stm32h7xx_hal.c **** {
 766:Drivers/STM32H7xx_HAL_Driver/Src/stm32h7xx_hal.c ****   CLEAR_BIT(SYSCFG->UR1, SYSCFG_UR1_BCM4);
 767:Drivers/STM32H7xx_HAL_Driver/Src/stm32h7xx_hal.c **** }
 768:Drivers/STM32H7xx_HAL_Driver/Src/stm32h7xx_hal.c **** #endif /*DUAL_CORE*/
 769:Drivers/STM32H7xx_HAL_Driver/Src/stm32h7xx_hal.c **** /**
 770:Drivers/STM32H7xx_HAL_Driver/Src/stm32h7xx_hal.c ****   * @brief  Enables the I/O Compensation Cell.
 771:Drivers/STM32H7xx_HAL_Driver/Src/stm32h7xx_hal.c ****   * @note   The I/O compensation cell can be used only when the device supply
 772:Drivers/STM32H7xx_HAL_Driver/Src/stm32h7xx_hal.c ****   *         voltage ranges from 1.62 to 2.0 V and from 2.7 to 3.6 V.
 773:Drivers/STM32H7xx_HAL_Driver/Src/stm32h7xx_hal.c ****   * @retval None
 774:Drivers/STM32H7xx_HAL_Driver/Src/stm32h7xx_hal.c ****   */
 775:Drivers/STM32H7xx_HAL_Driver/Src/stm32h7xx_hal.c **** void HAL_EnableCompensationCell(void)
 776:Drivers/STM32H7xx_HAL_Driver/Src/stm32h7xx_hal.c **** {
 1266              		.loc 1 776 1 is_stmt 1 view -0
 1267              		.cfi_startproc
 1268              		@ args = 0, pretend = 0, frame = 0
 1269              		@ frame_needed = 0, uses_anonymous_args = 0
 1270              		@ link register save eliminated.
 777:Drivers/STM32H7xx_HAL_Driver/Src/stm32h7xx_hal.c ****   SET_BIT(SYSCFG->CCCSR, SYSCFG_CCCSR_EN) ;
 1271              		.loc 1 777 3 view .LVU267
 1272 0000 024A     		ldr	r2, .L121
 1273 0002 136A     		ldr	r3, [r2, #32]
 1274 0004 43F00103 		orr	r3, r3, #1
ARM GAS  /tmp/ccbNDzm8.s 			page 38


 1275 0008 1362     		str	r3, [r2, #32]
 778:Drivers/STM32H7xx_HAL_Driver/Src/stm32h7xx_hal.c **** }
 1276              		.loc 1 778 1 is_stmt 0 view .LVU268
 1277 000a 7047     		bx	lr
 1278              	.L122:
 1279              		.align	2
 1280              	.L121:
 1281 000c 00040058 		.word	1476396032
 1282              		.cfi_endproc
 1283              	.LFE173:
 1285              		.section	.text.HAL_DisableCompensationCell,"ax",%progbits
 1286              		.align	1
 1287              		.p2align 2,,3
 1288              		.global	HAL_DisableCompensationCell
 1289              		.syntax unified
 1290              		.thumb
 1291              		.thumb_func
 1292              		.fpu fpv5-d16
 1294              	HAL_DisableCompensationCell:
 1295              	.LFB174:
 779:Drivers/STM32H7xx_HAL_Driver/Src/stm32h7xx_hal.c **** 
 780:Drivers/STM32H7xx_HAL_Driver/Src/stm32h7xx_hal.c **** /**
 781:Drivers/STM32H7xx_HAL_Driver/Src/stm32h7xx_hal.c ****   * @brief  Power-down the I/O Compensation Cell.
 782:Drivers/STM32H7xx_HAL_Driver/Src/stm32h7xx_hal.c ****   * @note   The I/O compensation cell can be used only when the device supply
 783:Drivers/STM32H7xx_HAL_Driver/Src/stm32h7xx_hal.c ****   *         voltage ranges from 1.62 to 2.0 V and from 2.7 to 3.6 V.
 784:Drivers/STM32H7xx_HAL_Driver/Src/stm32h7xx_hal.c ****   * @retval None
 785:Drivers/STM32H7xx_HAL_Driver/Src/stm32h7xx_hal.c ****   */
 786:Drivers/STM32H7xx_HAL_Driver/Src/stm32h7xx_hal.c **** void HAL_DisableCompensationCell(void)
 787:Drivers/STM32H7xx_HAL_Driver/Src/stm32h7xx_hal.c **** {
 1296              		.loc 1 787 1 is_stmt 1 view -0
 1297              		.cfi_startproc
 1298              		@ args = 0, pretend = 0, frame = 0
 1299              		@ frame_needed = 0, uses_anonymous_args = 0
 1300              		@ link register save eliminated.
 788:Drivers/STM32H7xx_HAL_Driver/Src/stm32h7xx_hal.c ****   CLEAR_BIT(SYSCFG->CCCSR, SYSCFG_CCCSR_EN);
 1301              		.loc 1 788 3 view .LVU270
 1302 0000 024A     		ldr	r2, .L124
 1303 0002 136A     		ldr	r3, [r2, #32]
 1304 0004 23F00103 		bic	r3, r3, #1
 1305 0008 1362     		str	r3, [r2, #32]
 789:Drivers/STM32H7xx_HAL_Driver/Src/stm32h7xx_hal.c **** }
 1306              		.loc 1 789 1 is_stmt 0 view .LVU271
 1307 000a 7047     		bx	lr
 1308              	.L125:
 1309              		.align	2
 1310              	.L124:
 1311 000c 00040058 		.word	1476396032
 1312              		.cfi_endproc
 1313              	.LFE174:
 1315              		.section	.text.HAL_SYSCFG_EnableIOSpeedOptimize,"ax",%progbits
 1316              		.align	1
 1317              		.p2align 2,,3
 1318              		.global	HAL_SYSCFG_EnableIOSpeedOptimize
 1319              		.syntax unified
 1320              		.thumb
 1321              		.thumb_func
 1322              		.fpu fpv5-d16
ARM GAS  /tmp/ccbNDzm8.s 			page 39


 1324              	HAL_SYSCFG_EnableIOSpeedOptimize:
 1325              	.LFB175:
 790:Drivers/STM32H7xx_HAL_Driver/Src/stm32h7xx_hal.c **** 
 791:Drivers/STM32H7xx_HAL_Driver/Src/stm32h7xx_hal.c **** 
 792:Drivers/STM32H7xx_HAL_Driver/Src/stm32h7xx_hal.c **** /**
 793:Drivers/STM32H7xx_HAL_Driver/Src/stm32h7xx_hal.c ****   * @brief  To Enable optimize the I/O speed when the product voltage is low.
 794:Drivers/STM32H7xx_HAL_Driver/Src/stm32h7xx_hal.c ****   * @note   This bit is active only if PRODUCT_BELOW_25V user option bit is set. It must be
 795:Drivers/STM32H7xx_HAL_Driver/Src/stm32h7xx_hal.c ****   *         used only if the product supply voltage is below 2.5 V. Setting this bit when VDD is
 796:Drivers/STM32H7xx_HAL_Driver/Src/stm32h7xx_hal.c ****   *         higher than 2.5 V might be destructive.
 797:Drivers/STM32H7xx_HAL_Driver/Src/stm32h7xx_hal.c ****   * @retval None
 798:Drivers/STM32H7xx_HAL_Driver/Src/stm32h7xx_hal.c ****   */
 799:Drivers/STM32H7xx_HAL_Driver/Src/stm32h7xx_hal.c **** void HAL_SYSCFG_EnableIOSpeedOptimize(void)
 800:Drivers/STM32H7xx_HAL_Driver/Src/stm32h7xx_hal.c **** {
 1326              		.loc 1 800 1 is_stmt 1 view -0
 1327              		.cfi_startproc
 1328              		@ args = 0, pretend = 0, frame = 0
 1329              		@ frame_needed = 0, uses_anonymous_args = 0
 1330              		@ link register save eliminated.
 801:Drivers/STM32H7xx_HAL_Driver/Src/stm32h7xx_hal.c **** #if defined(SYSCFG_CCCSR_HSLV)
 802:Drivers/STM32H7xx_HAL_Driver/Src/stm32h7xx_hal.c ****   SET_BIT(SYSCFG->CCCSR, SYSCFG_CCCSR_HSLV);
 1331              		.loc 1 802 3 view .LVU273
 1332 0000 024A     		ldr	r2, .L127
 1333 0002 136A     		ldr	r3, [r2, #32]
 1334 0004 43F48033 		orr	r3, r3, #65536
 1335 0008 1362     		str	r3, [r2, #32]
 803:Drivers/STM32H7xx_HAL_Driver/Src/stm32h7xx_hal.c **** #else
 804:Drivers/STM32H7xx_HAL_Driver/Src/stm32h7xx_hal.c ****   SET_BIT(SYSCFG->CCCSR, (SYSCFG_CCCSR_HSLV0| SYSCFG_CCCSR_HSLV1 | SYSCFG_CCCSR_HSLV2  | SYSCFG_CCC
 805:Drivers/STM32H7xx_HAL_Driver/Src/stm32h7xx_hal.c **** #endif   /* SYSCFG_CCCSR_HSLV */
 806:Drivers/STM32H7xx_HAL_Driver/Src/stm32h7xx_hal.c **** }
 1336              		.loc 1 806 1 is_stmt 0 view .LVU274
 1337 000a 7047     		bx	lr
 1338              	.L128:
 1339              		.align	2
 1340              	.L127:
 1341 000c 00040058 		.word	1476396032
 1342              		.cfi_endproc
 1343              	.LFE175:
 1345              		.section	.text.HAL_SYSCFG_DisableIOSpeedOptimize,"ax",%progbits
 1346              		.align	1
 1347              		.p2align 2,,3
 1348              		.global	HAL_SYSCFG_DisableIOSpeedOptimize
 1349              		.syntax unified
 1350              		.thumb
 1351              		.thumb_func
 1352              		.fpu fpv5-d16
 1354              	HAL_SYSCFG_DisableIOSpeedOptimize:
 1355              	.LFB176:
 807:Drivers/STM32H7xx_HAL_Driver/Src/stm32h7xx_hal.c **** 
 808:Drivers/STM32H7xx_HAL_Driver/Src/stm32h7xx_hal.c **** /**
 809:Drivers/STM32H7xx_HAL_Driver/Src/stm32h7xx_hal.c ****   * @brief  To Disable optimize the I/O speed when the product voltage is low.
 810:Drivers/STM32H7xx_HAL_Driver/Src/stm32h7xx_hal.c ****   * @note   This bit is active only if PRODUCT_BELOW_25V user option bit is set. It must be
 811:Drivers/STM32H7xx_HAL_Driver/Src/stm32h7xx_hal.c ****   *         used only if the product supply voltage is below 2.5 V. Setting this bit when VDD is
 812:Drivers/STM32H7xx_HAL_Driver/Src/stm32h7xx_hal.c ****   *         higher than 2.5 V might be destructive.
 813:Drivers/STM32H7xx_HAL_Driver/Src/stm32h7xx_hal.c ****   * @retval None
 814:Drivers/STM32H7xx_HAL_Driver/Src/stm32h7xx_hal.c ****   */
 815:Drivers/STM32H7xx_HAL_Driver/Src/stm32h7xx_hal.c **** void HAL_SYSCFG_DisableIOSpeedOptimize(void)
 816:Drivers/STM32H7xx_HAL_Driver/Src/stm32h7xx_hal.c **** {
ARM GAS  /tmp/ccbNDzm8.s 			page 40


 1356              		.loc 1 816 1 is_stmt 1 view -0
 1357              		.cfi_startproc
 1358              		@ args = 0, pretend = 0, frame = 0
 1359              		@ frame_needed = 0, uses_anonymous_args = 0
 1360              		@ link register save eliminated.
 817:Drivers/STM32H7xx_HAL_Driver/Src/stm32h7xx_hal.c **** #if defined(SYSCFG_CCCSR_HSLV)
 818:Drivers/STM32H7xx_HAL_Driver/Src/stm32h7xx_hal.c ****   CLEAR_BIT(SYSCFG->CCCSR, SYSCFG_CCCSR_HSLV);
 1361              		.loc 1 818 3 view .LVU276
 1362 0000 024A     		ldr	r2, .L130
 1363 0002 136A     		ldr	r3, [r2, #32]
 1364 0004 23F48033 		bic	r3, r3, #65536
 1365 0008 1362     		str	r3, [r2, #32]
 819:Drivers/STM32H7xx_HAL_Driver/Src/stm32h7xx_hal.c **** #else
 820:Drivers/STM32H7xx_HAL_Driver/Src/stm32h7xx_hal.c ****   CLEAR_BIT(SYSCFG->CCCSR, (SYSCFG_CCCSR_HSLV0| SYSCFG_CCCSR_HSLV1 | SYSCFG_CCCSR_HSLV2  | SYSCFG_C
 821:Drivers/STM32H7xx_HAL_Driver/Src/stm32h7xx_hal.c **** #endif   /* SYSCFG_CCCSR_HSLV */
 822:Drivers/STM32H7xx_HAL_Driver/Src/stm32h7xx_hal.c **** }
 1366              		.loc 1 822 1 is_stmt 0 view .LVU277
 1367 000a 7047     		bx	lr
 1368              	.L131:
 1369              		.align	2
 1370              	.L130:
 1371 000c 00040058 		.word	1476396032
 1372              		.cfi_endproc
 1373              	.LFE176:
 1375              		.section	.text.HAL_SYSCFG_CompensationCodeSelect,"ax",%progbits
 1376              		.align	1
 1377              		.p2align 2,,3
 1378              		.global	HAL_SYSCFG_CompensationCodeSelect
 1379              		.syntax unified
 1380              		.thumb
 1381              		.thumb_func
 1382              		.fpu fpv5-d16
 1384              	HAL_SYSCFG_CompensationCodeSelect:
 1385              	.LVL50:
 1386              	.LFB177:
 823:Drivers/STM32H7xx_HAL_Driver/Src/stm32h7xx_hal.c **** 
 824:Drivers/STM32H7xx_HAL_Driver/Src/stm32h7xx_hal.c **** /**
 825:Drivers/STM32H7xx_HAL_Driver/Src/stm32h7xx_hal.c ****   * @brief  Code selection for the I/O Compensation cell
 826:Drivers/STM32H7xx_HAL_Driver/Src/stm32h7xx_hal.c ****   * @param  SYSCFG_CompCode: Selects the code to be applied for the I/O compensation cell
 827:Drivers/STM32H7xx_HAL_Driver/Src/stm32h7xx_hal.c ****   *   This parameter can be one of the following values:
 828:Drivers/STM32H7xx_HAL_Driver/Src/stm32h7xx_hal.c ****   *   @arg SYSCFG_CELL_CODE : Select Code from the cell (available in the SYSCFG_CCVR)
 829:Drivers/STM32H7xx_HAL_Driver/Src/stm32h7xx_hal.c ****   *   @arg SYSCFG_REGISTER_CODE: Select Code from the SYSCFG compensation cell code register (SYSCF
 830:Drivers/STM32H7xx_HAL_Driver/Src/stm32h7xx_hal.c ****   * @retval None
 831:Drivers/STM32H7xx_HAL_Driver/Src/stm32h7xx_hal.c ****   */
 832:Drivers/STM32H7xx_HAL_Driver/Src/stm32h7xx_hal.c **** void HAL_SYSCFG_CompensationCodeSelect(uint32_t SYSCFG_CompCode)
 833:Drivers/STM32H7xx_HAL_Driver/Src/stm32h7xx_hal.c **** {
 1387              		.loc 1 833 1 is_stmt 1 view -0
 1388              		.cfi_startproc
 1389              		@ args = 0, pretend = 0, frame = 0
 1390              		@ frame_needed = 0, uses_anonymous_args = 0
 1391              		@ link register save eliminated.
 834:Drivers/STM32H7xx_HAL_Driver/Src/stm32h7xx_hal.c ****   /* Check the parameter */
 835:Drivers/STM32H7xx_HAL_Driver/Src/stm32h7xx_hal.c ****   assert_param(IS_SYSCFG_CODE_SELECT(SYSCFG_CompCode));
 1392              		.loc 1 835 3 view .LVU279
 836:Drivers/STM32H7xx_HAL_Driver/Src/stm32h7xx_hal.c ****   MODIFY_REG(SYSCFG->CCCSR, SYSCFG_CCCSR_CS, (uint32_t)(SYSCFG_CompCode));
 1393              		.loc 1 836 3 view .LVU280
 1394 0000 034A     		ldr	r2, .L133
ARM GAS  /tmp/ccbNDzm8.s 			page 41


 1395 0002 136A     		ldr	r3, [r2, #32]
 1396 0004 23F00203 		bic	r3, r3, #2
 1397 0008 1843     		orrs	r0, r0, r3
 1398              	.LVL51:
 1399              		.loc 1 836 3 is_stmt 0 view .LVU281
 1400 000a 1062     		str	r0, [r2, #32]
 837:Drivers/STM32H7xx_HAL_Driver/Src/stm32h7xx_hal.c **** }
 1401              		.loc 1 837 1 view .LVU282
 1402 000c 7047     		bx	lr
 1403              	.L134:
 1404 000e 00BF     		.align	2
 1405              	.L133:
 1406 0010 00040058 		.word	1476396032
 1407              		.cfi_endproc
 1408              	.LFE177:
 1410              		.section	.text.HAL_SYSCFG_CompensationCodeConfig,"ax",%progbits
 1411              		.align	1
 1412              		.p2align 2,,3
 1413              		.global	HAL_SYSCFG_CompensationCodeConfig
 1414              		.syntax unified
 1415              		.thumb
 1416              		.thumb_func
 1417              		.fpu fpv5-d16
 1419              	HAL_SYSCFG_CompensationCodeConfig:
 1420              	.LVL52:
 1421              	.LFB178:
 838:Drivers/STM32H7xx_HAL_Driver/Src/stm32h7xx_hal.c **** 
 839:Drivers/STM32H7xx_HAL_Driver/Src/stm32h7xx_hal.c **** /**
 840:Drivers/STM32H7xx_HAL_Driver/Src/stm32h7xx_hal.c ****   * @brief  Code selection for the I/O Compensation cell
 841:Drivers/STM32H7xx_HAL_Driver/Src/stm32h7xx_hal.c ****   * @param  SYSCFG_PMOSCode: PMOS compensation code
 842:Drivers/STM32H7xx_HAL_Driver/Src/stm32h7xx_hal.c ****   *         This code is applied to the I/O compensation cell when the CS bit of the
 843:Drivers/STM32H7xx_HAL_Driver/Src/stm32h7xx_hal.c ****   *          SYSCFG_CMPCR is set
 844:Drivers/STM32H7xx_HAL_Driver/Src/stm32h7xx_hal.c ****   * @param  SYSCFG_NMOSCode: NMOS compensation code
 845:Drivers/STM32H7xx_HAL_Driver/Src/stm32h7xx_hal.c ****   *         This code is applied to the I/O compensation cell when the CS bit of the
 846:Drivers/STM32H7xx_HAL_Driver/Src/stm32h7xx_hal.c ****   *          SYSCFG_CMPCR is set
 847:Drivers/STM32H7xx_HAL_Driver/Src/stm32h7xx_hal.c ****   * @retval None
 848:Drivers/STM32H7xx_HAL_Driver/Src/stm32h7xx_hal.c ****   */
 849:Drivers/STM32H7xx_HAL_Driver/Src/stm32h7xx_hal.c **** void HAL_SYSCFG_CompensationCodeConfig(uint32_t SYSCFG_PMOSCode, uint32_t SYSCFG_NMOSCode )
 850:Drivers/STM32H7xx_HAL_Driver/Src/stm32h7xx_hal.c **** {
 1422              		.loc 1 850 1 is_stmt 1 view -0
 1423              		.cfi_startproc
 1424              		@ args = 0, pretend = 0, frame = 0
 1425              		@ frame_needed = 0, uses_anonymous_args = 0
 1426              		@ link register save eliminated.
 851:Drivers/STM32H7xx_HAL_Driver/Src/stm32h7xx_hal.c ****   /* Check the parameter */
 852:Drivers/STM32H7xx_HAL_Driver/Src/stm32h7xx_hal.c ****   assert_param(IS_SYSCFG_CODE_CONFIG(SYSCFG_PMOSCode));
 1427              		.loc 1 852 3 view .LVU284
 853:Drivers/STM32H7xx_HAL_Driver/Src/stm32h7xx_hal.c ****   assert_param(IS_SYSCFG_CODE_CONFIG(SYSCFG_NMOSCode));
 1428              		.loc 1 853 3 view .LVU285
 854:Drivers/STM32H7xx_HAL_Driver/Src/stm32h7xx_hal.c ****   MODIFY_REG(SYSCFG->CCCR, SYSCFG_CCCR_NCC|SYSCFG_CCCR_PCC, (((uint32_t)(SYSCFG_PMOSCode)<< 4)|(uin
 1429              		.loc 1 854 3 view .LVU286
 1430 0000 044A     		ldr	r2, .L136
 1431 0002 936A     		ldr	r3, [r2, #40]
 1432 0004 23F0FF03 		bic	r3, r3, #255
 1433 0008 1943     		orrs	r1, r1, r3
 1434              	.LVL53:
 1435              		.loc 1 854 3 is_stmt 0 view .LVU287
ARM GAS  /tmp/ccbNDzm8.s 			page 42


 1436 000a 41EA0010 		orr	r0, r1, r0, lsl #4
 1437              	.LVL54:
 1438              		.loc 1 854 3 view .LVU288
 1439 000e 9062     		str	r0, [r2, #40]
 855:Drivers/STM32H7xx_HAL_Driver/Src/stm32h7xx_hal.c **** }
 1440              		.loc 1 855 1 view .LVU289
 1441 0010 7047     		bx	lr
 1442              	.L137:
 1443 0012 00BF     		.align	2
 1444              	.L136:
 1445 0014 00040058 		.word	1476396032
 1446              		.cfi_endproc
 1447              	.LFE178:
 1449              		.section	.text.HAL_DBGMCU_EnableDBGSleepMode,"ax",%progbits
 1450              		.align	1
 1451              		.p2align 2,,3
 1452              		.global	HAL_DBGMCU_EnableDBGSleepMode
 1453              		.syntax unified
 1454              		.thumb
 1455              		.thumb_func
 1456              		.fpu fpv5-d16
 1458              	HAL_DBGMCU_EnableDBGSleepMode:
 1459              	.LFB179:
 856:Drivers/STM32H7xx_HAL_Driver/Src/stm32h7xx_hal.c **** 
 857:Drivers/STM32H7xx_HAL_Driver/Src/stm32h7xx_hal.c **** #if defined(SYSCFG_CCCR_NCC_MMC)
 858:Drivers/STM32H7xx_HAL_Driver/Src/stm32h7xx_hal.c **** /**
 859:Drivers/STM32H7xx_HAL_Driver/Src/stm32h7xx_hal.c ****   * @brief  Code selection for the I/O Compensation cell
 860:Drivers/STM32H7xx_HAL_Driver/Src/stm32h7xx_hal.c ****   * @param  SYSCFG_PMOSCode: VDDMMC PMOS compensation code
 861:Drivers/STM32H7xx_HAL_Driver/Src/stm32h7xx_hal.c ****   *         This code is applied to the I/O compensation cell when the CS bit of the
 862:Drivers/STM32H7xx_HAL_Driver/Src/stm32h7xx_hal.c ****   *          SYSCFG_CMPCR is set
 863:Drivers/STM32H7xx_HAL_Driver/Src/stm32h7xx_hal.c ****   * @param  SYSCFG_NMOSCode: VDDMMC NMOS compensation code
 864:Drivers/STM32H7xx_HAL_Driver/Src/stm32h7xx_hal.c ****   *         This code is applied to the I/O compensation cell when the CS bit of the
 865:Drivers/STM32H7xx_HAL_Driver/Src/stm32h7xx_hal.c ****   *          SYSCFG_CMPCR is set
 866:Drivers/STM32H7xx_HAL_Driver/Src/stm32h7xx_hal.c ****   * @retval None
 867:Drivers/STM32H7xx_HAL_Driver/Src/stm32h7xx_hal.c ****   */
 868:Drivers/STM32H7xx_HAL_Driver/Src/stm32h7xx_hal.c **** void HAL_SYSCFG_VDDMMC_CompensationCodeConfig(uint32_t SYSCFG_PMOSCode, uint32_t SYSCFG_NMOSCode )
 869:Drivers/STM32H7xx_HAL_Driver/Src/stm32h7xx_hal.c **** {
 870:Drivers/STM32H7xx_HAL_Driver/Src/stm32h7xx_hal.c ****   /* Check the parameter */
 871:Drivers/STM32H7xx_HAL_Driver/Src/stm32h7xx_hal.c ****   assert_param(IS_SYSCFG_CODE_CONFIG(SYSCFG_PMOSCode));
 872:Drivers/STM32H7xx_HAL_Driver/Src/stm32h7xx_hal.c ****   assert_param(IS_SYSCFG_CODE_CONFIG(SYSCFG_NMOSCode));
 873:Drivers/STM32H7xx_HAL_Driver/Src/stm32h7xx_hal.c ****   MODIFY_REG(SYSCFG->CCCR, (SYSCFG_CCCR_NCC_MMC | SYSCFG_CCCR_PCC_MMC), (((uint32_t)(SYSCFG_PMOSCod
 874:Drivers/STM32H7xx_HAL_Driver/Src/stm32h7xx_hal.c **** }
 875:Drivers/STM32H7xx_HAL_Driver/Src/stm32h7xx_hal.c **** #endif /* SYSCFG_CCCR_NCC_MMC */
 876:Drivers/STM32H7xx_HAL_Driver/Src/stm32h7xx_hal.c **** 
 877:Drivers/STM32H7xx_HAL_Driver/Src/stm32h7xx_hal.c **** #if defined(SYSCFG_ADC2ALT_ADC2_ROUT0)
 878:Drivers/STM32H7xx_HAL_Driver/Src/stm32h7xx_hal.c **** /** @brief  SYSCFG ADC2 internal input alternate connection macros
 879:Drivers/STM32H7xx_HAL_Driver/Src/stm32h7xx_hal.c ****   * @param Adc2AltRout0 This parameter can be a value of :
 880:Drivers/STM32H7xx_HAL_Driver/Src/stm32h7xx_hal.c ****   *     @arg @ref SYSCFG_ADC2_ROUT0_DAC1_1   DAC1_out1 connected to ADC2 VINP[16]
 881:Drivers/STM32H7xx_HAL_Driver/Src/stm32h7xx_hal.c ****   *     @arg @ref SYSCFG_ADC2_ROUT0_VBAT4    VBAT/4 connected to ADC2 VINP[16]
 882:Drivers/STM32H7xx_HAL_Driver/Src/stm32h7xx_hal.c ****   */
 883:Drivers/STM32H7xx_HAL_Driver/Src/stm32h7xx_hal.c **** void HAL_SYSCFG_ADC2ALT_Rout0Config(uint32_t Adc2AltRout0)
 884:Drivers/STM32H7xx_HAL_Driver/Src/stm32h7xx_hal.c **** {
 885:Drivers/STM32H7xx_HAL_Driver/Src/stm32h7xx_hal.c ****   /* Check the parameters */
 886:Drivers/STM32H7xx_HAL_Driver/Src/stm32h7xx_hal.c ****   assert_param(IS_SYSCFG_ADC2ALT_ROUT0(Adc2AltRout0));
 887:Drivers/STM32H7xx_HAL_Driver/Src/stm32h7xx_hal.c **** 
 888:Drivers/STM32H7xx_HAL_Driver/Src/stm32h7xx_hal.c ****   MODIFY_REG(SYSCFG->ADC2ALT, SYSCFG_ADC2ALT_ADC2_ROUT0, Adc2AltRout0);
 889:Drivers/STM32H7xx_HAL_Driver/Src/stm32h7xx_hal.c **** }
ARM GAS  /tmp/ccbNDzm8.s 			page 43


 890:Drivers/STM32H7xx_HAL_Driver/Src/stm32h7xx_hal.c **** /**
 891:Drivers/STM32H7xx_HAL_Driver/Src/stm32h7xx_hal.c ****   * @}
 892:Drivers/STM32H7xx_HAL_Driver/Src/stm32h7xx_hal.c ****   */
 893:Drivers/STM32H7xx_HAL_Driver/Src/stm32h7xx_hal.c **** #endif /*SYSCFG_ADC2ALT_ADC2_ROUT0*/
 894:Drivers/STM32H7xx_HAL_Driver/Src/stm32h7xx_hal.c **** 
 895:Drivers/STM32H7xx_HAL_Driver/Src/stm32h7xx_hal.c **** #if defined(SYSCFG_ADC2ALT_ADC2_ROUT1)
 896:Drivers/STM32H7xx_HAL_Driver/Src/stm32h7xx_hal.c **** /** @brief  SYSCFG ADC2 internal input alternate connection macros
 897:Drivers/STM32H7xx_HAL_Driver/Src/stm32h7xx_hal.c ****   * @param Adc2AltRout1  This parameter can be a value of :
 898:Drivers/STM32H7xx_HAL_Driver/Src/stm32h7xx_hal.c ****   *     @arg @ref SYSCFG_ADC2_ROUT1_DAC1_2   DAC1_out2 connected to ADC2 VINP[17]
 899:Drivers/STM32H7xx_HAL_Driver/Src/stm32h7xx_hal.c ****   *     @arg @ref SYSCFG_ADC2_ROUT1_VREFINT  VREFINT connected to ADC2 VINP[17]
 900:Drivers/STM32H7xx_HAL_Driver/Src/stm32h7xx_hal.c ****   */
 901:Drivers/STM32H7xx_HAL_Driver/Src/stm32h7xx_hal.c **** void HAL_SYSCFG_ADC2ALT_Rout1Config(uint32_t Adc2AltRout1)
 902:Drivers/STM32H7xx_HAL_Driver/Src/stm32h7xx_hal.c **** {
 903:Drivers/STM32H7xx_HAL_Driver/Src/stm32h7xx_hal.c ****   /* Check the parameters */
 904:Drivers/STM32H7xx_HAL_Driver/Src/stm32h7xx_hal.c ****   assert_param(IS_SYSCFG_ADC2ALT_ROUT1(Adc2AltRout1));
 905:Drivers/STM32H7xx_HAL_Driver/Src/stm32h7xx_hal.c **** 
 906:Drivers/STM32H7xx_HAL_Driver/Src/stm32h7xx_hal.c ****   MODIFY_REG(SYSCFG->ADC2ALT, SYSCFG_ADC2ALT_ADC2_ROUT1, Adc2AltRout1);
 907:Drivers/STM32H7xx_HAL_Driver/Src/stm32h7xx_hal.c **** }
 908:Drivers/STM32H7xx_HAL_Driver/Src/stm32h7xx_hal.c **** /**
 909:Drivers/STM32H7xx_HAL_Driver/Src/stm32h7xx_hal.c ****   * @}
 910:Drivers/STM32H7xx_HAL_Driver/Src/stm32h7xx_hal.c ****   */
 911:Drivers/STM32H7xx_HAL_Driver/Src/stm32h7xx_hal.c **** #endif /*SYSCFG_ADC2ALT_ADC2_ROUT1*/
 912:Drivers/STM32H7xx_HAL_Driver/Src/stm32h7xx_hal.c **** 
 913:Drivers/STM32H7xx_HAL_Driver/Src/stm32h7xx_hal.c **** /**
 914:Drivers/STM32H7xx_HAL_Driver/Src/stm32h7xx_hal.c ****   * @brief  Enable the Debug Module during Domain1/CDomain SLEEP mode
 915:Drivers/STM32H7xx_HAL_Driver/Src/stm32h7xx_hal.c ****   * @retval None
 916:Drivers/STM32H7xx_HAL_Driver/Src/stm32h7xx_hal.c ****   */
 917:Drivers/STM32H7xx_HAL_Driver/Src/stm32h7xx_hal.c **** void HAL_DBGMCU_EnableDBGSleepMode(void)
 918:Drivers/STM32H7xx_HAL_Driver/Src/stm32h7xx_hal.c **** {
 1460              		.loc 1 918 1 is_stmt 1 view -0
 1461              		.cfi_startproc
 1462              		@ args = 0, pretend = 0, frame = 0
 1463              		@ frame_needed = 0, uses_anonymous_args = 0
 1464              		@ link register save eliminated.
 919:Drivers/STM32H7xx_HAL_Driver/Src/stm32h7xx_hal.c ****   SET_BIT(DBGMCU->CR, DBGMCU_CR_DBG_SLEEPD1);
 1465              		.loc 1 919 3 view .LVU291
 1466 0000 024A     		ldr	r2, .L139
 1467 0002 5368     		ldr	r3, [r2, #4]
 1468 0004 43F00103 		orr	r3, r3, #1
 1469 0008 5360     		str	r3, [r2, #4]
 920:Drivers/STM32H7xx_HAL_Driver/Src/stm32h7xx_hal.c **** }
 1470              		.loc 1 920 1 is_stmt 0 view .LVU292
 1471 000a 7047     		bx	lr
 1472              	.L140:
 1473              		.align	2
 1474              	.L139:
 1475 000c 0010005C 		.word	1543507968
 1476              		.cfi_endproc
 1477              	.LFE179:
 1479              		.section	.text.HAL_DBGMCU_DisableDBGSleepMode,"ax",%progbits
 1480              		.align	1
 1481              		.p2align 2,,3
 1482              		.global	HAL_DBGMCU_DisableDBGSleepMode
 1483              		.syntax unified
 1484              		.thumb
 1485              		.thumb_func
 1486              		.fpu fpv5-d16
ARM GAS  /tmp/ccbNDzm8.s 			page 44


 1488              	HAL_DBGMCU_DisableDBGSleepMode:
 1489              	.LFB180:
 921:Drivers/STM32H7xx_HAL_Driver/Src/stm32h7xx_hal.c **** 
 922:Drivers/STM32H7xx_HAL_Driver/Src/stm32h7xx_hal.c **** /**
 923:Drivers/STM32H7xx_HAL_Driver/Src/stm32h7xx_hal.c ****   * @brief  Disable the Debug Module during Domain1/CDomain SLEEP mode
 924:Drivers/STM32H7xx_HAL_Driver/Src/stm32h7xx_hal.c ****   * @retval None
 925:Drivers/STM32H7xx_HAL_Driver/Src/stm32h7xx_hal.c ****   */
 926:Drivers/STM32H7xx_HAL_Driver/Src/stm32h7xx_hal.c **** void HAL_DBGMCU_DisableDBGSleepMode(void)
 927:Drivers/STM32H7xx_HAL_Driver/Src/stm32h7xx_hal.c **** {
 1490              		.loc 1 927 1 is_stmt 1 view -0
 1491              		.cfi_startproc
 1492              		@ args = 0, pretend = 0, frame = 0
 1493              		@ frame_needed = 0, uses_anonymous_args = 0
 1494              		@ link register save eliminated.
 928:Drivers/STM32H7xx_HAL_Driver/Src/stm32h7xx_hal.c ****   CLEAR_BIT(DBGMCU->CR, DBGMCU_CR_DBG_SLEEPD1);
 1495              		.loc 1 928 3 view .LVU294
 1496 0000 024A     		ldr	r2, .L142
 1497 0002 5368     		ldr	r3, [r2, #4]
 1498 0004 23F00103 		bic	r3, r3, #1
 1499 0008 5360     		str	r3, [r2, #4]
 929:Drivers/STM32H7xx_HAL_Driver/Src/stm32h7xx_hal.c **** }
 1500              		.loc 1 929 1 is_stmt 0 view .LVU295
 1501 000a 7047     		bx	lr
 1502              	.L143:
 1503              		.align	2
 1504              	.L142:
 1505 000c 0010005C 		.word	1543507968
 1506              		.cfi_endproc
 1507              	.LFE180:
 1509              		.section	.text.HAL_DBGMCU_EnableDBGStopMode,"ax",%progbits
 1510              		.align	1
 1511              		.p2align 2,,3
 1512              		.global	HAL_DBGMCU_EnableDBGStopMode
 1513              		.syntax unified
 1514              		.thumb
 1515              		.thumb_func
 1516              		.fpu fpv5-d16
 1518              	HAL_DBGMCU_EnableDBGStopMode:
 1519              	.LFB181:
 930:Drivers/STM32H7xx_HAL_Driver/Src/stm32h7xx_hal.c **** 
 931:Drivers/STM32H7xx_HAL_Driver/Src/stm32h7xx_hal.c **** 
 932:Drivers/STM32H7xx_HAL_Driver/Src/stm32h7xx_hal.c **** /**
 933:Drivers/STM32H7xx_HAL_Driver/Src/stm32h7xx_hal.c ****   * @brief  Enable the Debug Module during Domain1/CDomain STOP mode
 934:Drivers/STM32H7xx_HAL_Driver/Src/stm32h7xx_hal.c ****   * @retval None
 935:Drivers/STM32H7xx_HAL_Driver/Src/stm32h7xx_hal.c ****   */
 936:Drivers/STM32H7xx_HAL_Driver/Src/stm32h7xx_hal.c **** void HAL_DBGMCU_EnableDBGStopMode(void)
 937:Drivers/STM32H7xx_HAL_Driver/Src/stm32h7xx_hal.c **** {
 1520              		.loc 1 937 1 is_stmt 1 view -0
 1521              		.cfi_startproc
 1522              		@ args = 0, pretend = 0, frame = 0
 1523              		@ frame_needed = 0, uses_anonymous_args = 0
 1524              		@ link register save eliminated.
 938:Drivers/STM32H7xx_HAL_Driver/Src/stm32h7xx_hal.c ****   SET_BIT(DBGMCU->CR, DBGMCU_CR_DBG_STOPD1);
 1525              		.loc 1 938 3 view .LVU297
 1526 0000 024A     		ldr	r2, .L145
 1527 0002 5368     		ldr	r3, [r2, #4]
 1528 0004 43F00203 		orr	r3, r3, #2
ARM GAS  /tmp/ccbNDzm8.s 			page 45


 1529 0008 5360     		str	r3, [r2, #4]
 939:Drivers/STM32H7xx_HAL_Driver/Src/stm32h7xx_hal.c **** }
 1530              		.loc 1 939 1 is_stmt 0 view .LVU298
 1531 000a 7047     		bx	lr
 1532              	.L146:
 1533              		.align	2
 1534              	.L145:
 1535 000c 0010005C 		.word	1543507968
 1536              		.cfi_endproc
 1537              	.LFE181:
 1539              		.section	.text.HAL_DBGMCU_DisableDBGStopMode,"ax",%progbits
 1540              		.align	1
 1541              		.p2align 2,,3
 1542              		.global	HAL_DBGMCU_DisableDBGStopMode
 1543              		.syntax unified
 1544              		.thumb
 1545              		.thumb_func
 1546              		.fpu fpv5-d16
 1548              	HAL_DBGMCU_DisableDBGStopMode:
 1549              	.LFB182:
 940:Drivers/STM32H7xx_HAL_Driver/Src/stm32h7xx_hal.c **** 
 941:Drivers/STM32H7xx_HAL_Driver/Src/stm32h7xx_hal.c **** /**
 942:Drivers/STM32H7xx_HAL_Driver/Src/stm32h7xx_hal.c ****   * @brief  Disable the Debug Module during Domain1/CDomain STOP mode
 943:Drivers/STM32H7xx_HAL_Driver/Src/stm32h7xx_hal.c ****   * @retval None
 944:Drivers/STM32H7xx_HAL_Driver/Src/stm32h7xx_hal.c ****   */
 945:Drivers/STM32H7xx_HAL_Driver/Src/stm32h7xx_hal.c **** void HAL_DBGMCU_DisableDBGStopMode(void)
 946:Drivers/STM32H7xx_HAL_Driver/Src/stm32h7xx_hal.c **** {
 1550              		.loc 1 946 1 is_stmt 1 view -0
 1551              		.cfi_startproc
 1552              		@ args = 0, pretend = 0, frame = 0
 1553              		@ frame_needed = 0, uses_anonymous_args = 0
 1554              		@ link register save eliminated.
 947:Drivers/STM32H7xx_HAL_Driver/Src/stm32h7xx_hal.c ****   CLEAR_BIT(DBGMCU->CR, DBGMCU_CR_DBG_STOPD1);
 1555              		.loc 1 947 3 view .LVU300
 1556 0000 024A     		ldr	r2, .L148
 1557 0002 5368     		ldr	r3, [r2, #4]
 1558 0004 23F00203 		bic	r3, r3, #2
 1559 0008 5360     		str	r3, [r2, #4]
 948:Drivers/STM32H7xx_HAL_Driver/Src/stm32h7xx_hal.c **** }
 1560              		.loc 1 948 1 is_stmt 0 view .LVU301
 1561 000a 7047     		bx	lr
 1562              	.L149:
 1563              		.align	2
 1564              	.L148:
 1565 000c 0010005C 		.word	1543507968
 1566              		.cfi_endproc
 1567              	.LFE182:
 1569              		.section	.text.HAL_DBGMCU_EnableDBGStandbyMode,"ax",%progbits
 1570              		.align	1
 1571              		.p2align 2,,3
 1572              		.global	HAL_DBGMCU_EnableDBGStandbyMode
 1573              		.syntax unified
 1574              		.thumb
 1575              		.thumb_func
 1576              		.fpu fpv5-d16
 1578              	HAL_DBGMCU_EnableDBGStandbyMode:
 1579              	.LFB183:
ARM GAS  /tmp/ccbNDzm8.s 			page 46


 949:Drivers/STM32H7xx_HAL_Driver/Src/stm32h7xx_hal.c **** 
 950:Drivers/STM32H7xx_HAL_Driver/Src/stm32h7xx_hal.c **** /**
 951:Drivers/STM32H7xx_HAL_Driver/Src/stm32h7xx_hal.c ****   * @brief  Enable the Debug Module during Domain1/CDomain STANDBY mode
 952:Drivers/STM32H7xx_HAL_Driver/Src/stm32h7xx_hal.c ****   * @retval None
 953:Drivers/STM32H7xx_HAL_Driver/Src/stm32h7xx_hal.c ****   */
 954:Drivers/STM32H7xx_HAL_Driver/Src/stm32h7xx_hal.c **** void HAL_DBGMCU_EnableDBGStandbyMode(void)
 955:Drivers/STM32H7xx_HAL_Driver/Src/stm32h7xx_hal.c **** {
 1580              		.loc 1 955 1 is_stmt 1 view -0
 1581              		.cfi_startproc
 1582              		@ args = 0, pretend = 0, frame = 0
 1583              		@ frame_needed = 0, uses_anonymous_args = 0
 1584              		@ link register save eliminated.
 956:Drivers/STM32H7xx_HAL_Driver/Src/stm32h7xx_hal.c ****   SET_BIT(DBGMCU->CR, DBGMCU_CR_DBG_STANDBYD1);
 1585              		.loc 1 956 3 view .LVU303
 1586 0000 024A     		ldr	r2, .L151
 1587 0002 5368     		ldr	r3, [r2, #4]
 1588 0004 43F00403 		orr	r3, r3, #4
 1589 0008 5360     		str	r3, [r2, #4]
 957:Drivers/STM32H7xx_HAL_Driver/Src/stm32h7xx_hal.c **** }
 1590              		.loc 1 957 1 is_stmt 0 view .LVU304
 1591 000a 7047     		bx	lr
 1592              	.L152:
 1593              		.align	2
 1594              	.L151:
 1595 000c 0010005C 		.word	1543507968
 1596              		.cfi_endproc
 1597              	.LFE183:
 1599              		.section	.text.HAL_DBGMCU_DisableDBGStandbyMode,"ax",%progbits
 1600              		.align	1
 1601              		.p2align 2,,3
 1602              		.global	HAL_DBGMCU_DisableDBGStandbyMode
 1603              		.syntax unified
 1604              		.thumb
 1605              		.thumb_func
 1606              		.fpu fpv5-d16
 1608              	HAL_DBGMCU_DisableDBGStandbyMode:
 1609              	.LFB184:
 958:Drivers/STM32H7xx_HAL_Driver/Src/stm32h7xx_hal.c **** 
 959:Drivers/STM32H7xx_HAL_Driver/Src/stm32h7xx_hal.c **** /**
 960:Drivers/STM32H7xx_HAL_Driver/Src/stm32h7xx_hal.c ****   * @brief  Disable the Debug Module during Domain1/CDomain STANDBY mode
 961:Drivers/STM32H7xx_HAL_Driver/Src/stm32h7xx_hal.c ****   * @retval None
 962:Drivers/STM32H7xx_HAL_Driver/Src/stm32h7xx_hal.c ****   */
 963:Drivers/STM32H7xx_HAL_Driver/Src/stm32h7xx_hal.c **** void HAL_DBGMCU_DisableDBGStandbyMode(void)
 964:Drivers/STM32H7xx_HAL_Driver/Src/stm32h7xx_hal.c **** {
 1610              		.loc 1 964 1 is_stmt 1 view -0
 1611              		.cfi_startproc
 1612              		@ args = 0, pretend = 0, frame = 0
 1613              		@ frame_needed = 0, uses_anonymous_args = 0
 1614              		@ link register save eliminated.
 965:Drivers/STM32H7xx_HAL_Driver/Src/stm32h7xx_hal.c ****   CLEAR_BIT(DBGMCU->CR, DBGMCU_CR_DBG_STANDBYD1);
 1615              		.loc 1 965 3 view .LVU306
 1616 0000 024A     		ldr	r2, .L154
 1617 0002 5368     		ldr	r3, [r2, #4]
 1618 0004 23F00403 		bic	r3, r3, #4
 1619 0008 5360     		str	r3, [r2, #4]
 966:Drivers/STM32H7xx_HAL_Driver/Src/stm32h7xx_hal.c **** }
 1620              		.loc 1 966 1 is_stmt 0 view .LVU307
ARM GAS  /tmp/ccbNDzm8.s 			page 47


 1621 000a 7047     		bx	lr
 1622              	.L155:
 1623              		.align	2
 1624              	.L154:
 1625 000c 0010005C 		.word	1543507968
 1626              		.cfi_endproc
 1627              	.LFE184:
 1629              		.section	.text.HAL_SetFMCMemorySwappingConfig,"ax",%progbits
 1630              		.align	1
 1631              		.p2align 2,,3
 1632              		.global	HAL_SetFMCMemorySwappingConfig
 1633              		.syntax unified
 1634              		.thumb
 1635              		.thumb_func
 1636              		.fpu fpv5-d16
 1638              	HAL_SetFMCMemorySwappingConfig:
 1639              	.LVL55:
 1640              	.LFB185:
 967:Drivers/STM32H7xx_HAL_Driver/Src/stm32h7xx_hal.c **** 
 968:Drivers/STM32H7xx_HAL_Driver/Src/stm32h7xx_hal.c **** #if defined(DUAL_CORE)
 969:Drivers/STM32H7xx_HAL_Driver/Src/stm32h7xx_hal.c **** /**
 970:Drivers/STM32H7xx_HAL_Driver/Src/stm32h7xx_hal.c ****   * @brief  Enable the Debug Module during Domain1 SLEEP mode
 971:Drivers/STM32H7xx_HAL_Driver/Src/stm32h7xx_hal.c ****   * @retval None
 972:Drivers/STM32H7xx_HAL_Driver/Src/stm32h7xx_hal.c ****   */
 973:Drivers/STM32H7xx_HAL_Driver/Src/stm32h7xx_hal.c **** void HAL_EnableDomain2DBGSleepMode(void)
 974:Drivers/STM32H7xx_HAL_Driver/Src/stm32h7xx_hal.c **** {
 975:Drivers/STM32H7xx_HAL_Driver/Src/stm32h7xx_hal.c ****   SET_BIT(DBGMCU->CR, DBGMCU_CR_DBG_SLEEPD2);
 976:Drivers/STM32H7xx_HAL_Driver/Src/stm32h7xx_hal.c **** }
 977:Drivers/STM32H7xx_HAL_Driver/Src/stm32h7xx_hal.c **** 
 978:Drivers/STM32H7xx_HAL_Driver/Src/stm32h7xx_hal.c **** /**
 979:Drivers/STM32H7xx_HAL_Driver/Src/stm32h7xx_hal.c ****   * @brief  Disable the Debug Module during Domain2 SLEEP mode
 980:Drivers/STM32H7xx_HAL_Driver/Src/stm32h7xx_hal.c ****   * @retval None
 981:Drivers/STM32H7xx_HAL_Driver/Src/stm32h7xx_hal.c ****   */
 982:Drivers/STM32H7xx_HAL_Driver/Src/stm32h7xx_hal.c **** void HAL_DisableDomain2DBGSleepMode(void)
 983:Drivers/STM32H7xx_HAL_Driver/Src/stm32h7xx_hal.c **** {
 984:Drivers/STM32H7xx_HAL_Driver/Src/stm32h7xx_hal.c ****   CLEAR_BIT(DBGMCU->CR, DBGMCU_CR_DBG_SLEEPD2);
 985:Drivers/STM32H7xx_HAL_Driver/Src/stm32h7xx_hal.c **** }
 986:Drivers/STM32H7xx_HAL_Driver/Src/stm32h7xx_hal.c **** 
 987:Drivers/STM32H7xx_HAL_Driver/Src/stm32h7xx_hal.c **** /**
 988:Drivers/STM32H7xx_HAL_Driver/Src/stm32h7xx_hal.c ****   * @brief  Enable the Debug Module during Domain2 STOP mode
 989:Drivers/STM32H7xx_HAL_Driver/Src/stm32h7xx_hal.c ****   * @retval None
 990:Drivers/STM32H7xx_HAL_Driver/Src/stm32h7xx_hal.c ****   */
 991:Drivers/STM32H7xx_HAL_Driver/Src/stm32h7xx_hal.c **** void HAL_EnableDomain2DBGStopMode(void)
 992:Drivers/STM32H7xx_HAL_Driver/Src/stm32h7xx_hal.c **** {
 993:Drivers/STM32H7xx_HAL_Driver/Src/stm32h7xx_hal.c ****   SET_BIT(DBGMCU->CR, DBGMCU_CR_DBG_STOPD2);
 994:Drivers/STM32H7xx_HAL_Driver/Src/stm32h7xx_hal.c **** }
 995:Drivers/STM32H7xx_HAL_Driver/Src/stm32h7xx_hal.c **** 
 996:Drivers/STM32H7xx_HAL_Driver/Src/stm32h7xx_hal.c **** /**
 997:Drivers/STM32H7xx_HAL_Driver/Src/stm32h7xx_hal.c ****   * @brief  Disable the Debug Module during Domain2 STOP mode
 998:Drivers/STM32H7xx_HAL_Driver/Src/stm32h7xx_hal.c ****   * @retval None
 999:Drivers/STM32H7xx_HAL_Driver/Src/stm32h7xx_hal.c ****   */
1000:Drivers/STM32H7xx_HAL_Driver/Src/stm32h7xx_hal.c **** void HAL_DisableDomain2DBGStopMode(void)
1001:Drivers/STM32H7xx_HAL_Driver/Src/stm32h7xx_hal.c **** {
1002:Drivers/STM32H7xx_HAL_Driver/Src/stm32h7xx_hal.c ****   CLEAR_BIT(DBGMCU->CR, DBGMCU_CR_DBG_STOPD2);
1003:Drivers/STM32H7xx_HAL_Driver/Src/stm32h7xx_hal.c **** }
1004:Drivers/STM32H7xx_HAL_Driver/Src/stm32h7xx_hal.c **** 
1005:Drivers/STM32H7xx_HAL_Driver/Src/stm32h7xx_hal.c **** /**
ARM GAS  /tmp/ccbNDzm8.s 			page 48


1006:Drivers/STM32H7xx_HAL_Driver/Src/stm32h7xx_hal.c ****   * @brief  Enable the Debug Module during Domain2 STANDBY mode
1007:Drivers/STM32H7xx_HAL_Driver/Src/stm32h7xx_hal.c ****   * @retval None
1008:Drivers/STM32H7xx_HAL_Driver/Src/stm32h7xx_hal.c ****   */
1009:Drivers/STM32H7xx_HAL_Driver/Src/stm32h7xx_hal.c **** void HAL_EnableDomain2DBGStandbyMode(void)
1010:Drivers/STM32H7xx_HAL_Driver/Src/stm32h7xx_hal.c **** {
1011:Drivers/STM32H7xx_HAL_Driver/Src/stm32h7xx_hal.c ****   SET_BIT(DBGMCU->CR, DBGMCU_CR_DBG_STANDBYD2);
1012:Drivers/STM32H7xx_HAL_Driver/Src/stm32h7xx_hal.c **** }
1013:Drivers/STM32H7xx_HAL_Driver/Src/stm32h7xx_hal.c **** 
1014:Drivers/STM32H7xx_HAL_Driver/Src/stm32h7xx_hal.c **** /**
1015:Drivers/STM32H7xx_HAL_Driver/Src/stm32h7xx_hal.c ****   * @brief  Disable the Debug Module during Domain2 STANDBY mode
1016:Drivers/STM32H7xx_HAL_Driver/Src/stm32h7xx_hal.c ****   * @retval None
1017:Drivers/STM32H7xx_HAL_Driver/Src/stm32h7xx_hal.c ****   */
1018:Drivers/STM32H7xx_HAL_Driver/Src/stm32h7xx_hal.c **** void HAL_DisableDomain2DBGStandbyMode(void)
1019:Drivers/STM32H7xx_HAL_Driver/Src/stm32h7xx_hal.c **** {
1020:Drivers/STM32H7xx_HAL_Driver/Src/stm32h7xx_hal.c ****   CLEAR_BIT(DBGMCU->CR, DBGMCU_CR_DBG_STANDBYD2);
1021:Drivers/STM32H7xx_HAL_Driver/Src/stm32h7xx_hal.c **** }
1022:Drivers/STM32H7xx_HAL_Driver/Src/stm32h7xx_hal.c **** #endif /*DUAL_CORE*/
1023:Drivers/STM32H7xx_HAL_Driver/Src/stm32h7xx_hal.c **** 
1024:Drivers/STM32H7xx_HAL_Driver/Src/stm32h7xx_hal.c **** #if defined(DBGMCU_CR_DBG_STOPD3)
1025:Drivers/STM32H7xx_HAL_Driver/Src/stm32h7xx_hal.c **** /**
1026:Drivers/STM32H7xx_HAL_Driver/Src/stm32h7xx_hal.c ****   * @brief  Enable the Debug Module during Domain3/SRDomain STOP mode
1027:Drivers/STM32H7xx_HAL_Driver/Src/stm32h7xx_hal.c ****   * @retval None
1028:Drivers/STM32H7xx_HAL_Driver/Src/stm32h7xx_hal.c ****   */
1029:Drivers/STM32H7xx_HAL_Driver/Src/stm32h7xx_hal.c **** void HAL_EnableDomain3DBGStopMode(void)
1030:Drivers/STM32H7xx_HAL_Driver/Src/stm32h7xx_hal.c **** {
1031:Drivers/STM32H7xx_HAL_Driver/Src/stm32h7xx_hal.c ****   SET_BIT(DBGMCU->CR, DBGMCU_CR_DBG_STOPD3);
1032:Drivers/STM32H7xx_HAL_Driver/Src/stm32h7xx_hal.c **** }
1033:Drivers/STM32H7xx_HAL_Driver/Src/stm32h7xx_hal.c **** 
1034:Drivers/STM32H7xx_HAL_Driver/Src/stm32h7xx_hal.c **** /**
1035:Drivers/STM32H7xx_HAL_Driver/Src/stm32h7xx_hal.c ****   * @brief  Disable the Debug Module during Domain3/SRDomain STOP mode
1036:Drivers/STM32H7xx_HAL_Driver/Src/stm32h7xx_hal.c ****   * @retval None
1037:Drivers/STM32H7xx_HAL_Driver/Src/stm32h7xx_hal.c ****   */
1038:Drivers/STM32H7xx_HAL_Driver/Src/stm32h7xx_hal.c **** void HAL_DisableDomain3DBGStopMode(void)
1039:Drivers/STM32H7xx_HAL_Driver/Src/stm32h7xx_hal.c **** {
1040:Drivers/STM32H7xx_HAL_Driver/Src/stm32h7xx_hal.c ****   CLEAR_BIT(DBGMCU->CR, DBGMCU_CR_DBG_STOPD3);
1041:Drivers/STM32H7xx_HAL_Driver/Src/stm32h7xx_hal.c **** }
1042:Drivers/STM32H7xx_HAL_Driver/Src/stm32h7xx_hal.c **** #endif /*DBGMCU_CR_DBG_STOPD3*/
1043:Drivers/STM32H7xx_HAL_Driver/Src/stm32h7xx_hal.c **** 
1044:Drivers/STM32H7xx_HAL_Driver/Src/stm32h7xx_hal.c **** #if defined(DBGMCU_CR_DBG_STANDBYD3)
1045:Drivers/STM32H7xx_HAL_Driver/Src/stm32h7xx_hal.c **** /**
1046:Drivers/STM32H7xx_HAL_Driver/Src/stm32h7xx_hal.c ****   * @brief  Enable the Debug Module during Domain3/SRDomain STANDBY mode
1047:Drivers/STM32H7xx_HAL_Driver/Src/stm32h7xx_hal.c ****   * @retval None
1048:Drivers/STM32H7xx_HAL_Driver/Src/stm32h7xx_hal.c ****   */
1049:Drivers/STM32H7xx_HAL_Driver/Src/stm32h7xx_hal.c **** void HAL_EnableDomain3DBGStandbyMode(void)
1050:Drivers/STM32H7xx_HAL_Driver/Src/stm32h7xx_hal.c **** {
1051:Drivers/STM32H7xx_HAL_Driver/Src/stm32h7xx_hal.c ****   SET_BIT(DBGMCU->CR, DBGMCU_CR_DBG_STANDBYD3);
1052:Drivers/STM32H7xx_HAL_Driver/Src/stm32h7xx_hal.c **** }
1053:Drivers/STM32H7xx_HAL_Driver/Src/stm32h7xx_hal.c **** 
1054:Drivers/STM32H7xx_HAL_Driver/Src/stm32h7xx_hal.c **** /**
1055:Drivers/STM32H7xx_HAL_Driver/Src/stm32h7xx_hal.c ****   * @brief  Disable the Debug Module during Domain3/SRDomain STANDBY mode
1056:Drivers/STM32H7xx_HAL_Driver/Src/stm32h7xx_hal.c ****   * @retval None
1057:Drivers/STM32H7xx_HAL_Driver/Src/stm32h7xx_hal.c ****   */
1058:Drivers/STM32H7xx_HAL_Driver/Src/stm32h7xx_hal.c **** void HAL_DisableDomain3DBGStandbyMode(void)
1059:Drivers/STM32H7xx_HAL_Driver/Src/stm32h7xx_hal.c **** {
1060:Drivers/STM32H7xx_HAL_Driver/Src/stm32h7xx_hal.c ****   CLEAR_BIT(DBGMCU->CR, DBGMCU_CR_DBG_STANDBYD3);
1061:Drivers/STM32H7xx_HAL_Driver/Src/stm32h7xx_hal.c **** }
1062:Drivers/STM32H7xx_HAL_Driver/Src/stm32h7xx_hal.c **** #endif /*DBGMCU_CR_DBG_STANDBYD3*/
ARM GAS  /tmp/ccbNDzm8.s 			page 49


1063:Drivers/STM32H7xx_HAL_Driver/Src/stm32h7xx_hal.c **** 
1064:Drivers/STM32H7xx_HAL_Driver/Src/stm32h7xx_hal.c **** /**
1065:Drivers/STM32H7xx_HAL_Driver/Src/stm32h7xx_hal.c ****   * @brief  Set the FMC Memory Mapping Swapping config.
1066:Drivers/STM32H7xx_HAL_Driver/Src/stm32h7xx_hal.c ****   * @param  BankMapConfig: Defines the FMC Bank mapping configuration. This parameter can be
1067:Drivers/STM32H7xx_HAL_Driver/Src/stm32h7xx_hal.c ****             FMC_SWAPBMAP_DISABLE, FMC_SWAPBMAP_SDRAM_SRAM, FMC_SWAPBMAP_SDRAMB2
1068:Drivers/STM32H7xx_HAL_Driver/Src/stm32h7xx_hal.c ****   * @retval HAL state
1069:Drivers/STM32H7xx_HAL_Driver/Src/stm32h7xx_hal.c ****   */
1070:Drivers/STM32H7xx_HAL_Driver/Src/stm32h7xx_hal.c **** void HAL_SetFMCMemorySwappingConfig(uint32_t BankMapConfig)
1071:Drivers/STM32H7xx_HAL_Driver/Src/stm32h7xx_hal.c **** {
 1641              		.loc 1 1071 1 is_stmt 1 view -0
 1642              		.cfi_startproc
 1643              		@ args = 0, pretend = 0, frame = 0
 1644              		@ frame_needed = 0, uses_anonymous_args = 0
 1645              		@ link register save eliminated.
1072:Drivers/STM32H7xx_HAL_Driver/Src/stm32h7xx_hal.c ****   /* Check the parameter */
1073:Drivers/STM32H7xx_HAL_Driver/Src/stm32h7xx_hal.c ****   assert_param(IS_FMC_SWAPBMAP_MODE(BankMapConfig));
 1646              		.loc 1 1073 3 view .LVU309
1074:Drivers/STM32H7xx_HAL_Driver/Src/stm32h7xx_hal.c ****   MODIFY_REG(FMC_Bank1_R->BTCR[0], FMC_BCR1_BMAP, BankMapConfig);
 1647              		.loc 1 1074 3 view .LVU310
 1648 0000 034A     		ldr	r2, .L157
 1649 0002 1368     		ldr	r3, [r2]
 1650 0004 23F04073 		bic	r3, r3, #50331648
 1651 0008 1843     		orrs	r0, r0, r3
 1652              	.LVL56:
 1653              		.loc 1 1074 3 is_stmt 0 view .LVU311
 1654 000a 1060     		str	r0, [r2]
1075:Drivers/STM32H7xx_HAL_Driver/Src/stm32h7xx_hal.c **** }
 1655              		.loc 1 1075 1 view .LVU312
 1656 000c 7047     		bx	lr
 1657              	.L158:
 1658 000e 00BF     		.align	2
 1659              	.L157:
 1660 0010 00400052 		.word	1375748096
 1661              		.cfi_endproc
 1662              	.LFE185:
 1664              		.section	.text.HAL_GetFMCMemorySwappingConfig,"ax",%progbits
 1665              		.align	1
 1666              		.p2align 2,,3
 1667              		.global	HAL_GetFMCMemorySwappingConfig
 1668              		.syntax unified
 1669              		.thumb
 1670              		.thumb_func
 1671              		.fpu fpv5-d16
 1673              	HAL_GetFMCMemorySwappingConfig:
 1674              	.LFB186:
1076:Drivers/STM32H7xx_HAL_Driver/Src/stm32h7xx_hal.c **** 
1077:Drivers/STM32H7xx_HAL_Driver/Src/stm32h7xx_hal.c **** /**
1078:Drivers/STM32H7xx_HAL_Driver/Src/stm32h7xx_hal.c ****   * @brief  Get FMC Bank mapping mode.
1079:Drivers/STM32H7xx_HAL_Driver/Src/stm32h7xx_hal.c ****   * @retval The FMC Bank mapping mode. This parameter can be
1080:Drivers/STM32H7xx_HAL_Driver/Src/stm32h7xx_hal.c ****             FMC_SWAPBMAP_DISABLE, FMC_SWAPBMAP_SDRAM_SRAM, FMC_SWAPBMAP_SDRAMB2
1081:Drivers/STM32H7xx_HAL_Driver/Src/stm32h7xx_hal.c **** */
1082:Drivers/STM32H7xx_HAL_Driver/Src/stm32h7xx_hal.c **** uint32_t HAL_GetFMCMemorySwappingConfig(void)
1083:Drivers/STM32H7xx_HAL_Driver/Src/stm32h7xx_hal.c **** {
 1675              		.loc 1 1083 1 is_stmt 1 view -0
 1676              		.cfi_startproc
 1677              		@ args = 0, pretend = 0, frame = 0
 1678              		@ frame_needed = 0, uses_anonymous_args = 0
ARM GAS  /tmp/ccbNDzm8.s 			page 50


 1679              		@ link register save eliminated.
1084:Drivers/STM32H7xx_HAL_Driver/Src/stm32h7xx_hal.c ****   return READ_BIT(FMC_Bank1_R->BTCR[0], FMC_BCR1_BMAP);
 1680              		.loc 1 1084 3 view .LVU314
 1681              		.loc 1 1084 10 is_stmt 0 view .LVU315
 1682 0000 024B     		ldr	r3, .L160
 1683 0002 1868     		ldr	r0, [r3]
1085:Drivers/STM32H7xx_HAL_Driver/Src/stm32h7xx_hal.c **** }
 1684              		.loc 1 1085 1 view .LVU316
 1685 0004 00F04070 		and	r0, r0, #50331648
 1686 0008 7047     		bx	lr
 1687              	.L161:
 1688 000a 00BF     		.align	2
 1689              	.L160:
 1690 000c 00400052 		.word	1375748096
 1691              		.cfi_endproc
 1692              	.LFE186:
 1694              		.section	.text.HAL_EXTI_EdgeConfig,"ax",%progbits
 1695              		.align	1
 1696              		.p2align 2,,3
 1697              		.global	HAL_EXTI_EdgeConfig
 1698              		.syntax unified
 1699              		.thumb
 1700              		.thumb_func
 1701              		.fpu fpv5-d16
 1703              	HAL_EXTI_EdgeConfig:
 1704              	.LVL57:
 1705              	.LFB187:
1086:Drivers/STM32H7xx_HAL_Driver/Src/stm32h7xx_hal.c **** 
1087:Drivers/STM32H7xx_HAL_Driver/Src/stm32h7xx_hal.c **** /**
1088:Drivers/STM32H7xx_HAL_Driver/Src/stm32h7xx_hal.c ****   * @brief  Configure the EXTI input event line edge
1089:Drivers/STM32H7xx_HAL_Driver/Src/stm32h7xx_hal.c ****   * @note    No edge configuration for direct lines but for configurable lines:(EXTI_LINE0..EXTI_LI
1090:Drivers/STM32H7xx_HAL_Driver/Src/stm32h7xx_hal.c ****   *          EXTI_LINE49,EXTI_LINE51,EXTI_LINE82,EXTI_LINE84,EXTI_LINE85 and EXTI_LINE86.
1091:Drivers/STM32H7xx_HAL_Driver/Src/stm32h7xx_hal.c ****   * @param   EXTI_Line: Specifies the EXTI LINE, it can be one of the following values,
1092:Drivers/STM32H7xx_HAL_Driver/Src/stm32h7xx_hal.c ****   *         (EXTI_LINE0....EXTI_LINE87)excluding :line45, line81,line83 which are reserved
1093:Drivers/STM32H7xx_HAL_Driver/Src/stm32h7xx_hal.c ****   * @param   EXTI_Edge: Specifies  EXTI line Edge used.
1094:Drivers/STM32H7xx_HAL_Driver/Src/stm32h7xx_hal.c ****   *          This parameter can be one of the following values :
1095:Drivers/STM32H7xx_HAL_Driver/Src/stm32h7xx_hal.c ****   *   @arg EXTI_RISING_EDGE : Configurable line, with Rising edge trigger detection
1096:Drivers/STM32H7xx_HAL_Driver/Src/stm32h7xx_hal.c ****   *   @arg EXTI_FALLING_EDGE: Configurable line, with Falling edge trigger detection
1097:Drivers/STM32H7xx_HAL_Driver/Src/stm32h7xx_hal.c ****   * @retval None
1098:Drivers/STM32H7xx_HAL_Driver/Src/stm32h7xx_hal.c ****   */
1099:Drivers/STM32H7xx_HAL_Driver/Src/stm32h7xx_hal.c **** void HAL_EXTI_EdgeConfig(uint32_t EXTI_Line , uint32_t EXTI_Edge )
1100:Drivers/STM32H7xx_HAL_Driver/Src/stm32h7xx_hal.c **** {
 1706              		.loc 1 1100 1 is_stmt 1 view -0
 1707              		.cfi_startproc
 1708              		@ args = 0, pretend = 0, frame = 0
 1709              		@ frame_needed = 0, uses_anonymous_args = 0
 1710              		@ link register save eliminated.
1101:Drivers/STM32H7xx_HAL_Driver/Src/stm32h7xx_hal.c ****   /* Check the parameter */
1102:Drivers/STM32H7xx_HAL_Driver/Src/stm32h7xx_hal.c ****   assert_param(IS_HAL_EXTI_CONFIG_LINE(EXTI_Line));
 1711              		.loc 1 1102 3 view .LVU318
1103:Drivers/STM32H7xx_HAL_Driver/Src/stm32h7xx_hal.c ****   assert_param(IS_EXTI_EDGE_LINE(EXTI_Edge));
 1712              		.loc 1 1103 3 view .LVU319
1104:Drivers/STM32H7xx_HAL_Driver/Src/stm32h7xx_hal.c **** 
1105:Drivers/STM32H7xx_HAL_Driver/Src/stm32h7xx_hal.c ****   /* Clear Rising Falling edge configuration */
1106:Drivers/STM32H7xx_HAL_Driver/Src/stm32h7xx_hal.c ****   CLEAR_BIT(*(__IO uint32_t *) (((uint32_t) &(EXTI->FTSR1)) + ((EXTI_Line >> 5 ) * 0x20UL)), (uint3
 1713              		.loc 1 1106 3 view .LVU320
 1714 0000 20F01F02 		bic	r2, r0, #31
ARM GAS  /tmp/ccbNDzm8.s 			page 51


 1715 0004 00F01F03 		and	r3, r0, #31
 1716 0008 0120     		movs	r0, #1
 1717              	.LVL58:
1100:Drivers/STM32H7xx_HAL_Driver/Src/stm32h7xx_hal.c ****   /* Check the parameter */
 1718              		.loc 1 1100 1 is_stmt 0 view .LVU321
 1719 000a 30B4     		push	{r4, r5}
 1720              	.LCFI6:
 1721              		.cfi_def_cfa_offset 8
 1722              		.cfi_offset 4, -8
 1723              		.cfi_offset 5, -4
 1724              		.loc 1 1106 3 view .LVU322
 1725 000c 0B4C     		ldr	r4, .L172
 1726 000e 9840     		lsls	r0, r0, r3
1107:Drivers/STM32H7xx_HAL_Driver/Src/stm32h7xx_hal.c ****   CLEAR_BIT( *(__IO uint32_t *) (((uint32_t) &(EXTI->RTSR1)) + ((EXTI_Line >> 5 ) * 0x20UL)), (uint
 1727              		.loc 1 1107 3 view .LVU323
 1728 0010 02F1B043 		add	r3, r2, #1476395008
1106:Drivers/STM32H7xx_HAL_Driver/Src/stm32h7xx_hal.c ****   CLEAR_BIT( *(__IO uint32_t *) (((uint32_t) &(EXTI->RTSR1)) + ((EXTI_Line >> 5 ) * 0x20UL)), (uint
 1729              		.loc 1 1106 3 view .LVU324
 1730 0014 1559     		ldr	r5, [r2, r4]
 1731 0016 25EA0005 		bic	r5, r5, r0
 1732 001a 1551     		str	r5, [r2, r4]
 1733              		.loc 1 1107 3 is_stmt 1 view .LVU325
 1734 001c 1D68     		ldr	r5, [r3]
 1735 001e 25EA0005 		bic	r5, r5, r0
 1736 0022 1D60     		str	r5, [r3]
1108:Drivers/STM32H7xx_HAL_Driver/Src/stm32h7xx_hal.c **** 
1109:Drivers/STM32H7xx_HAL_Driver/Src/stm32h7xx_hal.c ****   if( (EXTI_Edge & EXTI_RISING_EDGE) == EXTI_RISING_EDGE)
 1737              		.loc 1 1109 3 view .LVU326
 1738              		.loc 1 1109 5 is_stmt 0 view .LVU327
 1739 0024 CD02     		lsls	r5, r1, #11
 1740 0026 02D5     		bpl	.L163
1110:Drivers/STM32H7xx_HAL_Driver/Src/stm32h7xx_hal.c ****   {
1111:Drivers/STM32H7xx_HAL_Driver/Src/stm32h7xx_hal.c ****    SET_BIT( *(__IO uint32_t *) (((uint32_t) &(EXTI->RTSR1)) + ((EXTI_Line >> 5 ) * 0x20UL)), (uint3
 1741              		.loc 1 1111 4 is_stmt 1 view .LVU328
 1742 0028 1D68     		ldr	r5, [r3]
 1743 002a 0543     		orrs	r5, r5, r0
 1744 002c 1D60     		str	r5, [r3]
 1745              	.L163:
1112:Drivers/STM32H7xx_HAL_Driver/Src/stm32h7xx_hal.c ****   }
1113:Drivers/STM32H7xx_HAL_Driver/Src/stm32h7xx_hal.c ****   if( (EXTI_Edge & EXTI_FALLING_EDGE) == EXTI_FALLING_EDGE)
 1746              		.loc 1 1113 3 view .LVU329
 1747              		.loc 1 1113 5 is_stmt 0 view .LVU330
 1748 002e 8B02     		lsls	r3, r1, #10
 1749 0030 02D5     		bpl	.L162
1114:Drivers/STM32H7xx_HAL_Driver/Src/stm32h7xx_hal.c ****   {
1115:Drivers/STM32H7xx_HAL_Driver/Src/stm32h7xx_hal.c ****    SET_BIT(*(__IO uint32_t *) (((uint32_t) &(EXTI->FTSR1)) + ((EXTI_Line >> 5 ) * 0x20UL)), (uint32
 1750              		.loc 1 1115 4 is_stmt 1 view .LVU331
 1751 0032 1359     		ldr	r3, [r2, r4]
 1752 0034 1843     		orrs	r0, r0, r3
 1753 0036 1051     		str	r0, [r2, r4]
 1754              	.L162:
1116:Drivers/STM32H7xx_HAL_Driver/Src/stm32h7xx_hal.c ****   }
1117:Drivers/STM32H7xx_HAL_Driver/Src/stm32h7xx_hal.c **** }
 1755              		.loc 1 1117 1 is_stmt 0 view .LVU332
 1756 0038 30BC     		pop	{r4, r5}
 1757              	.LCFI7:
 1758              		.cfi_restore 5
ARM GAS  /tmp/ccbNDzm8.s 			page 52


 1759              		.cfi_restore 4
 1760              		.cfi_def_cfa_offset 0
 1761 003a 7047     		bx	lr
 1762              	.L173:
 1763              		.align	2
 1764              	.L172:
 1765 003c 04000058 		.word	1476395012
 1766              		.cfi_endproc
 1767              	.LFE187:
 1769              		.section	.text.HAL_EXTI_GenerateSWInterrupt,"ax",%progbits
 1770              		.align	1
 1771              		.p2align 2,,3
 1772              		.global	HAL_EXTI_GenerateSWInterrupt
 1773              		.syntax unified
 1774              		.thumb
 1775              		.thumb_func
 1776              		.fpu fpv5-d16
 1778              	HAL_EXTI_GenerateSWInterrupt:
 1779              	.LVL59:
 1780              	.LFB188:
1118:Drivers/STM32H7xx_HAL_Driver/Src/stm32h7xx_hal.c **** 
1119:Drivers/STM32H7xx_HAL_Driver/Src/stm32h7xx_hal.c **** /**
1120:Drivers/STM32H7xx_HAL_Driver/Src/stm32h7xx_hal.c ****   * @brief  Generates a Software interrupt on selected EXTI line.
1121:Drivers/STM32H7xx_HAL_Driver/Src/stm32h7xx_hal.c ****   * @param   EXTI_Line: Specifies the EXTI LINE, it can be one of the following values,
1122:Drivers/STM32H7xx_HAL_Driver/Src/stm32h7xx_hal.c ****   *          (EXTI_LINE0..EXTI_LINE21),EXTI_LINE49,EXTI_LINE51,EXTI_LINE82,EXTI_LINE84,EXTI_LINE85 
1123:Drivers/STM32H7xx_HAL_Driver/Src/stm32h7xx_hal.c ****   * @retval None
1124:Drivers/STM32H7xx_HAL_Driver/Src/stm32h7xx_hal.c ****   */
1125:Drivers/STM32H7xx_HAL_Driver/Src/stm32h7xx_hal.c **** void HAL_EXTI_GenerateSWInterrupt(uint32_t EXTI_Line)
1126:Drivers/STM32H7xx_HAL_Driver/Src/stm32h7xx_hal.c **** {
 1781              		.loc 1 1126 1 is_stmt 1 view -0
 1782              		.cfi_startproc
 1783              		@ args = 0, pretend = 0, frame = 0
 1784              		@ frame_needed = 0, uses_anonymous_args = 0
 1785              		@ link register save eliminated.
1127:Drivers/STM32H7xx_HAL_Driver/Src/stm32h7xx_hal.c ****   /* Check the parameters */
1128:Drivers/STM32H7xx_HAL_Driver/Src/stm32h7xx_hal.c ****   assert_param(IS_HAL_EXTI_CONFIG_LINE(EXTI_Line));
 1786              		.loc 1 1128 3 view .LVU334
1129:Drivers/STM32H7xx_HAL_Driver/Src/stm32h7xx_hal.c **** 
1130:Drivers/STM32H7xx_HAL_Driver/Src/stm32h7xx_hal.c ****   SET_BIT(*(__IO uint32_t *) (((uint32_t) &(EXTI->SWIER1)) + ((EXTI_Line >> 5 ) * 0x20UL)), (uint32
 1787              		.loc 1 1130 3 view .LVU335
 1788 0000 20F01F01 		bic	r1, r0, #31
 1789 0004 044A     		ldr	r2, .L175
 1790 0006 0123     		movs	r3, #1
 1791 0008 00F01F00 		and	r0, r0, #31
 1792              	.LVL60:
 1793              		.loc 1 1130 3 is_stmt 0 view .LVU336
 1794 000c 03FA00F0 		lsl	r0, r3, r0
 1795 0010 8B58     		ldr	r3, [r1, r2]
 1796 0012 1843     		orrs	r0, r0, r3
 1797 0014 8850     		str	r0, [r1, r2]
1131:Drivers/STM32H7xx_HAL_Driver/Src/stm32h7xx_hal.c **** }
 1798              		.loc 1 1131 1 view .LVU337
 1799 0016 7047     		bx	lr
 1800              	.L176:
 1801              		.align	2
 1802              	.L175:
 1803 0018 08000058 		.word	1476395016
ARM GAS  /tmp/ccbNDzm8.s 			page 53


 1804              		.cfi_endproc
 1805              	.LFE188:
 1807              		.section	.text.HAL_EXTI_D1_ClearFlag,"ax",%progbits
 1808              		.align	1
 1809              		.p2align 2,,3
 1810              		.global	HAL_EXTI_D1_ClearFlag
 1811              		.syntax unified
 1812              		.thumb
 1813              		.thumb_func
 1814              		.fpu fpv5-d16
 1816              	HAL_EXTI_D1_ClearFlag:
 1817              	.LVL61:
 1818              	.LFB189:
1132:Drivers/STM32H7xx_HAL_Driver/Src/stm32h7xx_hal.c **** 
1133:Drivers/STM32H7xx_HAL_Driver/Src/stm32h7xx_hal.c **** 
1134:Drivers/STM32H7xx_HAL_Driver/Src/stm32h7xx_hal.c **** /**
1135:Drivers/STM32H7xx_HAL_Driver/Src/stm32h7xx_hal.c ****   * @brief  Clears the EXTI's line pending flags for Domain D1
1136:Drivers/STM32H7xx_HAL_Driver/Src/stm32h7xx_hal.c ****   * @param   EXTI_Line: Specifies the EXTI LINE, it can be one of the following values,
1137:Drivers/STM32H7xx_HAL_Driver/Src/stm32h7xx_hal.c ****   *         (EXTI_LINE0....EXTI_LINE87)excluding :line45, line81,line83 which are reserved
1138:Drivers/STM32H7xx_HAL_Driver/Src/stm32h7xx_hal.c ****   * @retval None
1139:Drivers/STM32H7xx_HAL_Driver/Src/stm32h7xx_hal.c ****   */
1140:Drivers/STM32H7xx_HAL_Driver/Src/stm32h7xx_hal.c **** void HAL_EXTI_D1_ClearFlag(uint32_t EXTI_Line)
1141:Drivers/STM32H7xx_HAL_Driver/Src/stm32h7xx_hal.c **** {
 1819              		.loc 1 1141 1 is_stmt 1 view -0
 1820              		.cfi_startproc
 1821              		@ args = 0, pretend = 0, frame = 0
 1822              		@ frame_needed = 0, uses_anonymous_args = 0
 1823              		@ link register save eliminated.
1142:Drivers/STM32H7xx_HAL_Driver/Src/stm32h7xx_hal.c ****   /* Check the parameters */
1143:Drivers/STM32H7xx_HAL_Driver/Src/stm32h7xx_hal.c ****  assert_param(IS_EXTI_D1_LINE(EXTI_Line));
 1824              		.loc 1 1143 2 view .LVU339
1144:Drivers/STM32H7xx_HAL_Driver/Src/stm32h7xx_hal.c ****  WRITE_REG(*(__IO uint32_t *) (((uint32_t) &(EXTI_D1->PR1)) + ((EXTI_Line >> 5 ) * 0x10UL)), (uint3
 1825              		.loc 1 1144 2 view .LVU340
 1826 0000 4309     		lsrs	r3, r0, #5
 1827 0002 0122     		movs	r2, #1
 1828 0004 00F01F00 		and	r0, r0, #31
 1829              	.LVL62:
 1830              		.loc 1 1144 2 is_stmt 0 view .LVU341
 1831 0008 0249     		ldr	r1, .L178
 1832 000a 1B01     		lsls	r3, r3, #4
 1833 000c 02FA00F0 		lsl	r0, r2, r0
 1834 0010 5850     		str	r0, [r3, r1]
1145:Drivers/STM32H7xx_HAL_Driver/Src/stm32h7xx_hal.c **** 
1146:Drivers/STM32H7xx_HAL_Driver/Src/stm32h7xx_hal.c **** }
 1835              		.loc 1 1146 1 view .LVU342
 1836 0012 7047     		bx	lr
 1837              	.L179:
 1838              		.align	2
 1839              	.L178:
 1840 0014 88000058 		.word	1476395144
 1841              		.cfi_endproc
 1842              	.LFE189:
 1844              		.section	.text.HAL_EXTI_D1_EventInputConfig,"ax",%progbits
 1845              		.align	1
 1846              		.p2align 2,,3
 1847              		.global	HAL_EXTI_D1_EventInputConfig
 1848              		.syntax unified
ARM GAS  /tmp/ccbNDzm8.s 			page 54


 1849              		.thumb
 1850              		.thumb_func
 1851              		.fpu fpv5-d16
 1853              	HAL_EXTI_D1_EventInputConfig:
 1854              	.LVL63:
 1855              	.LFB190:
1147:Drivers/STM32H7xx_HAL_Driver/Src/stm32h7xx_hal.c **** 
1148:Drivers/STM32H7xx_HAL_Driver/Src/stm32h7xx_hal.c **** #if defined(DUAL_CORE)
1149:Drivers/STM32H7xx_HAL_Driver/Src/stm32h7xx_hal.c **** /**
1150:Drivers/STM32H7xx_HAL_Driver/Src/stm32h7xx_hal.c ****   * @brief  Clears the EXTI's line pending flags for Domain D2
1151:Drivers/STM32H7xx_HAL_Driver/Src/stm32h7xx_hal.c ****   * @param   EXTI_Line: Specifies the EXTI LINE, it can be one of the following values,
1152:Drivers/STM32H7xx_HAL_Driver/Src/stm32h7xx_hal.c ****   *         (EXTI_LINE0....EXTI_LINE87)excluding :line45, line81,line83 which are reserved
1153:Drivers/STM32H7xx_HAL_Driver/Src/stm32h7xx_hal.c ****   * @retval None
1154:Drivers/STM32H7xx_HAL_Driver/Src/stm32h7xx_hal.c ****   */
1155:Drivers/STM32H7xx_HAL_Driver/Src/stm32h7xx_hal.c **** void HAL_EXTI_D2_ClearFlag(uint32_t EXTI_Line)
1156:Drivers/STM32H7xx_HAL_Driver/Src/stm32h7xx_hal.c **** {
1157:Drivers/STM32H7xx_HAL_Driver/Src/stm32h7xx_hal.c ****   /* Check the parameters */
1158:Drivers/STM32H7xx_HAL_Driver/Src/stm32h7xx_hal.c ****  assert_param(IS_EXTI_D2_LINE(EXTI_Line));
1159:Drivers/STM32H7xx_HAL_Driver/Src/stm32h7xx_hal.c ****  WRITE_REG(*(__IO uint32_t *) (((uint32_t) &(EXTI_D2->PR1)) + ((EXTI_Line >> 5 ) * 0x10UL)), (uint3
1160:Drivers/STM32H7xx_HAL_Driver/Src/stm32h7xx_hal.c **** }
1161:Drivers/STM32H7xx_HAL_Driver/Src/stm32h7xx_hal.c **** 
1162:Drivers/STM32H7xx_HAL_Driver/Src/stm32h7xx_hal.c **** #endif /*DUAL_CORE*/
1163:Drivers/STM32H7xx_HAL_Driver/Src/stm32h7xx_hal.c **** /**
1164:Drivers/STM32H7xx_HAL_Driver/Src/stm32h7xx_hal.c ****   * @brief  Configure the EXTI input event line for Domain D1
1165:Drivers/STM32H7xx_HAL_Driver/Src/stm32h7xx_hal.c ****   * @param   EXTI_Line: Specifies the EXTI LINE, it can be one of the following values,
1166:Drivers/STM32H7xx_HAL_Driver/Src/stm32h7xx_hal.c ****   *         (EXTI_LINE0....EXTI_LINE87)excluding :line45, line81,line83 which are reserved
1167:Drivers/STM32H7xx_HAL_Driver/Src/stm32h7xx_hal.c ****   * @param   EXTI_Mode: Specifies which EXTI line is used as interrupt or an event.
1168:Drivers/STM32H7xx_HAL_Driver/Src/stm32h7xx_hal.c ****   *          This parameter can be one or a combination of the following values :
1169:Drivers/STM32H7xx_HAL_Driver/Src/stm32h7xx_hal.c ****   *   @arg EXTI_MODE_IT :  Interrupt Mode selected
1170:Drivers/STM32H7xx_HAL_Driver/Src/stm32h7xx_hal.c ****   *   @arg EXTI_MODE_EVT : Event Mode selected
1171:Drivers/STM32H7xx_HAL_Driver/Src/stm32h7xx_hal.c ****   * @param   EXTI_LineCmd controls (Enable/Disable) the EXTI line.
1172:Drivers/STM32H7xx_HAL_Driver/Src/stm32h7xx_hal.c **** 
1173:Drivers/STM32H7xx_HAL_Driver/Src/stm32h7xx_hal.c ****   * @retval None
1174:Drivers/STM32H7xx_HAL_Driver/Src/stm32h7xx_hal.c ****   */
1175:Drivers/STM32H7xx_HAL_Driver/Src/stm32h7xx_hal.c **** void HAL_EXTI_D1_EventInputConfig(uint32_t EXTI_Line , uint32_t EXTI_Mode,  uint32_t EXTI_LineCmd )
1176:Drivers/STM32H7xx_HAL_Driver/Src/stm32h7xx_hal.c **** {
 1856              		.loc 1 1176 1 is_stmt 1 view -0
 1857              		.cfi_startproc
 1858              		@ args = 0, pretend = 0, frame = 0
 1859              		@ frame_needed = 0, uses_anonymous_args = 0
 1860              		@ link register save eliminated.
1177:Drivers/STM32H7xx_HAL_Driver/Src/stm32h7xx_hal.c ****   /* Check the parameter */
1178:Drivers/STM32H7xx_HAL_Driver/Src/stm32h7xx_hal.c ****   assert_param(IS_EXTI_D1_LINE(EXTI_Line));
 1861              		.loc 1 1178 3 view .LVU344
1179:Drivers/STM32H7xx_HAL_Driver/Src/stm32h7xx_hal.c ****   assert_param(IS_EXTI_MODE_LINE(EXTI_Mode));
 1862              		.loc 1 1179 3 view .LVU345
1180:Drivers/STM32H7xx_HAL_Driver/Src/stm32h7xx_hal.c **** 
1181:Drivers/STM32H7xx_HAL_Driver/Src/stm32h7xx_hal.c ****   if( (EXTI_Mode & EXTI_MODE_IT) == EXTI_MODE_IT)
 1863              		.loc 1 1181 3 view .LVU346
1176:Drivers/STM32H7xx_HAL_Driver/Src/stm32h7xx_hal.c ****   /* Check the parameter */
 1864              		.loc 1 1176 1 is_stmt 0 view .LVU347
 1865 0000 10B4     		push	{r4}
 1866              	.LCFI8:
 1867              		.cfi_def_cfa_offset 4
 1868              		.cfi_offset 4, -4
 1869              		.loc 1 1181 5 view .LVU348
 1870 0002 CC03     		lsls	r4, r1, #15
ARM GAS  /tmp/ccbNDzm8.s 			page 55


 1871 0004 1DD5     		bpl	.L181
1182:Drivers/STM32H7xx_HAL_Driver/Src/stm32h7xx_hal.c ****   {
1183:Drivers/STM32H7xx_HAL_Driver/Src/stm32h7xx_hal.c ****      if( EXTI_LineCmd == 0UL)
 1872              		.loc 1 1183 6 is_stmt 1 view .LVU349
1184:Drivers/STM32H7xx_HAL_Driver/Src/stm32h7xx_hal.c ****      {
1185:Drivers/STM32H7xx_HAL_Driver/Src/stm32h7xx_hal.c ****        /* Clear EXTI line configuration */
1186:Drivers/STM32H7xx_HAL_Driver/Src/stm32h7xx_hal.c ****         CLEAR_BIT(*(__IO uint32_t *) (((uint32_t) &(EXTI_D1->IMR1)) + ((EXTI_Line >> 5 ) * 0x10UL))
 1873              		.loc 1 1186 9 is_stmt 0 view .LVU350
 1874 0006 244B     		ldr	r3, .L193
 1875 0008 00F01F04 		and	r4, r0, #31
1183:Drivers/STM32H7xx_HAL_Driver/Src/stm32h7xx_hal.c ****      {
 1876              		.loc 1 1183 8 view .LVU351
 1877 000c 32BB     		cbnz	r2, .L182
 1878              		.loc 1 1186 9 is_stmt 1 view .LVU352
 1879 000e 4209     		lsrs	r2, r0, #5
 1880              	.LVL64:
 1881              		.loc 1 1186 9 is_stmt 0 view .LVU353
 1882 0010 4FF0010C 		mov	ip, #1
 1883 0014 03EB5010 		add	r0, r3, r0, lsr #5
 1884              	.LVL65:
1187:Drivers/STM32H7xx_HAL_Driver/Src/stm32h7xx_hal.c ****      }
1188:Drivers/STM32H7xx_HAL_Driver/Src/stm32h7xx_hal.c ****      else
1189:Drivers/STM32H7xx_HAL_Driver/Src/stm32h7xx_hal.c ****      {
1190:Drivers/STM32H7xx_HAL_Driver/Src/stm32h7xx_hal.c ****         SET_BIT(*(__IO uint32_t *) (((uint32_t) &(EXTI_D1->IMR1)) + ((EXTI_Line >> 5 ) * 0x10UL)), 
1191:Drivers/STM32H7xx_HAL_Driver/Src/stm32h7xx_hal.c ****      }
1192:Drivers/STM32H7xx_HAL_Driver/Src/stm32h7xx_hal.c ****   }
1193:Drivers/STM32H7xx_HAL_Driver/Src/stm32h7xx_hal.c **** 
1194:Drivers/STM32H7xx_HAL_Driver/Src/stm32h7xx_hal.c ****   if( (EXTI_Mode & EXTI_MODE_EVT) == EXTI_MODE_EVT)
 1885              		.loc 1 1194 5 view .LVU354
 1886 0018 8903     		lsls	r1, r1, #14
 1887              	.LVL66:
1186:Drivers/STM32H7xx_HAL_Driver/Src/stm32h7xx_hal.c ****      }
 1888              		.loc 1 1186 9 view .LVU355
 1889 001a 0CFA04F3 		lsl	r3, ip, r4
 1890 001e 4FEA0010 		lsl	r0, r0, #4
 1891 0022 6FEA030C 		mvn	ip, r3
 1892 0026 0468     		ldr	r4, [r0]
 1893 0028 24EA0303 		bic	r3, r4, r3
 1894 002c 0360     		str	r3, [r0]
 1895              		.loc 1 1194 3 is_stmt 1 view .LVU356
 1896              		.loc 1 1194 5 is_stmt 0 view .LVU357
 1897 002e 05D5     		bpl	.L180
 1898              	.L183:
1195:Drivers/STM32H7xx_HAL_Driver/Src/stm32h7xx_hal.c ****   {
1196:Drivers/STM32H7xx_HAL_Driver/Src/stm32h7xx_hal.c ****     if( EXTI_LineCmd == 0UL)
1197:Drivers/STM32H7xx_HAL_Driver/Src/stm32h7xx_hal.c ****     {
1198:Drivers/STM32H7xx_HAL_Driver/Src/stm32h7xx_hal.c ****       /* Clear EXTI line configuration */
1199:Drivers/STM32H7xx_HAL_Driver/Src/stm32h7xx_hal.c ****       CLEAR_BIT(  *(__IO uint32_t *) (((uint32_t) &(EXTI_D1->EMR1)) + ((EXTI_Line >> 5 ) * 0x10UL))
 1899              		.loc 1 1199 7 is_stmt 1 view .LVU358
 1900 0030 1301     		lsls	r3, r2, #4
 1901 0032 1A49     		ldr	r1, .L193+4
 1902 0034 5A58     		ldr	r2, [r3, r1]
 1903 0036 02EA0C02 		and	r2, r2, ip
 1904 003a 5A50     		str	r2, [r3, r1]
 1905              	.L180:
1200:Drivers/STM32H7xx_HAL_Driver/Src/stm32h7xx_hal.c ****     }
1201:Drivers/STM32H7xx_HAL_Driver/Src/stm32h7xx_hal.c ****     else
ARM GAS  /tmp/ccbNDzm8.s 			page 56


1202:Drivers/STM32H7xx_HAL_Driver/Src/stm32h7xx_hal.c ****     {
1203:Drivers/STM32H7xx_HAL_Driver/Src/stm32h7xx_hal.c ****       SET_BIT(  *(__IO uint32_t *) (((uint32_t) &(EXTI_D1->EMR1)) + ((EXTI_Line >> 5 ) * 0x10UL)), 
1204:Drivers/STM32H7xx_HAL_Driver/Src/stm32h7xx_hal.c ****     }
1205:Drivers/STM32H7xx_HAL_Driver/Src/stm32h7xx_hal.c ****   }
1206:Drivers/STM32H7xx_HAL_Driver/Src/stm32h7xx_hal.c **** }
 1906              		.loc 1 1206 1 is_stmt 0 view .LVU359
 1907 003c 5DF8044B 		ldr	r4, [sp], #4
 1908              	.LCFI9:
 1909              		.cfi_remember_state
 1910              		.cfi_restore 4
 1911              		.cfi_def_cfa_offset 0
 1912 0040 7047     		bx	lr
 1913              	.LVL67:
 1914              	.L181:
 1915              	.LCFI10:
 1916              		.cfi_restore_state
1194:Drivers/STM32H7xx_HAL_Driver/Src/stm32h7xx_hal.c ****   {
 1917              		.loc 1 1194 3 is_stmt 1 view .LVU360
1194:Drivers/STM32H7xx_HAL_Driver/Src/stm32h7xx_hal.c ****   {
 1918              		.loc 1 1194 5 is_stmt 0 view .LVU361
 1919 0042 8B03     		lsls	r3, r1, #14
 1920 0044 FAD5     		bpl	.L180
1196:Drivers/STM32H7xx_HAL_Driver/Src/stm32h7xx_hal.c ****     {
 1921              		.loc 1 1196 5 is_stmt 1 view .LVU362
1196:Drivers/STM32H7xx_HAL_Driver/Src/stm32h7xx_hal.c ****     {
 1922              		.loc 1 1196 7 is_stmt 0 view .LVU363
 1923 0046 FAB9     		cbnz	r2, .L192
1186:Drivers/STM32H7xx_HAL_Driver/Src/stm32h7xx_hal.c ****      }
 1924              		.loc 1 1186 9 view .LVU364
 1925 0048 00F01F03 		and	r3, r0, #31
 1926 004c 4FF0010C 		mov	ip, #1
 1927 0050 4209     		lsrs	r2, r0, #5
 1928              	.LVL68:
1186:Drivers/STM32H7xx_HAL_Driver/Src/stm32h7xx_hal.c ****      }
 1929              		.loc 1 1186 9 view .LVU365
 1930 0052 0CFA03FC 		lsl	ip, ip, r3
 1931 0056 6FEA0C0C 		mvn	ip, ip
 1932 005a E9E7     		b	.L183
 1933              	.LVL69:
 1934              	.L182:
1190:Drivers/STM32H7xx_HAL_Driver/Src/stm32h7xx_hal.c ****      }
 1935              		.loc 1 1190 9 is_stmt 1 view .LVU366
 1936 005c 4FEA501C 		lsr	ip, r0, #5
 1937 0060 0122     		movs	r2, #1
 1938              	.LVL70:
1190:Drivers/STM32H7xx_HAL_Driver/Src/stm32h7xx_hal.c ****      }
 1939              		.loc 1 1190 9 is_stmt 0 view .LVU367
 1940 0062 03EB5010 		add	r0, r3, r0, lsr #5
 1941              	.LVL71:
1190:Drivers/STM32H7xx_HAL_Driver/Src/stm32h7xx_hal.c ****      }
 1942              		.loc 1 1190 9 view .LVU368
 1943 0066 02FA04F3 		lsl	r3, r2, r4
 1944 006a 0001     		lsls	r0, r0, #4
 1945 006c 0268     		ldr	r2, [r0]
 1946 006e 1A43     		orrs	r2, r2, r3
 1947 0070 0260     		str	r2, [r0]
1194:Drivers/STM32H7xx_HAL_Driver/Src/stm32h7xx_hal.c ****   {
ARM GAS  /tmp/ccbNDzm8.s 			page 57


 1948              		.loc 1 1194 3 is_stmt 1 view .LVU369
1194:Drivers/STM32H7xx_HAL_Driver/Src/stm32h7xx_hal.c ****   {
 1949              		.loc 1 1194 5 is_stmt 0 view .LVU370
 1950 0072 8A03     		lsls	r2, r1, #14
 1951 0074 E2D5     		bpl	.L180
 1952              	.L185:
1203:Drivers/STM32H7xx_HAL_Driver/Src/stm32h7xx_hal.c ****     }
 1953              		.loc 1 1203 7 is_stmt 1 view .LVU371
 1954 0076 4FEA0C12 		lsl	r2, ip, #4
 1955 007a 0848     		ldr	r0, .L193+4
 1956              		.loc 1 1206 1 is_stmt 0 view .LVU372
 1957 007c 5DF8044B 		ldr	r4, [sp], #4
 1958              	.LCFI11:
 1959              		.cfi_remember_state
 1960              		.cfi_restore 4
 1961              		.cfi_def_cfa_offset 0
1203:Drivers/STM32H7xx_HAL_Driver/Src/stm32h7xx_hal.c ****     }
 1962              		.loc 1 1203 7 view .LVU373
 1963 0080 1158     		ldr	r1, [r2, r0]
 1964              	.LVL72:
1203:Drivers/STM32H7xx_HAL_Driver/Src/stm32h7xx_hal.c ****     }
 1965              		.loc 1 1203 7 view .LVU374
 1966 0082 0B43     		orrs	r3, r3, r1
 1967 0084 1350     		str	r3, [r2, r0]
 1968              		.loc 1 1206 1 view .LVU375
 1969 0086 7047     		bx	lr
 1970              	.LVL73:
 1971              	.L192:
 1972              	.LCFI12:
 1973              		.cfi_restore_state
1186:Drivers/STM32H7xx_HAL_Driver/Src/stm32h7xx_hal.c ****      }
 1974              		.loc 1 1186 9 view .LVU376
 1975 0088 00F01F02 		and	r2, r0, #31
 1976              	.LVL74:
1186:Drivers/STM32H7xx_HAL_Driver/Src/stm32h7xx_hal.c ****      }
 1977              		.loc 1 1186 9 view .LVU377
 1978 008c 0123     		movs	r3, #1
 1979 008e 4FEA501C 		lsr	ip, r0, #5
 1980 0092 9340     		lsls	r3, r3, r2
 1981 0094 EFE7     		b	.L185
 1982              	.L194:
 1983 0096 00BF     		.align	2
 1984              	.L193:
 1985 0098 08008005 		.word	92274696
 1986 009c 84000058 		.word	1476395140
 1987              		.cfi_endproc
 1988              	.LFE190:
 1990              		.section	.text.HAL_EXTI_D3_EventInputConfig,"ax",%progbits
 1991              		.align	1
 1992              		.p2align 2,,3
 1993              		.global	HAL_EXTI_D3_EventInputConfig
 1994              		.syntax unified
 1995              		.thumb
 1996              		.thumb_func
 1997              		.fpu fpv5-d16
 1999              	HAL_EXTI_D3_EventInputConfig:
 2000              	.LVL75:
ARM GAS  /tmp/ccbNDzm8.s 			page 58


 2001              	.LFB191:
1207:Drivers/STM32H7xx_HAL_Driver/Src/stm32h7xx_hal.c **** 
1208:Drivers/STM32H7xx_HAL_Driver/Src/stm32h7xx_hal.c **** #if defined(DUAL_CORE)
1209:Drivers/STM32H7xx_HAL_Driver/Src/stm32h7xx_hal.c **** /**
1210:Drivers/STM32H7xx_HAL_Driver/Src/stm32h7xx_hal.c ****   * @brief  Configure the EXTI input event line for Domain D2
1211:Drivers/STM32H7xx_HAL_Driver/Src/stm32h7xx_hal.c ****   * @param   EXTI_Line: Specifies the EXTI LINE, it can be one of the following values,
1212:Drivers/STM32H7xx_HAL_Driver/Src/stm32h7xx_hal.c ****   *         (EXTI_LINE0....EXTI_LINE87)excluding :line45, line81,line83 which are reserved
1213:Drivers/STM32H7xx_HAL_Driver/Src/stm32h7xx_hal.c ****   * @param   EXTI_Mode: Specifies which EXTI line is used as interrupt or an event.
1214:Drivers/STM32H7xx_HAL_Driver/Src/stm32h7xx_hal.c ****   *          This parameter can be one or a combination of the following values :
1215:Drivers/STM32H7xx_HAL_Driver/Src/stm32h7xx_hal.c ****   *   @arg EXTI_MODE_IT :  Interrupt Mode selected
1216:Drivers/STM32H7xx_HAL_Driver/Src/stm32h7xx_hal.c ****   *   @arg EXTI_MODE_EVT : Event Mode selected
1217:Drivers/STM32H7xx_HAL_Driver/Src/stm32h7xx_hal.c ****   * @param   EXTI_LineCmd controls (Enable/Disable) the EXTI line.
1218:Drivers/STM32H7xx_HAL_Driver/Src/stm32h7xx_hal.c **** 
1219:Drivers/STM32H7xx_HAL_Driver/Src/stm32h7xx_hal.c ****   * @retval None
1220:Drivers/STM32H7xx_HAL_Driver/Src/stm32h7xx_hal.c ****   */
1221:Drivers/STM32H7xx_HAL_Driver/Src/stm32h7xx_hal.c **** void HAL_EXTI_D2_EventInputConfig(uint32_t EXTI_Line , uint32_t EXTI_Mode,  uint32_t EXTI_LineCmd )
1222:Drivers/STM32H7xx_HAL_Driver/Src/stm32h7xx_hal.c **** {
1223:Drivers/STM32H7xx_HAL_Driver/Src/stm32h7xx_hal.c ****   /* Check the parameter */
1224:Drivers/STM32H7xx_HAL_Driver/Src/stm32h7xx_hal.c ****   assert_param(IS_EXTI_D2_LINE(EXTI_Line));
1225:Drivers/STM32H7xx_HAL_Driver/Src/stm32h7xx_hal.c ****   assert_param(IS_EXTI_MODE_LINE(EXTI_Mode));
1226:Drivers/STM32H7xx_HAL_Driver/Src/stm32h7xx_hal.c **** 
1227:Drivers/STM32H7xx_HAL_Driver/Src/stm32h7xx_hal.c ****   if( (EXTI_Mode & EXTI_MODE_IT) == EXTI_MODE_IT)
1228:Drivers/STM32H7xx_HAL_Driver/Src/stm32h7xx_hal.c ****   {
1229:Drivers/STM32H7xx_HAL_Driver/Src/stm32h7xx_hal.c ****     if( EXTI_LineCmd == 0UL)
1230:Drivers/STM32H7xx_HAL_Driver/Src/stm32h7xx_hal.c ****     {
1231:Drivers/STM32H7xx_HAL_Driver/Src/stm32h7xx_hal.c ****     /* Clear EXTI line configuration */
1232:Drivers/STM32H7xx_HAL_Driver/Src/stm32h7xx_hal.c ****      CLEAR_BIT(*(__IO uint32_t *) (((uint32_t) &(EXTI_D2->IMR1)) + ((EXTI_Line >> 5 ) * 0x10UL)),(u
1233:Drivers/STM32H7xx_HAL_Driver/Src/stm32h7xx_hal.c ****     }
1234:Drivers/STM32H7xx_HAL_Driver/Src/stm32h7xx_hal.c ****     else
1235:Drivers/STM32H7xx_HAL_Driver/Src/stm32h7xx_hal.c ****     {
1236:Drivers/STM32H7xx_HAL_Driver/Src/stm32h7xx_hal.c ****      SET_BIT(*(__IO uint32_t *) (((uint32_t) &(EXTI_D2->IMR1)) + ((EXTI_Line >> 5 ) * 0x10UL)), (ui
1237:Drivers/STM32H7xx_HAL_Driver/Src/stm32h7xx_hal.c ****     }
1238:Drivers/STM32H7xx_HAL_Driver/Src/stm32h7xx_hal.c ****   }
1239:Drivers/STM32H7xx_HAL_Driver/Src/stm32h7xx_hal.c **** 
1240:Drivers/STM32H7xx_HAL_Driver/Src/stm32h7xx_hal.c ****   if( (EXTI_Mode & EXTI_MODE_EVT) == EXTI_MODE_EVT)
1241:Drivers/STM32H7xx_HAL_Driver/Src/stm32h7xx_hal.c ****   {
1242:Drivers/STM32H7xx_HAL_Driver/Src/stm32h7xx_hal.c ****     if( EXTI_LineCmd == 0UL)
1243:Drivers/STM32H7xx_HAL_Driver/Src/stm32h7xx_hal.c ****     {
1244:Drivers/STM32H7xx_HAL_Driver/Src/stm32h7xx_hal.c ****       /* Clear EXTI line configuration */
1245:Drivers/STM32H7xx_HAL_Driver/Src/stm32h7xx_hal.c ****       CLEAR_BIT(  *(__IO uint32_t *) (((uint32_t) &(EXTI_D2->EMR1)) + ((EXTI_Line >> 5 ) * 0x10UL))
1246:Drivers/STM32H7xx_HAL_Driver/Src/stm32h7xx_hal.c ****     }
1247:Drivers/STM32H7xx_HAL_Driver/Src/stm32h7xx_hal.c ****     else
1248:Drivers/STM32H7xx_HAL_Driver/Src/stm32h7xx_hal.c ****     {
1249:Drivers/STM32H7xx_HAL_Driver/Src/stm32h7xx_hal.c ****       SET_BIT(  *(__IO uint32_t *) (((uint32_t) &(EXTI_D2->EMR1)) + ((EXTI_Line >> 5 ) * 0x10UL)), 
1250:Drivers/STM32H7xx_HAL_Driver/Src/stm32h7xx_hal.c ****     }
1251:Drivers/STM32H7xx_HAL_Driver/Src/stm32h7xx_hal.c ****   }
1252:Drivers/STM32H7xx_HAL_Driver/Src/stm32h7xx_hal.c **** }
1253:Drivers/STM32H7xx_HAL_Driver/Src/stm32h7xx_hal.c **** #endif /*DUAL_CORE*/
1254:Drivers/STM32H7xx_HAL_Driver/Src/stm32h7xx_hal.c **** 
1255:Drivers/STM32H7xx_HAL_Driver/Src/stm32h7xx_hal.c **** /**
1256:Drivers/STM32H7xx_HAL_Driver/Src/stm32h7xx_hal.c ****   * @brief  Configure the EXTI input event line for Domain D3
1257:Drivers/STM32H7xx_HAL_Driver/Src/stm32h7xx_hal.c ****   * @param   EXTI_Line: Specifies the EXTI LINE, it can be one of the following values,
1258:Drivers/STM32H7xx_HAL_Driver/Src/stm32h7xx_hal.c ****   *         (EXTI_LINE0...EXTI_LINE15),(EXTI_LINE19...EXTI_LINE21),EXTI_LINE25, EXTI_LINE34,
1259:Drivers/STM32H7xx_HAL_Driver/Src/stm32h7xx_hal.c ****   *          EXTI_LINE35,EXTI_LINE41,(EXTI_LINE48...EXTI_LINE53)
1260:Drivers/STM32H7xx_HAL_Driver/Src/stm32h7xx_hal.c ****   * @param   EXTI_LineCmd controls (Enable/Disable) the EXTI line.
1261:Drivers/STM32H7xx_HAL_Driver/Src/stm32h7xx_hal.c ****   * @param   EXTI_ClearSrc: Specifies the clear source of D3 pending event.
1262:Drivers/STM32H7xx_HAL_Driver/Src/stm32h7xx_hal.c ****   *          This parameter can be one of the following values :
ARM GAS  /tmp/ccbNDzm8.s 			page 59


1263:Drivers/STM32H7xx_HAL_Driver/Src/stm32h7xx_hal.c ****   *   @arg BDMA_CH6_CLEAR : BDMA ch6 event selected as D3 domain pendclear source
1264:Drivers/STM32H7xx_HAL_Driver/Src/stm32h7xx_hal.c ****   *   @arg BDMA_CH7_CLEAR : BDMA ch7 event selected as D3 domain pendclear source
1265:Drivers/STM32H7xx_HAL_Driver/Src/stm32h7xx_hal.c ****   *   @arg LPTIM4_OUT_CLEAR : LPTIM4 out selected as D3 domain pendclear source
1266:Drivers/STM32H7xx_HAL_Driver/Src/stm32h7xx_hal.c ****   *   @arg LPTIM5_OUT_CLEAR : LPTIM5 out selected as D3 domain pendclear source
1267:Drivers/STM32H7xx_HAL_Driver/Src/stm32h7xx_hal.c ****   * @retval None
1268:Drivers/STM32H7xx_HAL_Driver/Src/stm32h7xx_hal.c ****   */
1269:Drivers/STM32H7xx_HAL_Driver/Src/stm32h7xx_hal.c **** void HAL_EXTI_D3_EventInputConfig(uint32_t EXTI_Line, uint32_t EXTI_LineCmd , uint32_t EXTI_ClearSr
1270:Drivers/STM32H7xx_HAL_Driver/Src/stm32h7xx_hal.c **** {
 2002              		.loc 1 1270 1 is_stmt 1 view -0
 2003              		.cfi_startproc
 2004              		@ args = 0, pretend = 0, frame = 0
 2005              		@ frame_needed = 0, uses_anonymous_args = 0
 2006              		@ link register save eliminated.
1271:Drivers/STM32H7xx_HAL_Driver/Src/stm32h7xx_hal.c ****   __IO uint32_t *pRegv;
 2007              		.loc 1 1271 3 view .LVU379
1272:Drivers/STM32H7xx_HAL_Driver/Src/stm32h7xx_hal.c **** 
1273:Drivers/STM32H7xx_HAL_Driver/Src/stm32h7xx_hal.c ****   /* Check the parameter */
1274:Drivers/STM32H7xx_HAL_Driver/Src/stm32h7xx_hal.c ****   assert_param(IS_EXTI_D3_LINE(EXTI_Line));
 2008              		.loc 1 1274 3 view .LVU380
1275:Drivers/STM32H7xx_HAL_Driver/Src/stm32h7xx_hal.c ****   assert_param(IS_EXTI_D3_CLEAR(EXTI_ClearSrc));
 2009              		.loc 1 1275 3 view .LVU381
1276:Drivers/STM32H7xx_HAL_Driver/Src/stm32h7xx_hal.c **** 
1277:Drivers/STM32H7xx_HAL_Driver/Src/stm32h7xx_hal.c ****   if( EXTI_LineCmd == 0UL)
 2010              		.loc 1 1277 3 view .LVU382
1270:Drivers/STM32H7xx_HAL_Driver/Src/stm32h7xx_hal.c ****   __IO uint32_t *pRegv;
 2011              		.loc 1 1270 1 is_stmt 0 view .LVU383
 2012 0000 30B4     		push	{r4, r5}
 2013              	.LCFI13:
 2014              		.cfi_def_cfa_offset 8
 2015              		.cfi_offset 4, -8
 2016              		.cfi_offset 5, -4
1278:Drivers/STM32H7xx_HAL_Driver/Src/stm32h7xx_hal.c ****   {
1279:Drivers/STM32H7xx_HAL_Driver/Src/stm32h7xx_hal.c ****     /* Clear EXTI line configuration */
1280:Drivers/STM32H7xx_HAL_Driver/Src/stm32h7xx_hal.c ****     CLEAR_BIT(*(__IO uint32_t *) (((uint32_t) &(EXTI->D3PMR1)) + ((EXTI_Line >> 5 ) * 0x20UL)),(uin
 2017              		.loc 1 1280 5 view .LVU384
 2018 0002 20F01F03 		bic	r3, r0, #31
 2019 0006 154C     		ldr	r4, .L201
1277:Drivers/STM32H7xx_HAL_Driver/Src/stm32h7xx_hal.c ****   {
 2020              		.loc 1 1277 5 view .LVU385
 2021 0008 F9B9     		cbnz	r1, .L196
 2022              		.loc 1 1280 5 is_stmt 1 view .LVU386
 2023 000a 00F01F05 		and	r5, r0, #31
 2024 000e 4FF0010C 		mov	ip, #1
 2025 0012 1959     		ldr	r1, [r3, r4]
 2026              	.LVL76:
 2027              		.loc 1 1280 5 is_stmt 0 view .LVU387
 2028 0014 0CFA05FC 		lsl	ip, ip, r5
 2029 0018 21EA0C01 		bic	r1, r1, ip
 2030 001c 1951     		str	r1, [r3, r4]
 2031              	.L197:
1281:Drivers/STM32H7xx_HAL_Driver/Src/stm32h7xx_hal.c ****   }
1282:Drivers/STM32H7xx_HAL_Driver/Src/stm32h7xx_hal.c ****   else
1283:Drivers/STM32H7xx_HAL_Driver/Src/stm32h7xx_hal.c ****   {
1284:Drivers/STM32H7xx_HAL_Driver/Src/stm32h7xx_hal.c ****     SET_BIT(*(__IO uint32_t *) (((uint32_t) &(EXTI->D3PMR1)) +((EXTI_Line >> 5 ) * 0x20UL)), (uint3
1285:Drivers/STM32H7xx_HAL_Driver/Src/stm32h7xx_hal.c ****   }
1286:Drivers/STM32H7xx_HAL_Driver/Src/stm32h7xx_hal.c **** 
1287:Drivers/STM32H7xx_HAL_Driver/Src/stm32h7xx_hal.c ****   if(((EXTI_Line>>4)%2UL) == 0UL)
ARM GAS  /tmp/ccbNDzm8.s 			page 60


 2032              		.loc 1 1287 3 is_stmt 1 view .LVU388
1288:Drivers/STM32H7xx_HAL_Driver/Src/stm32h7xx_hal.c ****   {
1289:Drivers/STM32H7xx_HAL_Driver/Src/stm32h7xx_hal.c ****     pRegv = (__IO uint32_t *) (((uint32_t) &(EXTI->D3PCR1L)) + ((EXTI_Line >> 5 ) * 0x20UL));
 2033              		.loc 1 1289 5 view .LVU389
1290:Drivers/STM32H7xx_HAL_Driver/Src/stm32h7xx_hal.c ****   }
1291:Drivers/STM32H7xx_HAL_Driver/Src/stm32h7xx_hal.c ****   else
1292:Drivers/STM32H7xx_HAL_Driver/Src/stm32h7xx_hal.c ****   {
1293:Drivers/STM32H7xx_HAL_Driver/Src/stm32h7xx_hal.c ****     pRegv = (__IO uint32_t *) (((uint32_t) &(EXTI->D3PCR1H)) + ((EXTI_Line >> 5 ) * 0x20UL));
 2034              		.loc 1 1293 5 view .LVU390
1287:Drivers/STM32H7xx_HAL_Driver/Src/stm32h7xx_hal.c ****   {
 2035              		.loc 1 1287 5 is_stmt 0 view .LVU391
 2036 001e C106     		lsls	r1, r0, #27
1294:Drivers/STM32H7xx_HAL_Driver/Src/stm32h7xx_hal.c ****   }
1295:Drivers/STM32H7xx_HAL_Driver/Src/stm32h7xx_hal.c ****   MODIFY_REG(*pRegv, (uint32_t)(3UL << ((EXTI_Line*2UL) & 0x1FUL)), (uint32_t)(EXTI_ClearSrc << ((E
 2037              		.loc 1 1295 3 view .LVU392
 2038 0020 4FEA4000 		lsl	r0, r0, #1
 2039              	.LVL77:
 2040              		.loc 1 1295 3 view .LVU393
 2041 0024 4FF0030C 		mov	ip, #3
1289:Drivers/STM32H7xx_HAL_Driver/Src/stm32h7xx_hal.c ****   }
 2042              		.loc 1 1289 62 view .LVU394
 2043 0028 58BF     		it	pl
 2044 002a 0D49     		ldrpl	r1, .L201+4
 2045              		.loc 1 1295 3 view .LVU395
 2046 002c 00F01E00 		and	r0, r0, #30
1293:Drivers/STM32H7xx_HAL_Driver/Src/stm32h7xx_hal.c ****   }
 2047              		.loc 1 1293 62 view .LVU396
 2048 0030 48BF     		it	mi
 2049 0032 0C49     		ldrmi	r1, .L201+8
 2050              		.loc 1 1295 3 view .LVU397
 2051 0034 0CFA00FC 		lsl	ip, ip, r0
 2052 0038 8240     		lsls	r2, r2, r0
 2053              	.LVL78:
1293:Drivers/STM32H7xx_HAL_Driver/Src/stm32h7xx_hal.c ****   }
 2054              		.loc 1 1293 62 view .LVU398
 2055 003a 1944     		add	r1, r1, r3
 2056              	.LVL79:
 2057              		.loc 1 1295 3 is_stmt 1 view .LVU399
 2058 003c 0B68     		ldr	r3, [r1]
 2059 003e 23EA0C00 		bic	r0, r3, ip
 2060 0042 1043     		orrs	r0, r0, r2
1296:Drivers/STM32H7xx_HAL_Driver/Src/stm32h7xx_hal.c **** 
1297:Drivers/STM32H7xx_HAL_Driver/Src/stm32h7xx_hal.c **** }
 2061              		.loc 1 1297 1 is_stmt 0 view .LVU400
 2062 0044 30BC     		pop	{r4, r5}
 2063              	.LCFI14:
 2064              		.cfi_remember_state
 2065              		.cfi_restore 5
 2066              		.cfi_restore 4
 2067              		.cfi_def_cfa_offset 0
1295:Drivers/STM32H7xx_HAL_Driver/Src/stm32h7xx_hal.c **** 
 2068              		.loc 1 1295 3 view .LVU401
 2069 0046 0860     		str	r0, [r1]
 2070              		.loc 1 1297 1 view .LVU402
 2071 0048 7047     		bx	lr
 2072              	.LVL80:
 2073              	.L196:
ARM GAS  /tmp/ccbNDzm8.s 			page 61


 2074              	.LCFI15:
 2075              		.cfi_restore_state
1284:Drivers/STM32H7xx_HAL_Driver/Src/stm32h7xx_hal.c ****   }
 2076              		.loc 1 1284 5 is_stmt 1 view .LVU403
 2077 004a 00F01F0C 		and	ip, r0, #31
 2078 004e 0121     		movs	r1, #1
 2079              	.LVL81:
1284:Drivers/STM32H7xx_HAL_Driver/Src/stm32h7xx_hal.c ****   }
 2080              		.loc 1 1284 5 is_stmt 0 view .LVU404
 2081 0050 1D59     		ldr	r5, [r3, r4]
 2082 0052 01FA0CF1 		lsl	r1, r1, ip
 2083 0056 2943     		orrs	r1, r1, r5
 2084 0058 1951     		str	r1, [r3, r4]
 2085 005a E0E7     		b	.L197
 2086              	.L202:
 2087              		.align	2
 2088              	.L201:
 2089 005c 0C000058 		.word	1476395020
 2090 0060 10000058 		.word	1476395024
 2091 0064 14000058 		.word	1476395028
 2092              		.cfi_endproc
 2093              	.LFE191:
 2095              		.global	uwTickFreq
 2096              		.global	uwTickPrio
 2097              		.global	uwTick
 2098              		.section	.bss.uwTick,"aw",%nobits
 2099              		.align	2
 2100              		.set	.LANCHOR2,. + 0
 2103              	uwTick:
 2104 0000 00000000 		.space	4
 2105              		.section	.data.uwTickFreq,"aw"
 2106              		.set	.LANCHOR0,. + 0
 2109              	uwTickFreq:
 2110 0000 01       		.byte	1
 2111              		.section	.data.uwTickPrio,"aw"
 2112              		.align	2
 2113              		.set	.LANCHOR1,. + 0
 2116              	uwTickPrio:
 2117 0000 10000000 		.word	16
 2118              		.text
 2119              	.Letext0:
 2120              		.file 2 "/usr/lib/gcc/arm-none-eabi/10.3.1/include/stdint.h"
 2121              		.file 3 "Drivers/CMSIS/Include/core_cm7.h"
 2122              		.file 4 "Drivers/CMSIS/Device/ST/STM32H7xx/Include/system_stm32h7xx.h"
 2123              		.file 5 "Drivers/CMSIS/Device/ST/STM32H7xx/Include/stm32h743xx.h"
 2124              		.file 6 "Drivers/STM32H7xx_HAL_Driver/Inc/stm32h7xx_hal_def.h"
 2125              		.file 7 "Drivers/STM32H7xx_HAL_Driver/Inc/stm32h7xx_hal.h"
 2126              		.file 8 "Drivers/STM32H7xx_HAL_Driver/Inc/stm32h7xx_hal_cortex.h"
 2127              		.file 9 "Drivers/STM32H7xx_HAL_Driver/Inc/stm32h7xx_hal_rcc.h"
ARM GAS  /tmp/ccbNDzm8.s 			page 62

