ARM GAS  /tmp/cc68FHKf.s 			page 1


   1              		.cpu cortex-m7
   2              		.eabi_attribute 28, 1
   3              		.eabi_attribute 20, 1
   4              		.eabi_attribute 21, 1
   5              		.eabi_attribute 23, 3
   6              		.eabi_attribute 24, 1
   7              		.eabi_attribute 25, 1
   8              		.eabi_attribute 26, 1
   9              		.eabi_attribute 30, 2
  10              		.eabi_attribute 34, 1
  11              		.eabi_attribute 18, 4
  12              		.file	"stm32h7xx_hal_pwr_ex.c"
  13              		.text
  14              	.Ltext0:
  15              		.cfi_sections	.debug_frame
  16              		.section	.text.HAL_PWREx_ConfigSupply,"ax",%progbits
  17              		.align	1
  18              		.p2align 2,,3
  19              		.global	HAL_PWREx_ConfigSupply
  20              		.arch armv7e-m
  21              		.syntax unified
  22              		.thumb
  23              		.thumb_func
  24              		.fpu fpv5-d16
  26              	HAL_PWREx_ConfigSupply:
  27              	.LVL0:
  28              	.LFB144:
  29              		.file 1 "Drivers/STM32H7xx_HAL_Driver/Src/stm32h7xx_hal_pwr_ex.c"
   1:Drivers/STM32H7xx_HAL_Driver/Src/stm32h7xx_hal_pwr_ex.c **** /**
   2:Drivers/STM32H7xx_HAL_Driver/Src/stm32h7xx_hal_pwr_ex.c ****   ******************************************************************************
   3:Drivers/STM32H7xx_HAL_Driver/Src/stm32h7xx_hal_pwr_ex.c ****   * @file    stm32h7xx_hal_pwr_ex.c
   4:Drivers/STM32H7xx_HAL_Driver/Src/stm32h7xx_hal_pwr_ex.c ****   * @author  MCD Application Team
   5:Drivers/STM32H7xx_HAL_Driver/Src/stm32h7xx_hal_pwr_ex.c ****   * @brief   Extended PWR HAL module driver.
   6:Drivers/STM32H7xx_HAL_Driver/Src/stm32h7xx_hal_pwr_ex.c ****   *          This file provides firmware functions to manage the following
   7:Drivers/STM32H7xx_HAL_Driver/Src/stm32h7xx_hal_pwr_ex.c ****   *          functionalities of PWR extension peripheral:
   8:Drivers/STM32H7xx_HAL_Driver/Src/stm32h7xx_hal_pwr_ex.c ****   *           + Peripheral Extended features functions
   9:Drivers/STM32H7xx_HAL_Driver/Src/stm32h7xx_hal_pwr_ex.c ****   ******************************************************************************
  10:Drivers/STM32H7xx_HAL_Driver/Src/stm32h7xx_hal_pwr_ex.c ****   * @attention
  11:Drivers/STM32H7xx_HAL_Driver/Src/stm32h7xx_hal_pwr_ex.c ****   *
  12:Drivers/STM32H7xx_HAL_Driver/Src/stm32h7xx_hal_pwr_ex.c ****   * Copyright (c) 2017 STMicroelectronics.
  13:Drivers/STM32H7xx_HAL_Driver/Src/stm32h7xx_hal_pwr_ex.c ****   * All rights reserved.
  14:Drivers/STM32H7xx_HAL_Driver/Src/stm32h7xx_hal_pwr_ex.c ****   *
  15:Drivers/STM32H7xx_HAL_Driver/Src/stm32h7xx_hal_pwr_ex.c ****   * This software is licensed under terms that can be found in the LICENSE file
  16:Drivers/STM32H7xx_HAL_Driver/Src/stm32h7xx_hal_pwr_ex.c ****   * in the root directory of this software component.
  17:Drivers/STM32H7xx_HAL_Driver/Src/stm32h7xx_hal_pwr_ex.c ****   * If no LICENSE file comes with this software, it is provided AS-IS.
  18:Drivers/STM32H7xx_HAL_Driver/Src/stm32h7xx_hal_pwr_ex.c ****   *
  19:Drivers/STM32H7xx_HAL_Driver/Src/stm32h7xx_hal_pwr_ex.c ****   ******************************************************************************
  20:Drivers/STM32H7xx_HAL_Driver/Src/stm32h7xx_hal_pwr_ex.c ****   @verbatim
  21:Drivers/STM32H7xx_HAL_Driver/Src/stm32h7xx_hal_pwr_ex.c ****   ==============================================================================
  22:Drivers/STM32H7xx_HAL_Driver/Src/stm32h7xx_hal_pwr_ex.c ****                         ##### How to use this driver #####
  23:Drivers/STM32H7xx_HAL_Driver/Src/stm32h7xx_hal_pwr_ex.c ****   ==============================================================================
  24:Drivers/STM32H7xx_HAL_Driver/Src/stm32h7xx_hal_pwr_ex.c ****   [..]
  25:Drivers/STM32H7xx_HAL_Driver/Src/stm32h7xx_hal_pwr_ex.c ****    (#) Call HAL_PWREx_ConfigSupply() function to configure the regulator supply
  26:Drivers/STM32H7xx_HAL_Driver/Src/stm32h7xx_hal_pwr_ex.c ****        with the following different setups according to hardware (support SMPS):
  27:Drivers/STM32H7xx_HAL_Driver/Src/stm32h7xx_hal_pwr_ex.c ****        (+) PWR_DIRECT_SMPS_SUPPLY
  28:Drivers/STM32H7xx_HAL_Driver/Src/stm32h7xx_hal_pwr_ex.c ****        (+) PWR_SMPS_1V8_SUPPLIES_LDO
  29:Drivers/STM32H7xx_HAL_Driver/Src/stm32h7xx_hal_pwr_ex.c ****        (+) PWR_SMPS_2V5_SUPPLIES_LDO
ARM GAS  /tmp/cc68FHKf.s 			page 2


  30:Drivers/STM32H7xx_HAL_Driver/Src/stm32h7xx_hal_pwr_ex.c ****        (+) PWR_SMPS_1V8_SUPPLIES_EXT_AND_LDO
  31:Drivers/STM32H7xx_HAL_Driver/Src/stm32h7xx_hal_pwr_ex.c ****        (+) PWR_SMPS_2V5_SUPPLIES_EXT_AND_LDO
  32:Drivers/STM32H7xx_HAL_Driver/Src/stm32h7xx_hal_pwr_ex.c ****        (+) PWR_SMPS_1V8_SUPPLIES_EXT
  33:Drivers/STM32H7xx_HAL_Driver/Src/stm32h7xx_hal_pwr_ex.c ****        (+) PWR_SMPS_2V5_SUPPLIES_EXT
  34:Drivers/STM32H7xx_HAL_Driver/Src/stm32h7xx_hal_pwr_ex.c ****        (+) PWR_LDO_SUPPLY
  35:Drivers/STM32H7xx_HAL_Driver/Src/stm32h7xx_hal_pwr_ex.c ****        (+) PWR_EXTERNAL_SOURCE_SUPPLY
  36:Drivers/STM32H7xx_HAL_Driver/Src/stm32h7xx_hal_pwr_ex.c **** 
  37:Drivers/STM32H7xx_HAL_Driver/Src/stm32h7xx_hal_pwr_ex.c ****    (#) Call HAL_PWREx_GetSupplyConfig() function to get the current supply setup.
  38:Drivers/STM32H7xx_HAL_Driver/Src/stm32h7xx_hal_pwr_ex.c **** 
  39:Drivers/STM32H7xx_HAL_Driver/Src/stm32h7xx_hal_pwr_ex.c ****    (#) Call HAL_PWREx_ControlVoltageScaling() function to configure the main
  40:Drivers/STM32H7xx_HAL_Driver/Src/stm32h7xx_hal_pwr_ex.c ****        internal regulator output voltage. The voltage scaling could be one of
  41:Drivers/STM32H7xx_HAL_Driver/Src/stm32h7xx_hal_pwr_ex.c ****        the following scales :
  42:Drivers/STM32H7xx_HAL_Driver/Src/stm32h7xx_hal_pwr_ex.c ****        (+) PWR_REGULATOR_VOLTAGE_SCALE0
  43:Drivers/STM32H7xx_HAL_Driver/Src/stm32h7xx_hal_pwr_ex.c ****        (+) PWR_REGULATOR_VOLTAGE_SCALE1
  44:Drivers/STM32H7xx_HAL_Driver/Src/stm32h7xx_hal_pwr_ex.c ****        (+) PWR_REGULATOR_VOLTAGE_SCALE2
  45:Drivers/STM32H7xx_HAL_Driver/Src/stm32h7xx_hal_pwr_ex.c ****        (+) PWR_REGULATOR_VOLTAGE_SCALE3
  46:Drivers/STM32H7xx_HAL_Driver/Src/stm32h7xx_hal_pwr_ex.c **** 
  47:Drivers/STM32H7xx_HAL_Driver/Src/stm32h7xx_hal_pwr_ex.c ****    (#) Call HAL_PWREx_GetVoltageRange() function to get the current output
  48:Drivers/STM32H7xx_HAL_Driver/Src/stm32h7xx_hal_pwr_ex.c ****        voltage applied to the main regulator.
  49:Drivers/STM32H7xx_HAL_Driver/Src/stm32h7xx_hal_pwr_ex.c **** 
  50:Drivers/STM32H7xx_HAL_Driver/Src/stm32h7xx_hal_pwr_ex.c ****    (#) Call HAL_PWREx_ControlStopModeVoltageScaling() function to configure the
  51:Drivers/STM32H7xx_HAL_Driver/Src/stm32h7xx_hal_pwr_ex.c ****        main internal regulator output voltage in STOP mode. The voltage scaling
  52:Drivers/STM32H7xx_HAL_Driver/Src/stm32h7xx_hal_pwr_ex.c ****        in STOP mode could be one of the following scales :
  53:Drivers/STM32H7xx_HAL_Driver/Src/stm32h7xx_hal_pwr_ex.c ****        (+) PWR_REGULATOR_SVOS_SCALE3
  54:Drivers/STM32H7xx_HAL_Driver/Src/stm32h7xx_hal_pwr_ex.c ****        (+) PWR_REGULATOR_SVOS_SCALE4
  55:Drivers/STM32H7xx_HAL_Driver/Src/stm32h7xx_hal_pwr_ex.c ****        (+) PWR_REGULATOR_SVOS_SCALE5
  56:Drivers/STM32H7xx_HAL_Driver/Src/stm32h7xx_hal_pwr_ex.c **** 
  57:Drivers/STM32H7xx_HAL_Driver/Src/stm32h7xx_hal_pwr_ex.c ****    (#) Call HAL_PWREx_GetStopModeVoltageRange() function to get the current
  58:Drivers/STM32H7xx_HAL_Driver/Src/stm32h7xx_hal_pwr_ex.c ****        output voltage applied to the main regulator in STOP mode.
  59:Drivers/STM32H7xx_HAL_Driver/Src/stm32h7xx_hal_pwr_ex.c **** 
  60:Drivers/STM32H7xx_HAL_Driver/Src/stm32h7xx_hal_pwr_ex.c ****    (#) Call HAL_PWREx_EnterSTOP2Mode() function to enter the system in STOP mode
  61:Drivers/STM32H7xx_HAL_Driver/Src/stm32h7xx_hal_pwr_ex.c ****        with core domain in D2STOP mode. This API is used only for STM32H7Axxx
  62:Drivers/STM32H7xx_HAL_Driver/Src/stm32h7xx_hal_pwr_ex.c ****        and STM32H7Bxxx devices.
  63:Drivers/STM32H7xx_HAL_Driver/Src/stm32h7xx_hal_pwr_ex.c ****        Please ensure to clear all CPU pending events by calling
  64:Drivers/STM32H7xx_HAL_Driver/Src/stm32h7xx_hal_pwr_ex.c ****        HAL_PWREx_ClearPendingEvent() function when trying to enter the Cortex-Mx
  65:Drivers/STM32H7xx_HAL_Driver/Src/stm32h7xx_hal_pwr_ex.c ****        in DEEP-SLEEP mode with __WFE() entry.
  66:Drivers/STM32H7xx_HAL_Driver/Src/stm32h7xx_hal_pwr_ex.c **** 
  67:Drivers/STM32H7xx_HAL_Driver/Src/stm32h7xx_hal_pwr_ex.c ****    (#) Call HAL_PWREx_EnterSTOPMode() function to enter the selected domain in
  68:Drivers/STM32H7xx_HAL_Driver/Src/stm32h7xx_hal_pwr_ex.c ****        DSTOP mode. Call this API with all available power domains to enter the
  69:Drivers/STM32H7xx_HAL_Driver/Src/stm32h7xx_hal_pwr_ex.c ****        system in STOP mode.
  70:Drivers/STM32H7xx_HAL_Driver/Src/stm32h7xx_hal_pwr_ex.c ****        Please ensure to clear all CPU pending events by calling
  71:Drivers/STM32H7xx_HAL_Driver/Src/stm32h7xx_hal_pwr_ex.c ****        HAL_PWREx_ClearPendingEvent() function when trying to enter the Cortex-Mx
  72:Drivers/STM32H7xx_HAL_Driver/Src/stm32h7xx_hal_pwr_ex.c ****        in DEEP-SLEEP mode with __WFE() entry.
  73:Drivers/STM32H7xx_HAL_Driver/Src/stm32h7xx_hal_pwr_ex.c **** 
  74:Drivers/STM32H7xx_HAL_Driver/Src/stm32h7xx_hal_pwr_ex.c ****    (#) Call HAL_PWREx_ClearPendingEvent() function always before entring the
  75:Drivers/STM32H7xx_HAL_Driver/Src/stm32h7xx_hal_pwr_ex.c ****        Cortex-Mx in any low power mode (SLEEP/DEEP-SLEEP) using WFE entry.
  76:Drivers/STM32H7xx_HAL_Driver/Src/stm32h7xx_hal_pwr_ex.c **** 
  77:Drivers/STM32H7xx_HAL_Driver/Src/stm32h7xx_hal_pwr_ex.c ****    (#) Call HAL_PWREx_EnterSTANDBYMode() function to enter the selected domain
  78:Drivers/STM32H7xx_HAL_Driver/Src/stm32h7xx_hal_pwr_ex.c ****        in DSTANDBY mode. Call this API with all available power domains to enter
  79:Drivers/STM32H7xx_HAL_Driver/Src/stm32h7xx_hal_pwr_ex.c ****        the system in STANDBY mode.
  80:Drivers/STM32H7xx_HAL_Driver/Src/stm32h7xx_hal_pwr_ex.c **** 
  81:Drivers/STM32H7xx_HAL_Driver/Src/stm32h7xx_hal_pwr_ex.c ****    (#) Call HAL_PWREx_ConfigD3Domain() function to setup the D3/SRD domain state
  82:Drivers/STM32H7xx_HAL_Driver/Src/stm32h7xx_hal_pwr_ex.c ****        (RUN/STOP) when the system enter to low power mode.
  83:Drivers/STM32H7xx_HAL_Driver/Src/stm32h7xx_hal_pwr_ex.c **** 
  84:Drivers/STM32H7xx_HAL_Driver/Src/stm32h7xx_hal_pwr_ex.c ****    (#) Call HAL_PWREx_ClearDomainFlags() function to clear the CPU flags for the
  85:Drivers/STM32H7xx_HAL_Driver/Src/stm32h7xx_hal_pwr_ex.c ****        selected power domain. This API is used only for dual core devices.
  86:Drivers/STM32H7xx_HAL_Driver/Src/stm32h7xx_hal_pwr_ex.c **** 
ARM GAS  /tmp/cc68FHKf.s 			page 3


  87:Drivers/STM32H7xx_HAL_Driver/Src/stm32h7xx_hal_pwr_ex.c ****    (#) Call HAL_PWREx_HoldCore() and HAL_PWREx_ReleaseCore() functions to hold
  88:Drivers/STM32H7xx_HAL_Driver/Src/stm32h7xx_hal_pwr_ex.c ****        and release the selected CPU and and their domain peripherals when
  89:Drivers/STM32H7xx_HAL_Driver/Src/stm32h7xx_hal_pwr_ex.c ****        exiting STOP mode. These APIs are used only for dual core devices.
  90:Drivers/STM32H7xx_HAL_Driver/Src/stm32h7xx_hal_pwr_ex.c **** 
  91:Drivers/STM32H7xx_HAL_Driver/Src/stm32h7xx_hal_pwr_ex.c ****    (#) Call HAL_PWREx_EnableFlashPowerDown() and
  92:Drivers/STM32H7xx_HAL_Driver/Src/stm32h7xx_hal_pwr_ex.c ****        HAL_PWREx_DisableFlashPowerDown() functions to enable and disable the
  93:Drivers/STM32H7xx_HAL_Driver/Src/stm32h7xx_hal_pwr_ex.c ****        Flash Power Down in STOP mode.
  94:Drivers/STM32H7xx_HAL_Driver/Src/stm32h7xx_hal_pwr_ex.c **** 
  95:Drivers/STM32H7xx_HAL_Driver/Src/stm32h7xx_hal_pwr_ex.c ****    (#) Call HAL_PWREx_EnableMemoryShutOff() and
  96:Drivers/STM32H7xx_HAL_Driver/Src/stm32h7xx_hal_pwr_ex.c ****        HAL_PWREx_DisableMemoryShutOff() functions to enable and disable the
  97:Drivers/STM32H7xx_HAL_Driver/Src/stm32h7xx_hal_pwr_ex.c ****        memory block shut-off in DStop or DStop2. These APIs are used only for
  98:Drivers/STM32H7xx_HAL_Driver/Src/stm32h7xx_hal_pwr_ex.c ****        STM32H7Axxx and STM32H7Bxxx lines.
  99:Drivers/STM32H7xx_HAL_Driver/Src/stm32h7xx_hal_pwr_ex.c **** 
 100:Drivers/STM32H7xx_HAL_Driver/Src/stm32h7xx_hal_pwr_ex.c ****    (#) Call HAL_PWREx_EnableWakeUpPin() and HAL_PWREx_DisableWakeUpPin()
 101:Drivers/STM32H7xx_HAL_Driver/Src/stm32h7xx_hal_pwr_ex.c ****        functions to enable and disable the Wake-up pin functionality for
 102:Drivers/STM32H7xx_HAL_Driver/Src/stm32h7xx_hal_pwr_ex.c ****        the selected pin.
 103:Drivers/STM32H7xx_HAL_Driver/Src/stm32h7xx_hal_pwr_ex.c **** 
 104:Drivers/STM32H7xx_HAL_Driver/Src/stm32h7xx_hal_pwr_ex.c ****    (#) Call HAL_PWREx_GetWakeupFlag() and HAL_PWREx_ClearWakeupFlag()
 105:Drivers/STM32H7xx_HAL_Driver/Src/stm32h7xx_hal_pwr_ex.c ****        functions to manage wake-up flag for the selected pin.
 106:Drivers/STM32H7xx_HAL_Driver/Src/stm32h7xx_hal_pwr_ex.c **** 
 107:Drivers/STM32H7xx_HAL_Driver/Src/stm32h7xx_hal_pwr_ex.c ****    (#) Call HAL_PWREx_WAKEUP_PIN_IRQHandler() function to handle all wake-up
 108:Drivers/STM32H7xx_HAL_Driver/Src/stm32h7xx_hal_pwr_ex.c ****        pins interrupts.
 109:Drivers/STM32H7xx_HAL_Driver/Src/stm32h7xx_hal_pwr_ex.c **** 
 110:Drivers/STM32H7xx_HAL_Driver/Src/stm32h7xx_hal_pwr_ex.c ****    (#) Call HAL_PWREx_EnableBkUpReg() and HAL_PWREx_DisableBkUpReg() functions
 111:Drivers/STM32H7xx_HAL_Driver/Src/stm32h7xx_hal_pwr_ex.c ****        to enable and disable the backup domain regulator.
 112:Drivers/STM32H7xx_HAL_Driver/Src/stm32h7xx_hal_pwr_ex.c **** 
 113:Drivers/STM32H7xx_HAL_Driver/Src/stm32h7xx_hal_pwr_ex.c ****    (#) Call HAL_PWREx_EnableUSBReg(), HAL_PWREx_DisableUSBReg(),
 114:Drivers/STM32H7xx_HAL_Driver/Src/stm32h7xx_hal_pwr_ex.c ****        HAL_PWREx_EnableUSBVoltageDetector() and
 115:Drivers/STM32H7xx_HAL_Driver/Src/stm32h7xx_hal_pwr_ex.c ****        HAL_PWREx_DisableUSBVoltageDetector() functions to manage USB power
 116:Drivers/STM32H7xx_HAL_Driver/Src/stm32h7xx_hal_pwr_ex.c ****        regulation functionalities.
 117:Drivers/STM32H7xx_HAL_Driver/Src/stm32h7xx_hal_pwr_ex.c **** 
 118:Drivers/STM32H7xx_HAL_Driver/Src/stm32h7xx_hal_pwr_ex.c ****    (#) Call HAL_PWREx_EnableBatteryCharging() and
 119:Drivers/STM32H7xx_HAL_Driver/Src/stm32h7xx_hal_pwr_ex.c ****        HAL_PWREx_DisableBatteryCharging() functions to enable and disable the
 120:Drivers/STM32H7xx_HAL_Driver/Src/stm32h7xx_hal_pwr_ex.c ****        battery charging feature with the selected resistor.
 121:Drivers/STM32H7xx_HAL_Driver/Src/stm32h7xx_hal_pwr_ex.c **** 
 122:Drivers/STM32H7xx_HAL_Driver/Src/stm32h7xx_hal_pwr_ex.c ****    (#) Call HAL_PWREx_EnableAnalogBooster() and
 123:Drivers/STM32H7xx_HAL_Driver/Src/stm32h7xx_hal_pwr_ex.c ****        HAL_PWREx_DisableAnalogBooster() functions to enable and disable the
 124:Drivers/STM32H7xx_HAL_Driver/Src/stm32h7xx_hal_pwr_ex.c ****        AVD boost feature when the VDD supply voltage is below 2V7.
 125:Drivers/STM32H7xx_HAL_Driver/Src/stm32h7xx_hal_pwr_ex.c **** 
 126:Drivers/STM32H7xx_HAL_Driver/Src/stm32h7xx_hal_pwr_ex.c ****    (#) Call HAL_PWREx_EnableMonitoring() and HAL_PWREx_DisableMonitoring()
 127:Drivers/STM32H7xx_HAL_Driver/Src/stm32h7xx_hal_pwr_ex.c ****        functions to enable and disable the VBAT and Temperature monitoring.
 128:Drivers/STM32H7xx_HAL_Driver/Src/stm32h7xx_hal_pwr_ex.c ****        When VBAT and Temperature monitoring feature is enables, use
 129:Drivers/STM32H7xx_HAL_Driver/Src/stm32h7xx_hal_pwr_ex.c ****        HAL_PWREx_GetTemperatureLevel() and HAL_PWREx_GetVBATLevel() to get
 130:Drivers/STM32H7xx_HAL_Driver/Src/stm32h7xx_hal_pwr_ex.c ****        respectively the Temperature level and VBAT level.
 131:Drivers/STM32H7xx_HAL_Driver/Src/stm32h7xx_hal_pwr_ex.c **** 
 132:Drivers/STM32H7xx_HAL_Driver/Src/stm32h7xx_hal_pwr_ex.c ****    (#) Call HAL_PWREx_GetMMCVoltage() and HAL_PWREx_DisableMonitoring()
 133:Drivers/STM32H7xx_HAL_Driver/Src/stm32h7xx_hal_pwr_ex.c ****        function to get VDDMMC voltage level. This API is used only for
 134:Drivers/STM32H7xx_HAL_Driver/Src/stm32h7xx_hal_pwr_ex.c ****        STM32H7Axxx and STM32H7Bxxx lines
 135:Drivers/STM32H7xx_HAL_Driver/Src/stm32h7xx_hal_pwr_ex.c **** 
 136:Drivers/STM32H7xx_HAL_Driver/Src/stm32h7xx_hal_pwr_ex.c ****    (#) Call HAL_PWREx_ConfigAVD() after setting parameter to be configured
 137:Drivers/STM32H7xx_HAL_Driver/Src/stm32h7xx_hal_pwr_ex.c ****        (event mode and voltage threshold) in order to set up the Analog Voltage
 138:Drivers/STM32H7xx_HAL_Driver/Src/stm32h7xx_hal_pwr_ex.c ****        Detector then use HAL_PWREx_EnableAVD() and  HAL_PWREx_DisableAVD()
 139:Drivers/STM32H7xx_HAL_Driver/Src/stm32h7xx_hal_pwr_ex.c ****        functions to start and stop the AVD detection.
 140:Drivers/STM32H7xx_HAL_Driver/Src/stm32h7xx_hal_pwr_ex.c ****        (+) AVD level could be one of the following values :
 141:Drivers/STM32H7xx_HAL_Driver/Src/stm32h7xx_hal_pwr_ex.c ****              (++) 1V7
 142:Drivers/STM32H7xx_HAL_Driver/Src/stm32h7xx_hal_pwr_ex.c ****              (++) 2V1
 143:Drivers/STM32H7xx_HAL_Driver/Src/stm32h7xx_hal_pwr_ex.c ****              (++) 2V5
ARM GAS  /tmp/cc68FHKf.s 			page 4


 144:Drivers/STM32H7xx_HAL_Driver/Src/stm32h7xx_hal_pwr_ex.c ****              (++) 2V8
 145:Drivers/STM32H7xx_HAL_Driver/Src/stm32h7xx_hal_pwr_ex.c **** 
 146:Drivers/STM32H7xx_HAL_Driver/Src/stm32h7xx_hal_pwr_ex.c ****    (#) Call HAL_PWREx_PVD_AVD_IRQHandler() function to handle the PWR PVD and
 147:Drivers/STM32H7xx_HAL_Driver/Src/stm32h7xx_hal_pwr_ex.c ****        AVD interrupt request.
 148:Drivers/STM32H7xx_HAL_Driver/Src/stm32h7xx_hal_pwr_ex.c **** 
 149:Drivers/STM32H7xx_HAL_Driver/Src/stm32h7xx_hal_pwr_ex.c ****   @endverbatim
 150:Drivers/STM32H7xx_HAL_Driver/Src/stm32h7xx_hal_pwr_ex.c ****   */
 151:Drivers/STM32H7xx_HAL_Driver/Src/stm32h7xx_hal_pwr_ex.c **** 
 152:Drivers/STM32H7xx_HAL_Driver/Src/stm32h7xx_hal_pwr_ex.c **** /* Includes ------------------------------------------------------------------*/
 153:Drivers/STM32H7xx_HAL_Driver/Src/stm32h7xx_hal_pwr_ex.c **** #include "stm32h7xx_hal.h"
 154:Drivers/STM32H7xx_HAL_Driver/Src/stm32h7xx_hal_pwr_ex.c **** 
 155:Drivers/STM32H7xx_HAL_Driver/Src/stm32h7xx_hal_pwr_ex.c **** /** @addtogroup STM32H7xx_HAL_Driver
 156:Drivers/STM32H7xx_HAL_Driver/Src/stm32h7xx_hal_pwr_ex.c ****   * @{
 157:Drivers/STM32H7xx_HAL_Driver/Src/stm32h7xx_hal_pwr_ex.c ****   */
 158:Drivers/STM32H7xx_HAL_Driver/Src/stm32h7xx_hal_pwr_ex.c **** 
 159:Drivers/STM32H7xx_HAL_Driver/Src/stm32h7xx_hal_pwr_ex.c **** /** @defgroup PWREx PWREx
 160:Drivers/STM32H7xx_HAL_Driver/Src/stm32h7xx_hal_pwr_ex.c ****   * @brief PWR Extended HAL module driver
 161:Drivers/STM32H7xx_HAL_Driver/Src/stm32h7xx_hal_pwr_ex.c ****   * @{
 162:Drivers/STM32H7xx_HAL_Driver/Src/stm32h7xx_hal_pwr_ex.c ****   */
 163:Drivers/STM32H7xx_HAL_Driver/Src/stm32h7xx_hal_pwr_ex.c **** 
 164:Drivers/STM32H7xx_HAL_Driver/Src/stm32h7xx_hal_pwr_ex.c **** #ifdef HAL_PWR_MODULE_ENABLED
 165:Drivers/STM32H7xx_HAL_Driver/Src/stm32h7xx_hal_pwr_ex.c **** 
 166:Drivers/STM32H7xx_HAL_Driver/Src/stm32h7xx_hal_pwr_ex.c **** /* Private typedef -----------------------------------------------------------*/
 167:Drivers/STM32H7xx_HAL_Driver/Src/stm32h7xx_hal_pwr_ex.c **** /* Private define ------------------------------------------------------------*/
 168:Drivers/STM32H7xx_HAL_Driver/Src/stm32h7xx_hal_pwr_ex.c **** 
 169:Drivers/STM32H7xx_HAL_Driver/Src/stm32h7xx_hal_pwr_ex.c **** /** @addtogroup PWREx_Private_Constants
 170:Drivers/STM32H7xx_HAL_Driver/Src/stm32h7xx_hal_pwr_ex.c ****   * @{
 171:Drivers/STM32H7xx_HAL_Driver/Src/stm32h7xx_hal_pwr_ex.c ****   */
 172:Drivers/STM32H7xx_HAL_Driver/Src/stm32h7xx_hal_pwr_ex.c **** 
 173:Drivers/STM32H7xx_HAL_Driver/Src/stm32h7xx_hal_pwr_ex.c **** /** @defgroup PWREx_AVD_Mode_Mask PWR Extended AVD Mode Mask
 174:Drivers/STM32H7xx_HAL_Driver/Src/stm32h7xx_hal_pwr_ex.c ****   * @{
 175:Drivers/STM32H7xx_HAL_Driver/Src/stm32h7xx_hal_pwr_ex.c ****   */
 176:Drivers/STM32H7xx_HAL_Driver/Src/stm32h7xx_hal_pwr_ex.c **** #define AVD_MODE_IT              (0x00010000U)
 177:Drivers/STM32H7xx_HAL_Driver/Src/stm32h7xx_hal_pwr_ex.c **** #define AVD_MODE_EVT             (0x00020000U)
 178:Drivers/STM32H7xx_HAL_Driver/Src/stm32h7xx_hal_pwr_ex.c **** #define AVD_RISING_EDGE          (0x00000001U)
 179:Drivers/STM32H7xx_HAL_Driver/Src/stm32h7xx_hal_pwr_ex.c **** #define AVD_FALLING_EDGE         (0x00000002U)
 180:Drivers/STM32H7xx_HAL_Driver/Src/stm32h7xx_hal_pwr_ex.c **** #define AVD_RISING_FALLING_EDGE  (0x00000003U)
 181:Drivers/STM32H7xx_HAL_Driver/Src/stm32h7xx_hal_pwr_ex.c **** /**
 182:Drivers/STM32H7xx_HAL_Driver/Src/stm32h7xx_hal_pwr_ex.c ****   * @}
 183:Drivers/STM32H7xx_HAL_Driver/Src/stm32h7xx_hal_pwr_ex.c ****   */
 184:Drivers/STM32H7xx_HAL_Driver/Src/stm32h7xx_hal_pwr_ex.c **** 
 185:Drivers/STM32H7xx_HAL_Driver/Src/stm32h7xx_hal_pwr_ex.c **** /** @defgroup PWREx_REG_SET_TIMEOUT PWR Extended Flag Setting Time Out Value
 186:Drivers/STM32H7xx_HAL_Driver/Src/stm32h7xx_hal_pwr_ex.c ****   * @{
 187:Drivers/STM32H7xx_HAL_Driver/Src/stm32h7xx_hal_pwr_ex.c ****   */
 188:Drivers/STM32H7xx_HAL_Driver/Src/stm32h7xx_hal_pwr_ex.c **** #define PWR_FLAG_SETTING_DELAY   (1000U)
 189:Drivers/STM32H7xx_HAL_Driver/Src/stm32h7xx_hal_pwr_ex.c **** /**
 190:Drivers/STM32H7xx_HAL_Driver/Src/stm32h7xx_hal_pwr_ex.c ****   * @}
 191:Drivers/STM32H7xx_HAL_Driver/Src/stm32h7xx_hal_pwr_ex.c ****   */
 192:Drivers/STM32H7xx_HAL_Driver/Src/stm32h7xx_hal_pwr_ex.c **** 
 193:Drivers/STM32H7xx_HAL_Driver/Src/stm32h7xx_hal_pwr_ex.c **** /** @defgroup PWREx_WakeUp_Pins_Offsets PWREx Wake-Up Pins masks and offsets
 194:Drivers/STM32H7xx_HAL_Driver/Src/stm32h7xx_hal_pwr_ex.c ****   * @{
 195:Drivers/STM32H7xx_HAL_Driver/Src/stm32h7xx_hal_pwr_ex.c ****   */
 196:Drivers/STM32H7xx_HAL_Driver/Src/stm32h7xx_hal_pwr_ex.c **** /* Wake-Up Pins EXTI register mask */
 197:Drivers/STM32H7xx_HAL_Driver/Src/stm32h7xx_hal_pwr_ex.c **** #if defined (EXTI_IMR2_IM57)
 198:Drivers/STM32H7xx_HAL_Driver/Src/stm32h7xx_hal_pwr_ex.c **** #define PWR_EXTI_WAKEUP_PINS_MASK  (EXTI_IMR2_IM55 | EXTI_IMR2_IM56 |\
 199:Drivers/STM32H7xx_HAL_Driver/Src/stm32h7xx_hal_pwr_ex.c ****                                     EXTI_IMR2_IM57 | EXTI_IMR2_IM58 |\
 200:Drivers/STM32H7xx_HAL_Driver/Src/stm32h7xx_hal_pwr_ex.c ****                                     EXTI_IMR2_IM59 | EXTI_IMR2_IM60)
ARM GAS  /tmp/cc68FHKf.s 			page 5


 201:Drivers/STM32H7xx_HAL_Driver/Src/stm32h7xx_hal_pwr_ex.c **** #else
 202:Drivers/STM32H7xx_HAL_Driver/Src/stm32h7xx_hal_pwr_ex.c **** #define PWR_EXTI_WAKEUP_PINS_MASK  (EXTI_IMR2_IM55 | EXTI_IMR2_IM56 |\
 203:Drivers/STM32H7xx_HAL_Driver/Src/stm32h7xx_hal_pwr_ex.c ****                                     EXTI_IMR2_IM58 | EXTI_IMR2_IM60)
 204:Drivers/STM32H7xx_HAL_Driver/Src/stm32h7xx_hal_pwr_ex.c **** #endif /* defined (EXTI_IMR2_IM57) */
 205:Drivers/STM32H7xx_HAL_Driver/Src/stm32h7xx_hal_pwr_ex.c **** 
 206:Drivers/STM32H7xx_HAL_Driver/Src/stm32h7xx_hal_pwr_ex.c **** /* Wake-Up Pins PWR Pin Pull shift offsets */
 207:Drivers/STM32H7xx_HAL_Driver/Src/stm32h7xx_hal_pwr_ex.c **** #define PWR_WAKEUP_PINS_PULL_SHIFT_OFFSET (2U)
 208:Drivers/STM32H7xx_HAL_Driver/Src/stm32h7xx_hal_pwr_ex.c **** /**
 209:Drivers/STM32H7xx_HAL_Driver/Src/stm32h7xx_hal_pwr_ex.c ****   * @}
 210:Drivers/STM32H7xx_HAL_Driver/Src/stm32h7xx_hal_pwr_ex.c ****   */
 211:Drivers/STM32H7xx_HAL_Driver/Src/stm32h7xx_hal_pwr_ex.c **** 
 212:Drivers/STM32H7xx_HAL_Driver/Src/stm32h7xx_hal_pwr_ex.c **** /**
 213:Drivers/STM32H7xx_HAL_Driver/Src/stm32h7xx_hal_pwr_ex.c ****   * @}
 214:Drivers/STM32H7xx_HAL_Driver/Src/stm32h7xx_hal_pwr_ex.c ****   */
 215:Drivers/STM32H7xx_HAL_Driver/Src/stm32h7xx_hal_pwr_ex.c **** 
 216:Drivers/STM32H7xx_HAL_Driver/Src/stm32h7xx_hal_pwr_ex.c **** /* Private macro -------------------------------------------------------------*/
 217:Drivers/STM32H7xx_HAL_Driver/Src/stm32h7xx_hal_pwr_ex.c **** /* Private variables ---------------------------------------------------------*/
 218:Drivers/STM32H7xx_HAL_Driver/Src/stm32h7xx_hal_pwr_ex.c **** /* Private function prototypes -----------------------------------------------*/
 219:Drivers/STM32H7xx_HAL_Driver/Src/stm32h7xx_hal_pwr_ex.c **** /* Private functions ---------------------------------------------------------*/
 220:Drivers/STM32H7xx_HAL_Driver/Src/stm32h7xx_hal_pwr_ex.c **** /* Exported types ------------------------------------------------------------*/
 221:Drivers/STM32H7xx_HAL_Driver/Src/stm32h7xx_hal_pwr_ex.c **** /* Exported functions --------------------------------------------------------*/
 222:Drivers/STM32H7xx_HAL_Driver/Src/stm32h7xx_hal_pwr_ex.c **** 
 223:Drivers/STM32H7xx_HAL_Driver/Src/stm32h7xx_hal_pwr_ex.c **** /** @defgroup PWREx_Exported_Functions PWREx Exported Functions
 224:Drivers/STM32H7xx_HAL_Driver/Src/stm32h7xx_hal_pwr_ex.c ****   * @{
 225:Drivers/STM32H7xx_HAL_Driver/Src/stm32h7xx_hal_pwr_ex.c ****   */
 226:Drivers/STM32H7xx_HAL_Driver/Src/stm32h7xx_hal_pwr_ex.c **** 
 227:Drivers/STM32H7xx_HAL_Driver/Src/stm32h7xx_hal_pwr_ex.c **** /** @defgroup PWREx_Exported_Functions_Group1 Power Supply Control Functions
 228:Drivers/STM32H7xx_HAL_Driver/Src/stm32h7xx_hal_pwr_ex.c ****   * @brief    Power supply control functions
 229:Drivers/STM32H7xx_HAL_Driver/Src/stm32h7xx_hal_pwr_ex.c ****   *
 230:Drivers/STM32H7xx_HAL_Driver/Src/stm32h7xx_hal_pwr_ex.c **** @verbatim
 231:Drivers/STM32H7xx_HAL_Driver/Src/stm32h7xx_hal_pwr_ex.c ****  ===============================================================================
 232:Drivers/STM32H7xx_HAL_Driver/Src/stm32h7xx_hal_pwr_ex.c ****                   ##### Power supply control functions #####
 233:Drivers/STM32H7xx_HAL_Driver/Src/stm32h7xx_hal_pwr_ex.c ****  ===============================================================================
 234:Drivers/STM32H7xx_HAL_Driver/Src/stm32h7xx_hal_pwr_ex.c ****     [..]
 235:Drivers/STM32H7xx_HAL_Driver/Src/stm32h7xx_hal_pwr_ex.c ****    (#) When the system is powered on, the POR monitors VDD supply. Once VDD is
 236:Drivers/STM32H7xx_HAL_Driver/Src/stm32h7xx_hal_pwr_ex.c ****        above the POR threshold level, the voltage regulator is enabled in the
 237:Drivers/STM32H7xx_HAL_Driver/Src/stm32h7xx_hal_pwr_ex.c ****        default supply configuration:
 238:Drivers/STM32H7xx_HAL_Driver/Src/stm32h7xx_hal_pwr_ex.c ****       (+) The Voltage converter output level is set at 1V0 in accordance with
 239:Drivers/STM32H7xx_HAL_Driver/Src/stm32h7xx_hal_pwr_ex.c ****           the VOS3 level configured in PWR (D3/SRD) domain control register
 240:Drivers/STM32H7xx_HAL_Driver/Src/stm32h7xx_hal_pwr_ex.c ****           (PWR_D3CR/PWR_SRDCR).
 241:Drivers/STM32H7xx_HAL_Driver/Src/stm32h7xx_hal_pwr_ex.c ****       (+) The system is kept in reset mode as long as VCORE is not ok.
 242:Drivers/STM32H7xx_HAL_Driver/Src/stm32h7xx_hal_pwr_ex.c ****       (+) Once VCORE is ok, the system is taken out of reset and the HSI
 243:Drivers/STM32H7xx_HAL_Driver/Src/stm32h7xx_hal_pwr_ex.c ****           oscillator is enabled.
 244:Drivers/STM32H7xx_HAL_Driver/Src/stm32h7xx_hal_pwr_ex.c ****       (+) Once the oscillator is stable, the system is initialized: Flash memory
 245:Drivers/STM32H7xx_HAL_Driver/Src/stm32h7xx_hal_pwr_ex.c ****           and option bytes are loaded and the CPU starts in Run* mode.
 246:Drivers/STM32H7xx_HAL_Driver/Src/stm32h7xx_hal_pwr_ex.c ****       (+) The software shall then initialize the system including supply
 247:Drivers/STM32H7xx_HAL_Driver/Src/stm32h7xx_hal_pwr_ex.c ****           configuration programming using the HAL_PWREx_ConfigSupply().
 248:Drivers/STM32H7xx_HAL_Driver/Src/stm32h7xx_hal_pwr_ex.c ****       (+) Once the supply configuration has been configured, the
 249:Drivers/STM32H7xx_HAL_Driver/Src/stm32h7xx_hal_pwr_ex.c ****           HAL_PWREx_ConfigSupply() function checks the ACTVOSRDY bit in PWR
 250:Drivers/STM32H7xx_HAL_Driver/Src/stm32h7xx_hal_pwr_ex.c ****           control status register 1 (PWR_CSR1) to guarantee a valid voltage
 251:Drivers/STM32H7xx_HAL_Driver/Src/stm32h7xx_hal_pwr_ex.c ****           levels:
 252:Drivers/STM32H7xx_HAL_Driver/Src/stm32h7xx_hal_pwr_ex.c ****        (++) As long as ACTVOSRDY indicates that voltage levels are invalid, the
 253:Drivers/STM32H7xx_HAL_Driver/Src/stm32h7xx_hal_pwr_ex.c ****             system is in limited Run* mode, write accesses to the RAMs are not
 254:Drivers/STM32H7xx_HAL_Driver/Src/stm32h7xx_hal_pwr_ex.c ****             permitted and VOS shall not be changed.
 255:Drivers/STM32H7xx_HAL_Driver/Src/stm32h7xx_hal_pwr_ex.c ****        (++) Once ACTVOSRDY indicates that voltage levels are valid, the system
 256:Drivers/STM32H7xx_HAL_Driver/Src/stm32h7xx_hal_pwr_ex.c ****             is in normal Run mode, write accesses to RAMs are allowed and VOS
 257:Drivers/STM32H7xx_HAL_Driver/Src/stm32h7xx_hal_pwr_ex.c ****             can be changed.
ARM GAS  /tmp/cc68FHKf.s 			page 6


 258:Drivers/STM32H7xx_HAL_Driver/Src/stm32h7xx_hal_pwr_ex.c **** 
 259:Drivers/STM32H7xx_HAL_Driver/Src/stm32h7xx_hal_pwr_ex.c **** @endverbatim
 260:Drivers/STM32H7xx_HAL_Driver/Src/stm32h7xx_hal_pwr_ex.c ****   * @{
 261:Drivers/STM32H7xx_HAL_Driver/Src/stm32h7xx_hal_pwr_ex.c ****   */
 262:Drivers/STM32H7xx_HAL_Driver/Src/stm32h7xx_hal_pwr_ex.c **** 
 263:Drivers/STM32H7xx_HAL_Driver/Src/stm32h7xx_hal_pwr_ex.c **** /**
 264:Drivers/STM32H7xx_HAL_Driver/Src/stm32h7xx_hal_pwr_ex.c ****   * @brief Configure the system Power Supply.
 265:Drivers/STM32H7xx_HAL_Driver/Src/stm32h7xx_hal_pwr_ex.c ****   * @param  SupplySource : Specifies the Power Supply source to set after a
 266:Drivers/STM32H7xx_HAL_Driver/Src/stm32h7xx_hal_pwr_ex.c ****   *                        system startup.
 267:Drivers/STM32H7xx_HAL_Driver/Src/stm32h7xx_hal_pwr_ex.c ****   *         This parameter can be one of the following values :
 268:Drivers/STM32H7xx_HAL_Driver/Src/stm32h7xx_hal_pwr_ex.c ****   *            @arg PWR_DIRECT_SMPS_SUPPLY : The SMPS supplies the Vcore Power
 269:Drivers/STM32H7xx_HAL_Driver/Src/stm32h7xx_hal_pwr_ex.c ****   *                                          Domains. The LDO is Bypassed.
 270:Drivers/STM32H7xx_HAL_Driver/Src/stm32h7xx_hal_pwr_ex.c ****   *            @arg PWR_SMPS_1V8_SUPPLIES_LDO : The SMPS 1.8V output supplies
 271:Drivers/STM32H7xx_HAL_Driver/Src/stm32h7xx_hal_pwr_ex.c ****   *                                             the LDO. The Vcore Power Domains
 272:Drivers/STM32H7xx_HAL_Driver/Src/stm32h7xx_hal_pwr_ex.c ****   *                                             are supplied from the LDO.
 273:Drivers/STM32H7xx_HAL_Driver/Src/stm32h7xx_hal_pwr_ex.c ****   *            @arg PWR_SMPS_2V5_SUPPLIES_LDO : The SMPS 2.5V output supplies
 274:Drivers/STM32H7xx_HAL_Driver/Src/stm32h7xx_hal_pwr_ex.c ****   *                                             the LDO. The Vcore Power Domains
 275:Drivers/STM32H7xx_HAL_Driver/Src/stm32h7xx_hal_pwr_ex.c ****   *                                             are supplied from the LDO.
 276:Drivers/STM32H7xx_HAL_Driver/Src/stm32h7xx_hal_pwr_ex.c ****   *            @arg PWR_SMPS_1V8_SUPPLIES_EXT_AND_LDO : The SMPS 1.8V output
 277:Drivers/STM32H7xx_HAL_Driver/Src/stm32h7xx_hal_pwr_ex.c ****   *                                                     supplies external
 278:Drivers/STM32H7xx_HAL_Driver/Src/stm32h7xx_hal_pwr_ex.c ****   *                                                     circuits and the LDO.
 279:Drivers/STM32H7xx_HAL_Driver/Src/stm32h7xx_hal_pwr_ex.c ****   *                                                     The Vcore Power Domains
 280:Drivers/STM32H7xx_HAL_Driver/Src/stm32h7xx_hal_pwr_ex.c ****   *                                                     are supplied from the
 281:Drivers/STM32H7xx_HAL_Driver/Src/stm32h7xx_hal_pwr_ex.c ****   *                                                     LDO.
 282:Drivers/STM32H7xx_HAL_Driver/Src/stm32h7xx_hal_pwr_ex.c ****   *            @arg PWR_SMPS_2V5_SUPPLIES_EXT_AND_LDO : The SMPS 2.5V output
 283:Drivers/STM32H7xx_HAL_Driver/Src/stm32h7xx_hal_pwr_ex.c ****   *                                                     supplies external
 284:Drivers/STM32H7xx_HAL_Driver/Src/stm32h7xx_hal_pwr_ex.c ****   *                                                     circuits and the LDO.
 285:Drivers/STM32H7xx_HAL_Driver/Src/stm32h7xx_hal_pwr_ex.c ****   *                                                     The Vcore Power Domains
 286:Drivers/STM32H7xx_HAL_Driver/Src/stm32h7xx_hal_pwr_ex.c ****   *                                                     are supplied from the
 287:Drivers/STM32H7xx_HAL_Driver/Src/stm32h7xx_hal_pwr_ex.c ****   *                                                     LDO.
 288:Drivers/STM32H7xx_HAL_Driver/Src/stm32h7xx_hal_pwr_ex.c ****   *            @arg PWR_SMPS_1V8_SUPPLIES_EXT : The SMPS 1.8V output supplies
 289:Drivers/STM32H7xx_HAL_Driver/Src/stm32h7xx_hal_pwr_ex.c ****   *                                             external circuits. The LDO is
 290:Drivers/STM32H7xx_HAL_Driver/Src/stm32h7xx_hal_pwr_ex.c ****   *                                             Bypassed. The Vcore Power
 291:Drivers/STM32H7xx_HAL_Driver/Src/stm32h7xx_hal_pwr_ex.c ****   *                                             Domains are supplied from
 292:Drivers/STM32H7xx_HAL_Driver/Src/stm32h7xx_hal_pwr_ex.c ****   *                                             external source.
 293:Drivers/STM32H7xx_HAL_Driver/Src/stm32h7xx_hal_pwr_ex.c ****   *            @arg PWR_SMPS_2V5_SUPPLIES_EXT : The SMPS 2.5V output supplies
 294:Drivers/STM32H7xx_HAL_Driver/Src/stm32h7xx_hal_pwr_ex.c ****   *                                             external circuits. The LDO is
 295:Drivers/STM32H7xx_HAL_Driver/Src/stm32h7xx_hal_pwr_ex.c ****   *                                             Bypassed. The Vcore Power
 296:Drivers/STM32H7xx_HAL_Driver/Src/stm32h7xx_hal_pwr_ex.c ****   *                                             Domains are supplied from
 297:Drivers/STM32H7xx_HAL_Driver/Src/stm32h7xx_hal_pwr_ex.c ****   *                                             external source.
 298:Drivers/STM32H7xx_HAL_Driver/Src/stm32h7xx_hal_pwr_ex.c ****   *            @arg PWR_LDO_SUPPLY : The LDO regulator supplies the Vcore Power
 299:Drivers/STM32H7xx_HAL_Driver/Src/stm32h7xx_hal_pwr_ex.c ****   *                                  Domains. The SMPS regulator is Bypassed.
 300:Drivers/STM32H7xx_HAL_Driver/Src/stm32h7xx_hal_pwr_ex.c ****   *            @arg PWR_EXTERNAL_SOURCE_SUPPLY : The SMPS and the LDO are
 301:Drivers/STM32H7xx_HAL_Driver/Src/stm32h7xx_hal_pwr_ex.c ****   *                                              Bypassed. The Vcore Power
 302:Drivers/STM32H7xx_HAL_Driver/Src/stm32h7xx_hal_pwr_ex.c ****   *                                              Domains are supplied from
 303:Drivers/STM32H7xx_HAL_Driver/Src/stm32h7xx_hal_pwr_ex.c ****   *                                              external source.
 304:Drivers/STM32H7xx_HAL_Driver/Src/stm32h7xx_hal_pwr_ex.c ****   * @note   The PWR_LDO_SUPPLY and PWR_EXTERNAL_SOURCE_SUPPLY are used by all
 305:Drivers/STM32H7xx_HAL_Driver/Src/stm32h7xx_hal_pwr_ex.c ****   *         H7 lines.
 306:Drivers/STM32H7xx_HAL_Driver/Src/stm32h7xx_hal_pwr_ex.c ****   *         The PWR_DIRECT_SMPS_SUPPLY, PWR_SMPS_1V8_SUPPLIES_LDO,
 307:Drivers/STM32H7xx_HAL_Driver/Src/stm32h7xx_hal_pwr_ex.c ****   *         PWR_SMPS_2V5_SUPPLIES_LDO, PWR_SMPS_1V8_SUPPLIES_EXT_AND_LDO,
 308:Drivers/STM32H7xx_HAL_Driver/Src/stm32h7xx_hal_pwr_ex.c ****   *         PWR_SMPS_2V5_SUPPLIES_EXT_AND_LDO, PWR_SMPS_1V8_SUPPLIES_EXT and
 309:Drivers/STM32H7xx_HAL_Driver/Src/stm32h7xx_hal_pwr_ex.c ****   *         PWR_SMPS_2V5_SUPPLIES_EXT are used only for lines that supports SMPS
 310:Drivers/STM32H7xx_HAL_Driver/Src/stm32h7xx_hal_pwr_ex.c ****   *         regulator.
 311:Drivers/STM32H7xx_HAL_Driver/Src/stm32h7xx_hal_pwr_ex.c ****   * @retval HAL status.
 312:Drivers/STM32H7xx_HAL_Driver/Src/stm32h7xx_hal_pwr_ex.c ****   */
 313:Drivers/STM32H7xx_HAL_Driver/Src/stm32h7xx_hal_pwr_ex.c **** HAL_StatusTypeDef HAL_PWREx_ConfigSupply (uint32_t SupplySource)
 314:Drivers/STM32H7xx_HAL_Driver/Src/stm32h7xx_hal_pwr_ex.c **** {
ARM GAS  /tmp/cc68FHKf.s 			page 7


  30              		.loc 1 314 1 view -0
  31              		.cfi_startproc
  32              		@ args = 0, pretend = 0, frame = 0
  33              		@ frame_needed = 0, uses_anonymous_args = 0
 315:Drivers/STM32H7xx_HAL_Driver/Src/stm32h7xx_hal_pwr_ex.c ****   uint32_t tickstart;
  34              		.loc 1 315 3 view .LVU1
 316:Drivers/STM32H7xx_HAL_Driver/Src/stm32h7xx_hal_pwr_ex.c **** 
 317:Drivers/STM32H7xx_HAL_Driver/Src/stm32h7xx_hal_pwr_ex.c ****   /* Check the parameters */
 318:Drivers/STM32H7xx_HAL_Driver/Src/stm32h7xx_hal_pwr_ex.c ****   assert_param (IS_PWR_SUPPLY (SupplySource));
  35              		.loc 1 318 3 view .LVU2
 319:Drivers/STM32H7xx_HAL_Driver/Src/stm32h7xx_hal_pwr_ex.c **** 
 320:Drivers/STM32H7xx_HAL_Driver/Src/stm32h7xx_hal_pwr_ex.c ****   /* Check if supply source was configured */
 321:Drivers/STM32H7xx_HAL_Driver/Src/stm32h7xx_hal_pwr_ex.c **** #if defined (PWR_FLAG_SCUEN)
 322:Drivers/STM32H7xx_HAL_Driver/Src/stm32h7xx_hal_pwr_ex.c ****   if (__HAL_PWR_GET_FLAG (PWR_FLAG_SCUEN) == 0U)
  36              		.loc 1 322 3 view .LVU3
 314:Drivers/STM32H7xx_HAL_Driver/Src/stm32h7xx_hal_pwr_ex.c ****   uint32_t tickstart;
  37              		.loc 1 314 1 is_stmt 0 view .LVU4
  38 0000 38B5     		push	{r3, r4, r5, lr}
  39              	.LCFI0:
  40              		.cfi_def_cfa_offset 16
  41              		.cfi_offset 3, -16
  42              		.cfi_offset 4, -12
  43              		.cfi_offset 5, -8
  44              		.cfi_offset 14, -4
  45              		.loc 1 322 7 view .LVU5
  46 0002 104C     		ldr	r4, .L9
  47 0004 E368     		ldr	r3, [r4, #12]
  48              		.loc 1 322 6 view .LVU6
  49 0006 13F0040F 		tst	r3, #4
 323:Drivers/STM32H7xx_HAL_Driver/Src/stm32h7xx_hal_pwr_ex.c **** #else
 324:Drivers/STM32H7xx_HAL_Driver/Src/stm32h7xx_hal_pwr_ex.c ****   if ((PWR->CR3 & (PWR_CR3_SMPSEN | PWR_CR3_LDOEN | PWR_CR3_BYPASS)) != (PWR_CR3_SMPSEN | PWR_CR3_L
 325:Drivers/STM32H7xx_HAL_Driver/Src/stm32h7xx_hal_pwr_ex.c **** #endif /* defined (PWR_FLAG_SCUEN) */
 326:Drivers/STM32H7xx_HAL_Driver/Src/stm32h7xx_hal_pwr_ex.c ****   {
 327:Drivers/STM32H7xx_HAL_Driver/Src/stm32h7xx_hal_pwr_ex.c ****     /* Check supply configuration */
 328:Drivers/STM32H7xx_HAL_Driver/Src/stm32h7xx_hal_pwr_ex.c ****     if ((PWR->CR3 & PWR_SUPPLY_CONFIG_MASK) != SupplySource)
  50              		.loc 1 328 13 view .LVU7
  51 000a E368     		ldr	r3, [r4, #12]
 322:Drivers/STM32H7xx_HAL_Driver/Src/stm32h7xx_hal_pwr_ex.c **** #else
  52              		.loc 1 322 6 view .LVU8
  53 000c 05D1     		bne	.L2
  54              		.loc 1 328 5 is_stmt 1 view .LVU9
  55              		.loc 1 328 19 is_stmt 0 view .LVU10
  56 000e 03F00703 		and	r3, r3, #7
 329:Drivers/STM32H7xx_HAL_Driver/Src/stm32h7xx_hal_pwr_ex.c ****     {
 330:Drivers/STM32H7xx_HAL_Driver/Src/stm32h7xx_hal_pwr_ex.c ****       /* Supply configuration update locked, can't apply a new supply config */
 331:Drivers/STM32H7xx_HAL_Driver/Src/stm32h7xx_hal_pwr_ex.c ****       return HAL_ERROR;
  57              		.loc 1 331 14 view .LVU11
  58 0012 181A     		subs	r0, r3, r0
  59              	.LVL1:
  60              		.loc 1 331 14 view .LVU12
  61 0014 18BF     		it	ne
  62 0016 0120     		movne	r0, #1
 332:Drivers/STM32H7xx_HAL_Driver/Src/stm32h7xx_hal_pwr_ex.c ****     }
 333:Drivers/STM32H7xx_HAL_Driver/Src/stm32h7xx_hal_pwr_ex.c ****     else
 334:Drivers/STM32H7xx_HAL_Driver/Src/stm32h7xx_hal_pwr_ex.c ****     {
 335:Drivers/STM32H7xx_HAL_Driver/Src/stm32h7xx_hal_pwr_ex.c ****       /* Supply configuration update locked, but new supply configuration
 336:Drivers/STM32H7xx_HAL_Driver/Src/stm32h7xx_hal_pwr_ex.c ****          matches with old supply configuration : nothing to do
ARM GAS  /tmp/cc68FHKf.s 			page 8


 337:Drivers/STM32H7xx_HAL_Driver/Src/stm32h7xx_hal_pwr_ex.c ****       */
 338:Drivers/STM32H7xx_HAL_Driver/Src/stm32h7xx_hal_pwr_ex.c ****       return HAL_OK;
 339:Drivers/STM32H7xx_HAL_Driver/Src/stm32h7xx_hal_pwr_ex.c ****     }
 340:Drivers/STM32H7xx_HAL_Driver/Src/stm32h7xx_hal_pwr_ex.c ****   }
 341:Drivers/STM32H7xx_HAL_Driver/Src/stm32h7xx_hal_pwr_ex.c **** 
 342:Drivers/STM32H7xx_HAL_Driver/Src/stm32h7xx_hal_pwr_ex.c ****   /* Set the power supply configuration */
 343:Drivers/STM32H7xx_HAL_Driver/Src/stm32h7xx_hal_pwr_ex.c ****   MODIFY_REG (PWR->CR3, PWR_SUPPLY_CONFIG_MASK, SupplySource);
 344:Drivers/STM32H7xx_HAL_Driver/Src/stm32h7xx_hal_pwr_ex.c **** 
 345:Drivers/STM32H7xx_HAL_Driver/Src/stm32h7xx_hal_pwr_ex.c ****   /* Get tick */
 346:Drivers/STM32H7xx_HAL_Driver/Src/stm32h7xx_hal_pwr_ex.c ****   tickstart = HAL_GetTick ();
 347:Drivers/STM32H7xx_HAL_Driver/Src/stm32h7xx_hal_pwr_ex.c **** 
 348:Drivers/STM32H7xx_HAL_Driver/Src/stm32h7xx_hal_pwr_ex.c ****   /* Wait till voltage level flag is set */
 349:Drivers/STM32H7xx_HAL_Driver/Src/stm32h7xx_hal_pwr_ex.c ****   while (__HAL_PWR_GET_FLAG (PWR_FLAG_ACTVOSRDY) == 0U)
 350:Drivers/STM32H7xx_HAL_Driver/Src/stm32h7xx_hal_pwr_ex.c ****   {
 351:Drivers/STM32H7xx_HAL_Driver/Src/stm32h7xx_hal_pwr_ex.c ****     if ((HAL_GetTick () - tickstart) > PWR_FLAG_SETTING_DELAY)
 352:Drivers/STM32H7xx_HAL_Driver/Src/stm32h7xx_hal_pwr_ex.c ****     {
 353:Drivers/STM32H7xx_HAL_Driver/Src/stm32h7xx_hal_pwr_ex.c ****       return HAL_ERROR;
 354:Drivers/STM32H7xx_HAL_Driver/Src/stm32h7xx_hal_pwr_ex.c ****     }
 355:Drivers/STM32H7xx_HAL_Driver/Src/stm32h7xx_hal_pwr_ex.c ****   }
 356:Drivers/STM32H7xx_HAL_Driver/Src/stm32h7xx_hal_pwr_ex.c **** 
 357:Drivers/STM32H7xx_HAL_Driver/Src/stm32h7xx_hal_pwr_ex.c **** #if defined (SMPS)
 358:Drivers/STM32H7xx_HAL_Driver/Src/stm32h7xx_hal_pwr_ex.c ****   /* When the SMPS supplies external circuits verify that SDEXTRDY flag is set */
 359:Drivers/STM32H7xx_HAL_Driver/Src/stm32h7xx_hal_pwr_ex.c ****   if ((SupplySource == PWR_SMPS_1V8_SUPPLIES_EXT_AND_LDO) ||
 360:Drivers/STM32H7xx_HAL_Driver/Src/stm32h7xx_hal_pwr_ex.c ****       (SupplySource == PWR_SMPS_2V5_SUPPLIES_EXT_AND_LDO) ||
 361:Drivers/STM32H7xx_HAL_Driver/Src/stm32h7xx_hal_pwr_ex.c ****       (SupplySource == PWR_SMPS_1V8_SUPPLIES_EXT)         ||
 362:Drivers/STM32H7xx_HAL_Driver/Src/stm32h7xx_hal_pwr_ex.c ****       (SupplySource == PWR_SMPS_2V5_SUPPLIES_EXT))
 363:Drivers/STM32H7xx_HAL_Driver/Src/stm32h7xx_hal_pwr_ex.c ****   {
 364:Drivers/STM32H7xx_HAL_Driver/Src/stm32h7xx_hal_pwr_ex.c ****     /* Get the current tick number */
 365:Drivers/STM32H7xx_HAL_Driver/Src/stm32h7xx_hal_pwr_ex.c ****     tickstart = HAL_GetTick ();
 366:Drivers/STM32H7xx_HAL_Driver/Src/stm32h7xx_hal_pwr_ex.c **** 
 367:Drivers/STM32H7xx_HAL_Driver/Src/stm32h7xx_hal_pwr_ex.c ****     /* Wait till SMPS external supply ready flag is set */
 368:Drivers/STM32H7xx_HAL_Driver/Src/stm32h7xx_hal_pwr_ex.c ****     while (__HAL_PWR_GET_FLAG (PWR_FLAG_SMPSEXTRDY) == 0U)
 369:Drivers/STM32H7xx_HAL_Driver/Src/stm32h7xx_hal_pwr_ex.c ****     {
 370:Drivers/STM32H7xx_HAL_Driver/Src/stm32h7xx_hal_pwr_ex.c ****       if ((HAL_GetTick () - tickstart) > PWR_FLAG_SETTING_DELAY)
 371:Drivers/STM32H7xx_HAL_Driver/Src/stm32h7xx_hal_pwr_ex.c ****       {
 372:Drivers/STM32H7xx_HAL_Driver/Src/stm32h7xx_hal_pwr_ex.c ****         return HAL_ERROR;
 373:Drivers/STM32H7xx_HAL_Driver/Src/stm32h7xx_hal_pwr_ex.c ****       }
 374:Drivers/STM32H7xx_HAL_Driver/Src/stm32h7xx_hal_pwr_ex.c ****     }
 375:Drivers/STM32H7xx_HAL_Driver/Src/stm32h7xx_hal_pwr_ex.c ****   }
 376:Drivers/STM32H7xx_HAL_Driver/Src/stm32h7xx_hal_pwr_ex.c **** #endif /* defined (SMPS) */
 377:Drivers/STM32H7xx_HAL_Driver/Src/stm32h7xx_hal_pwr_ex.c **** 
 378:Drivers/STM32H7xx_HAL_Driver/Src/stm32h7xx_hal_pwr_ex.c ****   return HAL_OK;
 379:Drivers/STM32H7xx_HAL_Driver/Src/stm32h7xx_hal_pwr_ex.c **** }
  63              		.loc 1 379 1 view .LVU13
  64 0018 38BD     		pop	{r3, r4, r5, pc}
  65              	.LVL2:
  66              	.L2:
 343:Drivers/STM32H7xx_HAL_Driver/Src/stm32h7xx_hal_pwr_ex.c **** 
  67              		.loc 1 343 3 is_stmt 1 view .LVU14
  68 001a 23F00703 		bic	r3, r3, #7
  69 001e 1843     		orrs	r0, r0, r3
  70              	.LVL3:
 343:Drivers/STM32H7xx_HAL_Driver/Src/stm32h7xx_hal_pwr_ex.c **** 
  71              		.loc 1 343 3 is_stmt 0 view .LVU15
  72 0020 E060     		str	r0, [r4, #12]
 346:Drivers/STM32H7xx_HAL_Driver/Src/stm32h7xx_hal_pwr_ex.c **** 
  73              		.loc 1 346 3 is_stmt 1 view .LVU16
ARM GAS  /tmp/cc68FHKf.s 			page 9


 346:Drivers/STM32H7xx_HAL_Driver/Src/stm32h7xx_hal_pwr_ex.c **** 
  74              		.loc 1 346 15 is_stmt 0 view .LVU17
  75 0022 FFF7FEFF 		bl	HAL_GetTick
  76              	.LVL4:
  77 0026 0546     		mov	r5, r0
  78              	.LVL5:
 349:Drivers/STM32H7xx_HAL_Driver/Src/stm32h7xx_hal_pwr_ex.c ****   {
  79              		.loc 1 349 3 is_stmt 1 view .LVU18
 349:Drivers/STM32H7xx_HAL_Driver/Src/stm32h7xx_hal_pwr_ex.c ****   {
  80              		.loc 1 349 9 is_stmt 0 view .LVU19
  81 0028 05E0     		b	.L4
  82              	.LVL6:
  83              	.L5:
 351:Drivers/STM32H7xx_HAL_Driver/Src/stm32h7xx_hal_pwr_ex.c ****     {
  84              		.loc 1 351 10 view .LVU20
  85 002a FFF7FEFF 		bl	HAL_GetTick
  86              	.LVL7:
 351:Drivers/STM32H7xx_HAL_Driver/Src/stm32h7xx_hal_pwr_ex.c ****     {
  87              		.loc 1 351 25 view .LVU21
  88 002e 401B     		subs	r0, r0, r5
 351:Drivers/STM32H7xx_HAL_Driver/Src/stm32h7xx_hal_pwr_ex.c ****     {
  89              		.loc 1 351 8 view .LVU22
  90 0030 B0F57A7F 		cmp	r0, #1000
  91 0034 04D8     		bhi	.L6
  92              	.L4:
 351:Drivers/STM32H7xx_HAL_Driver/Src/stm32h7xx_hal_pwr_ex.c ****     {
  93              		.loc 1 351 5 is_stmt 1 view .LVU23
 349:Drivers/STM32H7xx_HAL_Driver/Src/stm32h7xx_hal_pwr_ex.c ****   {
  94              		.loc 1 349 9 view .LVU24
 349:Drivers/STM32H7xx_HAL_Driver/Src/stm32h7xx_hal_pwr_ex.c ****   {
  95              		.loc 1 349 10 is_stmt 0 view .LVU25
  96 0036 6368     		ldr	r3, [r4, #4]
 349:Drivers/STM32H7xx_HAL_Driver/Src/stm32h7xx_hal_pwr_ex.c ****   {
  97              		.loc 1 349 9 view .LVU26
  98 0038 9B04     		lsls	r3, r3, #18
  99 003a F6D5     		bpl	.L5
 378:Drivers/STM32H7xx_HAL_Driver/Src/stm32h7xx_hal_pwr_ex.c **** }
 100              		.loc 1 378 10 view .LVU27
 101 003c 0020     		movs	r0, #0
 102              		.loc 1 379 1 view .LVU28
 103 003e 38BD     		pop	{r3, r4, r5, pc}
 104              	.LVL8:
 105              	.L6:
 353:Drivers/STM32H7xx_HAL_Driver/Src/stm32h7xx_hal_pwr_ex.c ****     }
 106              		.loc 1 353 14 view .LVU29
 107 0040 0120     		movs	r0, #1
 108              		.loc 1 379 1 view .LVU30
 109 0042 38BD     		pop	{r3, r4, r5, pc}
 110              	.LVL9:
 111              	.L10:
 112              		.loc 1 379 1 view .LVU31
 113              		.align	2
 114              	.L9:
 115 0044 00480258 		.word	1476544512
 116              		.cfi_endproc
 117              	.LFE144:
 119              		.section	.text.HAL_PWREx_GetSupplyConfig,"ax",%progbits
ARM GAS  /tmp/cc68FHKf.s 			page 10


 120              		.align	1
 121              		.p2align 2,,3
 122              		.global	HAL_PWREx_GetSupplyConfig
 123              		.syntax unified
 124              		.thumb
 125              		.thumb_func
 126              		.fpu fpv5-d16
 128              	HAL_PWREx_GetSupplyConfig:
 129              	.LFB145:
 380:Drivers/STM32H7xx_HAL_Driver/Src/stm32h7xx_hal_pwr_ex.c **** 
 381:Drivers/STM32H7xx_HAL_Driver/Src/stm32h7xx_hal_pwr_ex.c **** /**
 382:Drivers/STM32H7xx_HAL_Driver/Src/stm32h7xx_hal_pwr_ex.c ****   * @brief Get the power supply configuration.
 383:Drivers/STM32H7xx_HAL_Driver/Src/stm32h7xx_hal_pwr_ex.c ****   * @retval The supply configuration.
 384:Drivers/STM32H7xx_HAL_Driver/Src/stm32h7xx_hal_pwr_ex.c ****   */
 385:Drivers/STM32H7xx_HAL_Driver/Src/stm32h7xx_hal_pwr_ex.c **** uint32_t HAL_PWREx_GetSupplyConfig (void)
 386:Drivers/STM32H7xx_HAL_Driver/Src/stm32h7xx_hal_pwr_ex.c **** {
 130              		.loc 1 386 1 is_stmt 1 view -0
 131              		.cfi_startproc
 132              		@ args = 0, pretend = 0, frame = 0
 133              		@ frame_needed = 0, uses_anonymous_args = 0
 134              		@ link register save eliminated.
 387:Drivers/STM32H7xx_HAL_Driver/Src/stm32h7xx_hal_pwr_ex.c ****   return (PWR->CR3 & PWR_SUPPLY_CONFIG_MASK);
 135              		.loc 1 387 3 view .LVU33
 136              		.loc 1 387 14 is_stmt 0 view .LVU34
 137 0000 024B     		ldr	r3, .L12
 138 0002 D868     		ldr	r0, [r3, #12]
 388:Drivers/STM32H7xx_HAL_Driver/Src/stm32h7xx_hal_pwr_ex.c **** }
 139              		.loc 1 388 1 view .LVU35
 140 0004 00F00700 		and	r0, r0, #7
 141 0008 7047     		bx	lr
 142              	.L13:
 143 000a 00BF     		.align	2
 144              	.L12:
 145 000c 00480258 		.word	1476544512
 146              		.cfi_endproc
 147              	.LFE145:
 149              		.section	.text.HAL_PWREx_ControlVoltageScaling,"ax",%progbits
 150              		.align	1
 151              		.p2align 2,,3
 152              		.global	HAL_PWREx_ControlVoltageScaling
 153              		.syntax unified
 154              		.thumb
 155              		.thumb_func
 156              		.fpu fpv5-d16
 158              	HAL_PWREx_ControlVoltageScaling:
 159              	.LVL10:
 160              	.LFB146:
 389:Drivers/STM32H7xx_HAL_Driver/Src/stm32h7xx_hal_pwr_ex.c **** 
 390:Drivers/STM32H7xx_HAL_Driver/Src/stm32h7xx_hal_pwr_ex.c **** /**
 391:Drivers/STM32H7xx_HAL_Driver/Src/stm32h7xx_hal_pwr_ex.c ****   * @brief Configure the main internal regulator output voltage.
 392:Drivers/STM32H7xx_HAL_Driver/Src/stm32h7xx_hal_pwr_ex.c ****   * @param  VoltageScaling : Specifies the regulator output voltage to achieve
 393:Drivers/STM32H7xx_HAL_Driver/Src/stm32h7xx_hal_pwr_ex.c ****   *                          a tradeoff between performance and power
 394:Drivers/STM32H7xx_HAL_Driver/Src/stm32h7xx_hal_pwr_ex.c ****   *                          consumption.
 395:Drivers/STM32H7xx_HAL_Driver/Src/stm32h7xx_hal_pwr_ex.c ****   *          This parameter can be one of the following values :
 396:Drivers/STM32H7xx_HAL_Driver/Src/stm32h7xx_hal_pwr_ex.c ****   *            @arg PWR_REGULATOR_VOLTAGE_SCALE0 : Regulator voltage output
 397:Drivers/STM32H7xx_HAL_Driver/Src/stm32h7xx_hal_pwr_ex.c ****   *                                                Scale 0 mode.
 398:Drivers/STM32H7xx_HAL_Driver/Src/stm32h7xx_hal_pwr_ex.c ****   *            @arg PWR_REGULATOR_VOLTAGE_SCALE1 : Regulator voltage output
ARM GAS  /tmp/cc68FHKf.s 			page 11


 399:Drivers/STM32H7xx_HAL_Driver/Src/stm32h7xx_hal_pwr_ex.c ****   *                                                range 1 mode.
 400:Drivers/STM32H7xx_HAL_Driver/Src/stm32h7xx_hal_pwr_ex.c ****   *            @arg PWR_REGULATOR_VOLTAGE_SCALE2 : Regulator voltage output
 401:Drivers/STM32H7xx_HAL_Driver/Src/stm32h7xx_hal_pwr_ex.c ****   *                                                range 2 mode.
 402:Drivers/STM32H7xx_HAL_Driver/Src/stm32h7xx_hal_pwr_ex.c ****   *            @arg PWR_REGULATOR_VOLTAGE_SCALE3 : Regulator voltage output
 403:Drivers/STM32H7xx_HAL_Driver/Src/stm32h7xx_hal_pwr_ex.c ****   *                                                range 3 mode.
 404:Drivers/STM32H7xx_HAL_Driver/Src/stm32h7xx_hal_pwr_ex.c ****   * @note   For STM32H74x and STM32H75x lines, configuring Voltage Scale 0 is
 405:Drivers/STM32H7xx_HAL_Driver/Src/stm32h7xx_hal_pwr_ex.c ****   *         only possible when Vcore is supplied from LDO (Low DropOut). The
 406:Drivers/STM32H7xx_HAL_Driver/Src/stm32h7xx_hal_pwr_ex.c ****   *         SYSCFG Clock must be enabled through __HAL_RCC_SYSCFG_CLK_ENABLE()
 407:Drivers/STM32H7xx_HAL_Driver/Src/stm32h7xx_hal_pwr_ex.c ****   *         macro before configuring Voltage Scale 0.
 408:Drivers/STM32H7xx_HAL_Driver/Src/stm32h7xx_hal_pwr_ex.c ****   *         To enter low power mode , and if current regulator voltage is
 409:Drivers/STM32H7xx_HAL_Driver/Src/stm32h7xx_hal_pwr_ex.c ****   *         Voltage Scale 0 then first switch to Voltage Scale 1 before entering
 410:Drivers/STM32H7xx_HAL_Driver/Src/stm32h7xx_hal_pwr_ex.c ****   *         low power mode.
 411:Drivers/STM32H7xx_HAL_Driver/Src/stm32h7xx_hal_pwr_ex.c ****   * @retval HAL Status
 412:Drivers/STM32H7xx_HAL_Driver/Src/stm32h7xx_hal_pwr_ex.c ****   */
 413:Drivers/STM32H7xx_HAL_Driver/Src/stm32h7xx_hal_pwr_ex.c **** HAL_StatusTypeDef HAL_PWREx_ControlVoltageScaling (uint32_t VoltageScaling)
 414:Drivers/STM32H7xx_HAL_Driver/Src/stm32h7xx_hal_pwr_ex.c **** {
 161              		.loc 1 414 1 is_stmt 1 view -0
 162              		.cfi_startproc
 163              		@ args = 0, pretend = 0, frame = 0
 164              		@ frame_needed = 0, uses_anonymous_args = 0
 415:Drivers/STM32H7xx_HAL_Driver/Src/stm32h7xx_hal_pwr_ex.c ****   uint32_t tickstart;
 165              		.loc 1 415 3 view .LVU37
 416:Drivers/STM32H7xx_HAL_Driver/Src/stm32h7xx_hal_pwr_ex.c **** 
 417:Drivers/STM32H7xx_HAL_Driver/Src/stm32h7xx_hal_pwr_ex.c ****   /* Check the parameters */
 418:Drivers/STM32H7xx_HAL_Driver/Src/stm32h7xx_hal_pwr_ex.c ****   assert_param (IS_PWR_REGULATOR_VOLTAGE (VoltageScaling));
 166              		.loc 1 418 3 view .LVU38
 419:Drivers/STM32H7xx_HAL_Driver/Src/stm32h7xx_hal_pwr_ex.c **** 
 420:Drivers/STM32H7xx_HAL_Driver/Src/stm32h7xx_hal_pwr_ex.c ****   /* Get the voltage scaling  */
 421:Drivers/STM32H7xx_HAL_Driver/Src/stm32h7xx_hal_pwr_ex.c ****   if ((PWR->CSR1 & PWR_CSR1_ACTVOS) == VoltageScaling)
 167              		.loc 1 421 3 view .LVU39
 414:Drivers/STM32H7xx_HAL_Driver/Src/stm32h7xx_hal_pwr_ex.c ****   uint32_t tickstart;
 168              		.loc 1 414 1 is_stmt 0 view .LVU40
 169 0000 70B5     		push	{r4, r5, r6, lr}
 170              	.LCFI1:
 171              		.cfi_def_cfa_offset 16
 172              		.cfi_offset 4, -16
 173              		.cfi_offset 5, -12
 174              		.cfi_offset 6, -8
 175              		.cfi_offset 14, -4
 176              		.loc 1 421 11 view .LVU41
 177 0002 2B4C     		ldr	r4, .L35
 178 0004 6368     		ldr	r3, [r4, #4]
 179              		.loc 1 421 18 view .LVU42
 180 0006 03F44043 		and	r3, r3, #49152
 181              		.loc 1 421 6 view .LVU43
 182 000a 8342     		cmp	r3, r0
 183 000c 1BD0     		beq	.L29
 422:Drivers/STM32H7xx_HAL_Driver/Src/stm32h7xx_hal_pwr_ex.c ****   {
 423:Drivers/STM32H7xx_HAL_Driver/Src/stm32h7xx_hal_pwr_ex.c ****     /* Old and new voltage scaling configuration match : nothing to do */
 424:Drivers/STM32H7xx_HAL_Driver/Src/stm32h7xx_hal_pwr_ex.c ****     return HAL_OK;
 425:Drivers/STM32H7xx_HAL_Driver/Src/stm32h7xx_hal_pwr_ex.c ****   }
 426:Drivers/STM32H7xx_HAL_Driver/Src/stm32h7xx_hal_pwr_ex.c **** 
 427:Drivers/STM32H7xx_HAL_Driver/Src/stm32h7xx_hal_pwr_ex.c **** #if defined (PWR_SRDCR_VOS)
 428:Drivers/STM32H7xx_HAL_Driver/Src/stm32h7xx_hal_pwr_ex.c ****   /* Set the voltage range */
 429:Drivers/STM32H7xx_HAL_Driver/Src/stm32h7xx_hal_pwr_ex.c ****   MODIFY_REG (PWR->SRDCR, PWR_SRDCR_VOS, VoltageScaling);
 430:Drivers/STM32H7xx_HAL_Driver/Src/stm32h7xx_hal_pwr_ex.c **** #else
 431:Drivers/STM32H7xx_HAL_Driver/Src/stm32h7xx_hal_pwr_ex.c **** #if defined(SYSCFG_PWRCR_ODEN) /* STM32H74xxx and STM32H75xxx lines */
ARM GAS  /tmp/cc68FHKf.s 			page 12


 432:Drivers/STM32H7xx_HAL_Driver/Src/stm32h7xx_hal_pwr_ex.c ****   if (VoltageScaling == PWR_REGULATOR_VOLTAGE_SCALE0)
 184              		.loc 1 432 3 is_stmt 1 view .LVU44
 185 000e 0546     		mov	r5, r0
 186              		.loc 1 432 6 is_stmt 0 view .LVU45
 187 0010 D8B1     		cbz	r0, .L34
 433:Drivers/STM32H7xx_HAL_Driver/Src/stm32h7xx_hal_pwr_ex.c ****   {
 434:Drivers/STM32H7xx_HAL_Driver/Src/stm32h7xx_hal_pwr_ex.c ****     if ((PWR->CR3 & PWR_CR3_LDOEN) == PWR_CR3_LDOEN)
 435:Drivers/STM32H7xx_HAL_Driver/Src/stm32h7xx_hal_pwr_ex.c ****     {
 436:Drivers/STM32H7xx_HAL_Driver/Src/stm32h7xx_hal_pwr_ex.c ****       /* Set the voltage range */
 437:Drivers/STM32H7xx_HAL_Driver/Src/stm32h7xx_hal_pwr_ex.c ****       MODIFY_REG (PWR->D3CR, PWR_D3CR_VOS, PWR_REGULATOR_VOLTAGE_SCALE1);
 438:Drivers/STM32H7xx_HAL_Driver/Src/stm32h7xx_hal_pwr_ex.c **** 
 439:Drivers/STM32H7xx_HAL_Driver/Src/stm32h7xx_hal_pwr_ex.c ****       /* Get tick */
 440:Drivers/STM32H7xx_HAL_Driver/Src/stm32h7xx_hal_pwr_ex.c ****       tickstart = HAL_GetTick ();
 441:Drivers/STM32H7xx_HAL_Driver/Src/stm32h7xx_hal_pwr_ex.c **** 
 442:Drivers/STM32H7xx_HAL_Driver/Src/stm32h7xx_hal_pwr_ex.c ****       /* Wait till voltage level flag is set */
 443:Drivers/STM32H7xx_HAL_Driver/Src/stm32h7xx_hal_pwr_ex.c ****       while (__HAL_PWR_GET_FLAG (PWR_FLAG_ACTVOSRDY) == 0U)
 444:Drivers/STM32H7xx_HAL_Driver/Src/stm32h7xx_hal_pwr_ex.c ****       {
 445:Drivers/STM32H7xx_HAL_Driver/Src/stm32h7xx_hal_pwr_ex.c ****         if ((HAL_GetTick () - tickstart) > PWR_FLAG_SETTING_DELAY)
 446:Drivers/STM32H7xx_HAL_Driver/Src/stm32h7xx_hal_pwr_ex.c ****         {
 447:Drivers/STM32H7xx_HAL_Driver/Src/stm32h7xx_hal_pwr_ex.c ****           return HAL_ERROR;
 448:Drivers/STM32H7xx_HAL_Driver/Src/stm32h7xx_hal_pwr_ex.c ****         }
 449:Drivers/STM32H7xx_HAL_Driver/Src/stm32h7xx_hal_pwr_ex.c ****       }
 450:Drivers/STM32H7xx_HAL_Driver/Src/stm32h7xx_hal_pwr_ex.c **** 
 451:Drivers/STM32H7xx_HAL_Driver/Src/stm32h7xx_hal_pwr_ex.c ****       /* Enable the PWR overdrive */
 452:Drivers/STM32H7xx_HAL_Driver/Src/stm32h7xx_hal_pwr_ex.c ****       SET_BIT (SYSCFG->PWRCR, SYSCFG_PWRCR_ODEN);
 453:Drivers/STM32H7xx_HAL_Driver/Src/stm32h7xx_hal_pwr_ex.c ****     }
 454:Drivers/STM32H7xx_HAL_Driver/Src/stm32h7xx_hal_pwr_ex.c ****     else
 455:Drivers/STM32H7xx_HAL_Driver/Src/stm32h7xx_hal_pwr_ex.c ****     {
 456:Drivers/STM32H7xx_HAL_Driver/Src/stm32h7xx_hal_pwr_ex.c ****       /* The voltage scale 0 is only possible when LDO regulator is enabled */
 457:Drivers/STM32H7xx_HAL_Driver/Src/stm32h7xx_hal_pwr_ex.c ****       return HAL_ERROR;
 458:Drivers/STM32H7xx_HAL_Driver/Src/stm32h7xx_hal_pwr_ex.c ****     }
 459:Drivers/STM32H7xx_HAL_Driver/Src/stm32h7xx_hal_pwr_ex.c ****   }
 460:Drivers/STM32H7xx_HAL_Driver/Src/stm32h7xx_hal_pwr_ex.c ****   else
 461:Drivers/STM32H7xx_HAL_Driver/Src/stm32h7xx_hal_pwr_ex.c ****   {
 462:Drivers/STM32H7xx_HAL_Driver/Src/stm32h7xx_hal_pwr_ex.c ****     if ((PWR->CSR1 & PWR_CSR1_ACTVOS) == PWR_REGULATOR_VOLTAGE_SCALE1)
 188              		.loc 1 462 5 is_stmt 1 view .LVU46
 189              		.loc 1 462 13 is_stmt 0 view .LVU47
 190 0012 6368     		ldr	r3, [r4, #4]
 191              		.loc 1 462 20 view .LVU48
 192 0014 03F44043 		and	r3, r3, #49152
 193              		.loc 1 462 8 view .LVU49
 194 0018 B3F5404F 		cmp	r3, #49152
 195 001c 31D0     		beq	.L23
 196              	.LVL11:
 197              	.L24:
 463:Drivers/STM32H7xx_HAL_Driver/Src/stm32h7xx_hal_pwr_ex.c ****     {
 464:Drivers/STM32H7xx_HAL_Driver/Src/stm32h7xx_hal_pwr_ex.c ****       if ((SYSCFG->PWRCR & SYSCFG_PWRCR_ODEN) != 0U)
 465:Drivers/STM32H7xx_HAL_Driver/Src/stm32h7xx_hal_pwr_ex.c ****       {
 466:Drivers/STM32H7xx_HAL_Driver/Src/stm32h7xx_hal_pwr_ex.c ****         /* Disable the PWR overdrive */
 467:Drivers/STM32H7xx_HAL_Driver/Src/stm32h7xx_hal_pwr_ex.c ****         CLEAR_BIT(SYSCFG->PWRCR, SYSCFG_PWRCR_ODEN);
 468:Drivers/STM32H7xx_HAL_Driver/Src/stm32h7xx_hal_pwr_ex.c **** 
 469:Drivers/STM32H7xx_HAL_Driver/Src/stm32h7xx_hal_pwr_ex.c ****         /* Get tick */
 470:Drivers/STM32H7xx_HAL_Driver/Src/stm32h7xx_hal_pwr_ex.c ****         tickstart = HAL_GetTick ();
 471:Drivers/STM32H7xx_HAL_Driver/Src/stm32h7xx_hal_pwr_ex.c **** 
 472:Drivers/STM32H7xx_HAL_Driver/Src/stm32h7xx_hal_pwr_ex.c ****         /* Wait till voltage level flag is set */
 473:Drivers/STM32H7xx_HAL_Driver/Src/stm32h7xx_hal_pwr_ex.c ****         while (__HAL_PWR_GET_FLAG (PWR_FLAG_ACTVOSRDY) == 0U)
 474:Drivers/STM32H7xx_HAL_Driver/Src/stm32h7xx_hal_pwr_ex.c ****         {
ARM GAS  /tmp/cc68FHKf.s 			page 13


 475:Drivers/STM32H7xx_HAL_Driver/Src/stm32h7xx_hal_pwr_ex.c ****           if ((HAL_GetTick () - tickstart) > PWR_FLAG_SETTING_DELAY)
 476:Drivers/STM32H7xx_HAL_Driver/Src/stm32h7xx_hal_pwr_ex.c ****           {
 477:Drivers/STM32H7xx_HAL_Driver/Src/stm32h7xx_hal_pwr_ex.c ****             return HAL_ERROR;
 478:Drivers/STM32H7xx_HAL_Driver/Src/stm32h7xx_hal_pwr_ex.c ****           }
 479:Drivers/STM32H7xx_HAL_Driver/Src/stm32h7xx_hal_pwr_ex.c ****         }
 480:Drivers/STM32H7xx_HAL_Driver/Src/stm32h7xx_hal_pwr_ex.c ****       }
 481:Drivers/STM32H7xx_HAL_Driver/Src/stm32h7xx_hal_pwr_ex.c ****     }
 482:Drivers/STM32H7xx_HAL_Driver/Src/stm32h7xx_hal_pwr_ex.c **** 
 483:Drivers/STM32H7xx_HAL_Driver/Src/stm32h7xx_hal_pwr_ex.c ****     /* Set the voltage range */
 484:Drivers/STM32H7xx_HAL_Driver/Src/stm32h7xx_hal_pwr_ex.c ****     MODIFY_REG (PWR->D3CR, PWR_D3CR_VOS, VoltageScaling);
 198              		.loc 1 484 5 is_stmt 1 view .LVU50
 199 001e 244B     		ldr	r3, .L35
 200 0020 9869     		ldr	r0, [r3, #24]
 201 0022 20F44040 		bic	r0, r0, #49152
 202 0026 0543     		orrs	r5, r5, r0
 203              	.LVL12:
 204              		.loc 1 484 5 is_stmt 0 view .LVU51
 205 0028 9D61     		str	r5, [r3, #24]
 206              	.L22:
 485:Drivers/STM32H7xx_HAL_Driver/Src/stm32h7xx_hal_pwr_ex.c ****   }
 486:Drivers/STM32H7xx_HAL_Driver/Src/stm32h7xx_hal_pwr_ex.c **** #else  /* STM32H72xxx and STM32H73xxx lines */
 487:Drivers/STM32H7xx_HAL_Driver/Src/stm32h7xx_hal_pwr_ex.c ****   /* Set the voltage range */
 488:Drivers/STM32H7xx_HAL_Driver/Src/stm32h7xx_hal_pwr_ex.c ****   MODIFY_REG(PWR->D3CR, PWR_D3CR_VOS, VoltageScaling);
 489:Drivers/STM32H7xx_HAL_Driver/Src/stm32h7xx_hal_pwr_ex.c **** #endif /* defined (SYSCFG_PWRCR_ODEN) */
 490:Drivers/STM32H7xx_HAL_Driver/Src/stm32h7xx_hal_pwr_ex.c **** #endif /* defined (PWR_SRDCR_VOS) */
 491:Drivers/STM32H7xx_HAL_Driver/Src/stm32h7xx_hal_pwr_ex.c **** 
 492:Drivers/STM32H7xx_HAL_Driver/Src/stm32h7xx_hal_pwr_ex.c ****   /* Get tick */
 493:Drivers/STM32H7xx_HAL_Driver/Src/stm32h7xx_hal_pwr_ex.c ****   tickstart = HAL_GetTick ();
 207              		.loc 1 493 3 is_stmt 1 view .LVU52
 208              		.loc 1 493 15 is_stmt 0 view .LVU53
 209 002a FFF7FEFF 		bl	HAL_GetTick
 210              	.LVL13:
 494:Drivers/STM32H7xx_HAL_Driver/Src/stm32h7xx_hal_pwr_ex.c **** 
 495:Drivers/STM32H7xx_HAL_Driver/Src/stm32h7xx_hal_pwr_ex.c ****   /* Wait till voltage level flag is set */
 496:Drivers/STM32H7xx_HAL_Driver/Src/stm32h7xx_hal_pwr_ex.c ****   while (__HAL_PWR_GET_FLAG (PWR_FLAG_ACTVOSRDY) == 0U)
 211              		.loc 1 496 10 view .LVU54
 212 002e 204D     		ldr	r5, .L35
 493:Drivers/STM32H7xx_HAL_Driver/Src/stm32h7xx_hal_pwr_ex.c **** 
 213              		.loc 1 493 15 view .LVU55
 214 0030 0446     		mov	r4, r0
 215              	.LVL14:
 216              		.loc 1 496 3 is_stmt 1 view .LVU56
 217              		.loc 1 496 9 is_stmt 0 view .LVU57
 218 0032 05E0     		b	.L27
 219              	.LVL15:
 220              	.L28:
 497:Drivers/STM32H7xx_HAL_Driver/Src/stm32h7xx_hal_pwr_ex.c ****   {
 498:Drivers/STM32H7xx_HAL_Driver/Src/stm32h7xx_hal_pwr_ex.c ****     if ((HAL_GetTick() - tickstart) > PWR_FLAG_SETTING_DELAY)
 221              		.loc 1 498 10 view .LVU58
 222 0034 FFF7FEFF 		bl	HAL_GetTick
 223              	.LVL16:
 224              		.loc 1 498 24 view .LVU59
 225 0038 001B     		subs	r0, r0, r4
 226              		.loc 1 498 8 view .LVU60
 227 003a B0F57A7F 		cmp	r0, #1000
 228 003e 07D8     		bhi	.L20
 229              	.L27:
ARM GAS  /tmp/cc68FHKf.s 			page 14


 230              		.loc 1 498 5 is_stmt 1 view .LVU61
 496:Drivers/STM32H7xx_HAL_Driver/Src/stm32h7xx_hal_pwr_ex.c ****   {
 231              		.loc 1 496 9 view .LVU62
 496:Drivers/STM32H7xx_HAL_Driver/Src/stm32h7xx_hal_pwr_ex.c ****   {
 232              		.loc 1 496 10 is_stmt 0 view .LVU63
 233 0040 6B68     		ldr	r3, [r5, #4]
 496:Drivers/STM32H7xx_HAL_Driver/Src/stm32h7xx_hal_pwr_ex.c ****   {
 234              		.loc 1 496 9 view .LVU64
 235 0042 9B04     		lsls	r3, r3, #18
 236 0044 F6D5     		bpl	.L28
 237              	.LVL17:
 238              	.L29:
 424:Drivers/STM32H7xx_HAL_Driver/Src/stm32h7xx_hal_pwr_ex.c ****   }
 239              		.loc 1 424 12 view .LVU65
 240 0046 0020     		movs	r0, #0
 499:Drivers/STM32H7xx_HAL_Driver/Src/stm32h7xx_hal_pwr_ex.c ****     {
 500:Drivers/STM32H7xx_HAL_Driver/Src/stm32h7xx_hal_pwr_ex.c ****       return HAL_ERROR;
 501:Drivers/STM32H7xx_HAL_Driver/Src/stm32h7xx_hal_pwr_ex.c ****     }
 502:Drivers/STM32H7xx_HAL_Driver/Src/stm32h7xx_hal_pwr_ex.c ****   }
 503:Drivers/STM32H7xx_HAL_Driver/Src/stm32h7xx_hal_pwr_ex.c **** 
 504:Drivers/STM32H7xx_HAL_Driver/Src/stm32h7xx_hal_pwr_ex.c ****   return HAL_OK;
 505:Drivers/STM32H7xx_HAL_Driver/Src/stm32h7xx_hal_pwr_ex.c **** }
 241              		.loc 1 505 1 view .LVU66
 242 0048 70BD     		pop	{r4, r5, r6, pc}
 243              	.LVL18:
 244              	.L34:
 434:Drivers/STM32H7xx_HAL_Driver/Src/stm32h7xx_hal_pwr_ex.c ****     {
 245              		.loc 1 434 5 is_stmt 1 view .LVU67
 434:Drivers/STM32H7xx_HAL_Driver/Src/stm32h7xx_hal_pwr_ex.c ****     {
 246              		.loc 1 434 13 is_stmt 0 view .LVU68
 247 004a E368     		ldr	r3, [r4, #12]
 434:Drivers/STM32H7xx_HAL_Driver/Src/stm32h7xx_hal_pwr_ex.c ****     {
 248              		.loc 1 434 8 view .LVU69
 249 004c 9D07     		lsls	r5, r3, #30
 250 004e 01D4     		bmi	.L18
 251              	.LVL19:
 252              	.L20:
 457:Drivers/STM32H7xx_HAL_Driver/Src/stm32h7xx_hal_pwr_ex.c ****     }
 253              		.loc 1 457 14 view .LVU70
 254 0050 0120     		movs	r0, #1
 255              		.loc 1 505 1 view .LVU71
 256 0052 70BD     		pop	{r4, r5, r6, pc}
 257              	.LVL20:
 258              	.L18:
 437:Drivers/STM32H7xx_HAL_Driver/Src/stm32h7xx_hal_pwr_ex.c **** 
 259              		.loc 1 437 7 is_stmt 1 view .LVU72
 260 0054 A369     		ldr	r3, [r4, #24]
 261 0056 43F44043 		orr	r3, r3, #49152
 262 005a A361     		str	r3, [r4, #24]
 440:Drivers/STM32H7xx_HAL_Driver/Src/stm32h7xx_hal_pwr_ex.c **** 
 263              		.loc 1 440 7 view .LVU73
 440:Drivers/STM32H7xx_HAL_Driver/Src/stm32h7xx_hal_pwr_ex.c **** 
 264              		.loc 1 440 19 is_stmt 0 view .LVU74
 265 005c FFF7FEFF 		bl	HAL_GetTick
 266              	.LVL21:
 440:Drivers/STM32H7xx_HAL_Driver/Src/stm32h7xx_hal_pwr_ex.c **** 
 267              		.loc 1 440 19 view .LVU75
ARM GAS  /tmp/cc68FHKf.s 			page 15


 268 0060 0546     		mov	r5, r0
 269              	.LVL22:
 443:Drivers/STM32H7xx_HAL_Driver/Src/stm32h7xx_hal_pwr_ex.c ****       {
 270              		.loc 1 443 7 is_stmt 1 view .LVU76
 443:Drivers/STM32H7xx_HAL_Driver/Src/stm32h7xx_hal_pwr_ex.c ****       {
 271              		.loc 1 443 13 is_stmt 0 view .LVU77
 272 0062 05E0     		b	.L19
 273              	.LVL23:
 274              	.L21:
 445:Drivers/STM32H7xx_HAL_Driver/Src/stm32h7xx_hal_pwr_ex.c ****         {
 275              		.loc 1 445 14 view .LVU78
 276 0064 FFF7FEFF 		bl	HAL_GetTick
 277              	.LVL24:
 445:Drivers/STM32H7xx_HAL_Driver/Src/stm32h7xx_hal_pwr_ex.c ****         {
 278              		.loc 1 445 29 view .LVU79
 279 0068 401B     		subs	r0, r0, r5
 445:Drivers/STM32H7xx_HAL_Driver/Src/stm32h7xx_hal_pwr_ex.c ****         {
 280              		.loc 1 445 12 view .LVU80
 281 006a B0F57A7F 		cmp	r0, #1000
 282 006e EFD8     		bhi	.L20
 283              	.L19:
 445:Drivers/STM32H7xx_HAL_Driver/Src/stm32h7xx_hal_pwr_ex.c ****         {
 284              		.loc 1 445 9 is_stmt 1 view .LVU81
 443:Drivers/STM32H7xx_HAL_Driver/Src/stm32h7xx_hal_pwr_ex.c ****       {
 285              		.loc 1 443 13 view .LVU82
 443:Drivers/STM32H7xx_HAL_Driver/Src/stm32h7xx_hal_pwr_ex.c ****       {
 286              		.loc 1 443 14 is_stmt 0 view .LVU83
 287 0070 6368     		ldr	r3, [r4, #4]
 443:Drivers/STM32H7xx_HAL_Driver/Src/stm32h7xx_hal_pwr_ex.c ****       {
 288              		.loc 1 443 13 view .LVU84
 289 0072 9804     		lsls	r0, r3, #18
 290 0074 F6D5     		bpl	.L21
 452:Drivers/STM32H7xx_HAL_Driver/Src/stm32h7xx_hal_pwr_ex.c ****     }
 291              		.loc 1 452 7 is_stmt 1 view .LVU85
 292 0076 0F4A     		ldr	r2, .L35+4
 293 0078 D36A     		ldr	r3, [r2, #44]
 294 007a 43F00103 		orr	r3, r3, #1
 295 007e D362     		str	r3, [r2, #44]
 296 0080 D3E7     		b	.L22
 297              	.LVL25:
 298              	.L23:
 464:Drivers/STM32H7xx_HAL_Driver/Src/stm32h7xx_hal_pwr_ex.c ****       {
 299              		.loc 1 464 7 view .LVU86
 464:Drivers/STM32H7xx_HAL_Driver/Src/stm32h7xx_hal_pwr_ex.c ****       {
 300              		.loc 1 464 18 is_stmt 0 view .LVU87
 301 0082 0C4B     		ldr	r3, .L35+4
 302 0084 DA6A     		ldr	r2, [r3, #44]
 464:Drivers/STM32H7xx_HAL_Driver/Src/stm32h7xx_hal_pwr_ex.c ****       {
 303              		.loc 1 464 10 view .LVU88
 304 0086 D107     		lsls	r1, r2, #31
 305 0088 C9D5     		bpl	.L24
 467:Drivers/STM32H7xx_HAL_Driver/Src/stm32h7xx_hal_pwr_ex.c **** 
 306              		.loc 1 467 9 is_stmt 1 view .LVU89
 307 008a DA6A     		ldr	r2, [r3, #44]
 308 008c 22F00102 		bic	r2, r2, #1
 309 0090 DA62     		str	r2, [r3, #44]
 470:Drivers/STM32H7xx_HAL_Driver/Src/stm32h7xx_hal_pwr_ex.c **** 
ARM GAS  /tmp/cc68FHKf.s 			page 16


 310              		.loc 1 470 9 view .LVU90
 470:Drivers/STM32H7xx_HAL_Driver/Src/stm32h7xx_hal_pwr_ex.c **** 
 311              		.loc 1 470 21 is_stmt 0 view .LVU91
 312 0092 FFF7FEFF 		bl	HAL_GetTick
 313              	.LVL26:
 470:Drivers/STM32H7xx_HAL_Driver/Src/stm32h7xx_hal_pwr_ex.c **** 
 314              		.loc 1 470 21 view .LVU92
 315 0096 0646     		mov	r6, r0
 316              	.LVL27:
 473:Drivers/STM32H7xx_HAL_Driver/Src/stm32h7xx_hal_pwr_ex.c ****         {
 317              		.loc 1 473 9 is_stmt 1 view .LVU93
 473:Drivers/STM32H7xx_HAL_Driver/Src/stm32h7xx_hal_pwr_ex.c ****         {
 318              		.loc 1 473 15 is_stmt 0 view .LVU94
 319 0098 05E0     		b	.L25
 320              	.LVL28:
 321              	.L26:
 475:Drivers/STM32H7xx_HAL_Driver/Src/stm32h7xx_hal_pwr_ex.c ****           {
 322              		.loc 1 475 16 view .LVU95
 323 009a FFF7FEFF 		bl	HAL_GetTick
 324              	.LVL29:
 475:Drivers/STM32H7xx_HAL_Driver/Src/stm32h7xx_hal_pwr_ex.c ****           {
 325              		.loc 1 475 31 view .LVU96
 326 009e 801B     		subs	r0, r0, r6
 475:Drivers/STM32H7xx_HAL_Driver/Src/stm32h7xx_hal_pwr_ex.c ****           {
 327              		.loc 1 475 14 view .LVU97
 328 00a0 B0F57A7F 		cmp	r0, #1000
 329 00a4 D4D8     		bhi	.L20
 330              	.L25:
 475:Drivers/STM32H7xx_HAL_Driver/Src/stm32h7xx_hal_pwr_ex.c ****           {
 331              		.loc 1 475 11 is_stmt 1 view .LVU98
 473:Drivers/STM32H7xx_HAL_Driver/Src/stm32h7xx_hal_pwr_ex.c ****         {
 332              		.loc 1 473 15 view .LVU99
 473:Drivers/STM32H7xx_HAL_Driver/Src/stm32h7xx_hal_pwr_ex.c ****         {
 333              		.loc 1 473 16 is_stmt 0 view .LVU100
 334 00a6 6368     		ldr	r3, [r4, #4]
 473:Drivers/STM32H7xx_HAL_Driver/Src/stm32h7xx_hal_pwr_ex.c ****         {
 335              		.loc 1 473 15 view .LVU101
 336 00a8 9A04     		lsls	r2, r3, #18
 337 00aa F6D5     		bpl	.L26
 338 00ac B7E7     		b	.L24
 339              	.L36:
 340 00ae 00BF     		.align	2
 341              	.L35:
 342 00b0 00480258 		.word	1476544512
 343 00b4 00040058 		.word	1476396032
 344              		.cfi_endproc
 345              	.LFE146:
 347              		.section	.text.HAL_PWREx_GetVoltageRange,"ax",%progbits
 348              		.align	1
 349              		.p2align 2,,3
 350              		.global	HAL_PWREx_GetVoltageRange
 351              		.syntax unified
 352              		.thumb
 353              		.thumb_func
 354              		.fpu fpv5-d16
 356              	HAL_PWREx_GetVoltageRange:
 357              	.LFB147:
ARM GAS  /tmp/cc68FHKf.s 			page 17


 506:Drivers/STM32H7xx_HAL_Driver/Src/stm32h7xx_hal_pwr_ex.c **** 
 507:Drivers/STM32H7xx_HAL_Driver/Src/stm32h7xx_hal_pwr_ex.c **** /**
 508:Drivers/STM32H7xx_HAL_Driver/Src/stm32h7xx_hal_pwr_ex.c ****   * @brief Get the main internal regulator output voltage. Reflecting the last
 509:Drivers/STM32H7xx_HAL_Driver/Src/stm32h7xx_hal_pwr_ex.c ****   *        VOS value applied to the PMU.
 510:Drivers/STM32H7xx_HAL_Driver/Src/stm32h7xx_hal_pwr_ex.c ****   * @retval The current applied VOS selection.
 511:Drivers/STM32H7xx_HAL_Driver/Src/stm32h7xx_hal_pwr_ex.c ****   */
 512:Drivers/STM32H7xx_HAL_Driver/Src/stm32h7xx_hal_pwr_ex.c **** uint32_t HAL_PWREx_GetVoltageRange (void)
 513:Drivers/STM32H7xx_HAL_Driver/Src/stm32h7xx_hal_pwr_ex.c **** {
 358              		.loc 1 513 1 is_stmt 1 view -0
 359              		.cfi_startproc
 360              		@ args = 0, pretend = 0, frame = 0
 361              		@ frame_needed = 0, uses_anonymous_args = 0
 362              		@ link register save eliminated.
 514:Drivers/STM32H7xx_HAL_Driver/Src/stm32h7xx_hal_pwr_ex.c ****   /* Get the active voltage scaling */
 515:Drivers/STM32H7xx_HAL_Driver/Src/stm32h7xx_hal_pwr_ex.c ****   return (PWR->CSR1 & PWR_CSR1_ACTVOS);
 363              		.loc 1 515 3 view .LVU103
 364              		.loc 1 515 14 is_stmt 0 view .LVU104
 365 0000 024B     		ldr	r3, .L38
 366 0002 5868     		ldr	r0, [r3, #4]
 516:Drivers/STM32H7xx_HAL_Driver/Src/stm32h7xx_hal_pwr_ex.c **** }
 367              		.loc 1 516 1 view .LVU105
 368 0004 00F44040 		and	r0, r0, #49152
 369 0008 7047     		bx	lr
 370              	.L39:
 371 000a 00BF     		.align	2
 372              	.L38:
 373 000c 00480258 		.word	1476544512
 374              		.cfi_endproc
 375              	.LFE147:
 377              		.section	.text.HAL_PWREx_ControlStopModeVoltageScaling,"ax",%progbits
 378              		.align	1
 379              		.p2align 2,,3
 380              		.global	HAL_PWREx_ControlStopModeVoltageScaling
 381              		.syntax unified
 382              		.thumb
 383              		.thumb_func
 384              		.fpu fpv5-d16
 386              	HAL_PWREx_ControlStopModeVoltageScaling:
 387              	.LVL30:
 388              	.LFB148:
 517:Drivers/STM32H7xx_HAL_Driver/Src/stm32h7xx_hal_pwr_ex.c **** 
 518:Drivers/STM32H7xx_HAL_Driver/Src/stm32h7xx_hal_pwr_ex.c **** /**
 519:Drivers/STM32H7xx_HAL_Driver/Src/stm32h7xx_hal_pwr_ex.c ****   * @brief Configure the main internal regulator output voltage in STOP mode.
 520:Drivers/STM32H7xx_HAL_Driver/Src/stm32h7xx_hal_pwr_ex.c ****   * @param  VoltageScaling : Specifies the regulator output voltage when the
 521:Drivers/STM32H7xx_HAL_Driver/Src/stm32h7xx_hal_pwr_ex.c ****   *         system enters Stop mode to achieve a tradeoff between performance
 522:Drivers/STM32H7xx_HAL_Driver/Src/stm32h7xx_hal_pwr_ex.c ****   *         and power consumption.
 523:Drivers/STM32H7xx_HAL_Driver/Src/stm32h7xx_hal_pwr_ex.c ****   *          This parameter can be one of the following values:
 524:Drivers/STM32H7xx_HAL_Driver/Src/stm32h7xx_hal_pwr_ex.c ****   *            @arg PWR_REGULATOR_SVOS_SCALE3 : Regulator voltage output range
 525:Drivers/STM32H7xx_HAL_Driver/Src/stm32h7xx_hal_pwr_ex.c ****   *                                             3 mode.
 526:Drivers/STM32H7xx_HAL_Driver/Src/stm32h7xx_hal_pwr_ex.c ****   *            @arg PWR_REGULATOR_SVOS_SCALE4 : Regulator voltage output range
 527:Drivers/STM32H7xx_HAL_Driver/Src/stm32h7xx_hal_pwr_ex.c ****   *                                             4 mode.
 528:Drivers/STM32H7xx_HAL_Driver/Src/stm32h7xx_hal_pwr_ex.c ****   *            @arg PWR_REGULATOR_SVOS_SCALE5 : Regulator voltage output range
 529:Drivers/STM32H7xx_HAL_Driver/Src/stm32h7xx_hal_pwr_ex.c ****   *                                             5 mode.
 530:Drivers/STM32H7xx_HAL_Driver/Src/stm32h7xx_hal_pwr_ex.c ****   * @note   The Stop mode voltage scaling for SVOS4 and SVOS5 sets the voltage
 531:Drivers/STM32H7xx_HAL_Driver/Src/stm32h7xx_hal_pwr_ex.c ****   *         regulator in Low-power (LP) mode to further reduce power consumption.
 532:Drivers/STM32H7xx_HAL_Driver/Src/stm32h7xx_hal_pwr_ex.c ****   *         When preselecting SVOS3, the use of the voltage regulator low-power
 533:Drivers/STM32H7xx_HAL_Driver/Src/stm32h7xx_hal_pwr_ex.c ****   *         mode (LP) can be selected by LPDS register bit.
ARM GAS  /tmp/cc68FHKf.s 			page 18


 534:Drivers/STM32H7xx_HAL_Driver/Src/stm32h7xx_hal_pwr_ex.c ****   * @note   The selected SVOS4 and SVOS5 levels add an additional startup delay
 535:Drivers/STM32H7xx_HAL_Driver/Src/stm32h7xx_hal_pwr_ex.c ****   *         when exiting from system Stop mode.
 536:Drivers/STM32H7xx_HAL_Driver/Src/stm32h7xx_hal_pwr_ex.c ****   * @retval HAL Status.
 537:Drivers/STM32H7xx_HAL_Driver/Src/stm32h7xx_hal_pwr_ex.c ****   */
 538:Drivers/STM32H7xx_HAL_Driver/Src/stm32h7xx_hal_pwr_ex.c **** HAL_StatusTypeDef HAL_PWREx_ControlStopModeVoltageScaling (uint32_t VoltageScaling)
 539:Drivers/STM32H7xx_HAL_Driver/Src/stm32h7xx_hal_pwr_ex.c **** {
 389              		.loc 1 539 1 is_stmt 1 view -0
 390              		.cfi_startproc
 391              		@ args = 0, pretend = 0, frame = 0
 392              		@ frame_needed = 0, uses_anonymous_args = 0
 393              		@ link register save eliminated.
 540:Drivers/STM32H7xx_HAL_Driver/Src/stm32h7xx_hal_pwr_ex.c ****   /* Check the parameters */
 541:Drivers/STM32H7xx_HAL_Driver/Src/stm32h7xx_hal_pwr_ex.c ****   assert_param (IS_PWR_STOP_MODE_REGULATOR_VOLTAGE (VoltageScaling));
 394              		.loc 1 541 3 view .LVU107
 542:Drivers/STM32H7xx_HAL_Driver/Src/stm32h7xx_hal_pwr_ex.c **** 
 543:Drivers/STM32H7xx_HAL_Driver/Src/stm32h7xx_hal_pwr_ex.c ****   /* Return the stop mode voltage range */
 544:Drivers/STM32H7xx_HAL_Driver/Src/stm32h7xx_hal_pwr_ex.c ****   MODIFY_REG (PWR->CR1, PWR_CR1_SVOS, VoltageScaling);
 395              		.loc 1 544 3 view .LVU108
 396 0000 0449     		ldr	r1, .L41
 539:Drivers/STM32H7xx_HAL_Driver/Src/stm32h7xx_hal_pwr_ex.c ****   /* Check the parameters */
 397              		.loc 1 539 1 is_stmt 0 view .LVU109
 398 0002 0346     		mov	r3, r0
 545:Drivers/STM32H7xx_HAL_Driver/Src/stm32h7xx_hal_pwr_ex.c **** 
 546:Drivers/STM32H7xx_HAL_Driver/Src/stm32h7xx_hal_pwr_ex.c ****   return HAL_OK;
 547:Drivers/STM32H7xx_HAL_Driver/Src/stm32h7xx_hal_pwr_ex.c **** }
 399              		.loc 1 547 1 view .LVU110
 400 0004 0020     		movs	r0, #0
 401              	.LVL31:
 544:Drivers/STM32H7xx_HAL_Driver/Src/stm32h7xx_hal_pwr_ex.c **** 
 402              		.loc 1 544 3 view .LVU111
 403 0006 0A68     		ldr	r2, [r1]
 404 0008 22F44042 		bic	r2, r2, #49152
 405 000c 1343     		orrs	r3, r3, r2
 406              	.LVL32:
 544:Drivers/STM32H7xx_HAL_Driver/Src/stm32h7xx_hal_pwr_ex.c **** 
 407              		.loc 1 544 3 view .LVU112
 408 000e 0B60     		str	r3, [r1]
 546:Drivers/STM32H7xx_HAL_Driver/Src/stm32h7xx_hal_pwr_ex.c **** }
 409              		.loc 1 546 3 is_stmt 1 view .LVU113
 410              		.loc 1 547 1 is_stmt 0 view .LVU114
 411 0010 7047     		bx	lr
 412              	.L42:
 413 0012 00BF     		.align	2
 414              	.L41:
 415 0014 00480258 		.word	1476544512
 416              		.cfi_endproc
 417              	.LFE148:
 419              		.section	.text.HAL_PWREx_GetStopModeVoltageRange,"ax",%progbits
 420              		.align	1
 421              		.p2align 2,,3
 422              		.global	HAL_PWREx_GetStopModeVoltageRange
 423              		.syntax unified
 424              		.thumb
 425              		.thumb_func
 426              		.fpu fpv5-d16
 428              	HAL_PWREx_GetStopModeVoltageRange:
 429              	.LFB149:
ARM GAS  /tmp/cc68FHKf.s 			page 19


 548:Drivers/STM32H7xx_HAL_Driver/Src/stm32h7xx_hal_pwr_ex.c **** 
 549:Drivers/STM32H7xx_HAL_Driver/Src/stm32h7xx_hal_pwr_ex.c **** /**
 550:Drivers/STM32H7xx_HAL_Driver/Src/stm32h7xx_hal_pwr_ex.c ****   * @brief Get the main internal regulator output voltage in STOP mode.
 551:Drivers/STM32H7xx_HAL_Driver/Src/stm32h7xx_hal_pwr_ex.c ****   * @retval The actual applied VOS selection.
 552:Drivers/STM32H7xx_HAL_Driver/Src/stm32h7xx_hal_pwr_ex.c ****   */
 553:Drivers/STM32H7xx_HAL_Driver/Src/stm32h7xx_hal_pwr_ex.c **** uint32_t HAL_PWREx_GetStopModeVoltageRange (void)
 554:Drivers/STM32H7xx_HAL_Driver/Src/stm32h7xx_hal_pwr_ex.c **** {
 430              		.loc 1 554 1 is_stmt 1 view -0
 431              		.cfi_startproc
 432              		@ args = 0, pretend = 0, frame = 0
 433              		@ frame_needed = 0, uses_anonymous_args = 0
 434              		@ link register save eliminated.
 555:Drivers/STM32H7xx_HAL_Driver/Src/stm32h7xx_hal_pwr_ex.c ****   /* Return the stop voltage scaling */
 556:Drivers/STM32H7xx_HAL_Driver/Src/stm32h7xx_hal_pwr_ex.c ****   return (PWR->CR1 & PWR_CR1_SVOS);
 435              		.loc 1 556 3 view .LVU116
 436              		.loc 1 556 14 is_stmt 0 view .LVU117
 437 0000 024B     		ldr	r3, .L44
 438 0002 1868     		ldr	r0, [r3]
 557:Drivers/STM32H7xx_HAL_Driver/Src/stm32h7xx_hal_pwr_ex.c **** }
 439              		.loc 1 557 1 view .LVU118
 440 0004 00F44040 		and	r0, r0, #49152
 441 0008 7047     		bx	lr
 442              	.L45:
 443 000a 00BF     		.align	2
 444              	.L44:
 445 000c 00480258 		.word	1476544512
 446              		.cfi_endproc
 447              	.LFE149:
 449              		.section	.text.HAL_PWREx_EnterSTOPMode,"ax",%progbits
 450              		.align	1
 451              		.p2align 2,,3
 452              		.global	HAL_PWREx_EnterSTOPMode
 453              		.syntax unified
 454              		.thumb
 455              		.thumb_func
 456              		.fpu fpv5-d16
 458              	HAL_PWREx_EnterSTOPMode:
 459              	.LVL33:
 460              	.LFB150:
 558:Drivers/STM32H7xx_HAL_Driver/Src/stm32h7xx_hal_pwr_ex.c **** /**
 559:Drivers/STM32H7xx_HAL_Driver/Src/stm32h7xx_hal_pwr_ex.c ****   * @}
 560:Drivers/STM32H7xx_HAL_Driver/Src/stm32h7xx_hal_pwr_ex.c ****   */
 561:Drivers/STM32H7xx_HAL_Driver/Src/stm32h7xx_hal_pwr_ex.c **** 
 562:Drivers/STM32H7xx_HAL_Driver/Src/stm32h7xx_hal_pwr_ex.c **** /** @defgroup PWREx_Exported_Functions_Group2 Low Power Control Functions
 563:Drivers/STM32H7xx_HAL_Driver/Src/stm32h7xx_hal_pwr_ex.c ****   * @brief    Low power control functions
 564:Drivers/STM32H7xx_HAL_Driver/Src/stm32h7xx_hal_pwr_ex.c ****   *
 565:Drivers/STM32H7xx_HAL_Driver/Src/stm32h7xx_hal_pwr_ex.c **** @verbatim
 566:Drivers/STM32H7xx_HAL_Driver/Src/stm32h7xx_hal_pwr_ex.c ****  ===============================================================================
 567:Drivers/STM32H7xx_HAL_Driver/Src/stm32h7xx_hal_pwr_ex.c ****                      ##### Low power control functions #####
 568:Drivers/STM32H7xx_HAL_Driver/Src/stm32h7xx_hal_pwr_ex.c ****  ===============================================================================
 569:Drivers/STM32H7xx_HAL_Driver/Src/stm32h7xx_hal_pwr_ex.c **** 
 570:Drivers/STM32H7xx_HAL_Driver/Src/stm32h7xx_hal_pwr_ex.c ****     *** Domains Low Power modes configuration ***
 571:Drivers/STM32H7xx_HAL_Driver/Src/stm32h7xx_hal_pwr_ex.c ****     =============================================
 572:Drivers/STM32H7xx_HAL_Driver/Src/stm32h7xx_hal_pwr_ex.c ****     [..]
 573:Drivers/STM32H7xx_HAL_Driver/Src/stm32h7xx_hal_pwr_ex.c ****       This section provides the extended low power mode control APIs.
 574:Drivers/STM32H7xx_HAL_Driver/Src/stm32h7xx_hal_pwr_ex.c ****       The system presents 3 principles domains (D1, D2 and D3) that can be
 575:Drivers/STM32H7xx_HAL_Driver/Src/stm32h7xx_hal_pwr_ex.c ****       operated in low-power modes (DSTOP or DSTANDBY mode):
ARM GAS  /tmp/cc68FHKf.s 			page 20


 576:Drivers/STM32H7xx_HAL_Driver/Src/stm32h7xx_hal_pwr_ex.c **** 
 577:Drivers/STM32H7xx_HAL_Driver/Src/stm32h7xx_hal_pwr_ex.c ****       (+) DSTOP mode to enters a domain to STOP mode:
 578:Drivers/STM32H7xx_HAL_Driver/Src/stm32h7xx_hal_pwr_ex.c ****        (++) D1 domain and/or D2 domain enters DSTOP mode only when the CPU
 579:Drivers/STM32H7xx_HAL_Driver/Src/stm32h7xx_hal_pwr_ex.c ****             subsystem is in CSTOP mode and has allocated peripheral in the
 580:Drivers/STM32H7xx_HAL_Driver/Src/stm32h7xx_hal_pwr_ex.c ****             domain.
 581:Drivers/STM32H7xx_HAL_Driver/Src/stm32h7xx_hal_pwr_ex.c ****             In DSTOP mode the domain bus matrix clock is stopped.
 582:Drivers/STM32H7xx_HAL_Driver/Src/stm32h7xx_hal_pwr_ex.c ****        (++) The system enters STOP mode using one of the following scenarios:
 583:Drivers/STM32H7xx_HAL_Driver/Src/stm32h7xx_hal_pwr_ex.c ****         (+++) D1 domain enters DSTANDBY mode (powered off) and D2, D3 domains
 584:Drivers/STM32H7xx_HAL_Driver/Src/stm32h7xx_hal_pwr_ex.c ****               enter DSTOP mode.
 585:Drivers/STM32H7xx_HAL_Driver/Src/stm32h7xx_hal_pwr_ex.c ****         (+++) D2 domain enters DSTANDBY mode (powered off) and D1, D3 domains
 586:Drivers/STM32H7xx_HAL_Driver/Src/stm32h7xx_hal_pwr_ex.c ****               enter DSTOP mode.
 587:Drivers/STM32H7xx_HAL_Driver/Src/stm32h7xx_hal_pwr_ex.c ****         (+++) D3 domain enters DSTANDBY mode (powered off) and D1, D2 domains
 588:Drivers/STM32H7xx_HAL_Driver/Src/stm32h7xx_hal_pwr_ex.c ****               enter DSTOP mode.
 589:Drivers/STM32H7xx_HAL_Driver/Src/stm32h7xx_hal_pwr_ex.c ****         (+++) D1 and D2 domains enter DSTANDBY mode (powered off) and D3 domain
 590:Drivers/STM32H7xx_HAL_Driver/Src/stm32h7xx_hal_pwr_ex.c ****               enters DSTOP mode.
 591:Drivers/STM32H7xx_HAL_Driver/Src/stm32h7xx_hal_pwr_ex.c ****         (+++) D1 and D3 domains enter DSTANDBY mode (powered off) and D2 domain
 592:Drivers/STM32H7xx_HAL_Driver/Src/stm32h7xx_hal_pwr_ex.c ****               enters DSTOP mode.
 593:Drivers/STM32H7xx_HAL_Driver/Src/stm32h7xx_hal_pwr_ex.c ****         (+++) D2 and D3 domains enter DSTANDBY mode (powered off) and D1 domain
 594:Drivers/STM32H7xx_HAL_Driver/Src/stm32h7xx_hal_pwr_ex.c ****               enters DSTOP mode.
 595:Drivers/STM32H7xx_HAL_Driver/Src/stm32h7xx_hal_pwr_ex.c ****         (+++) D1, D2 and D3 domains enter DSTOP mode.
 596:Drivers/STM32H7xx_HAL_Driver/Src/stm32h7xx_hal_pwr_ex.c ****        (++) When the system enters STOP mode, the clocks are stopped and the
 597:Drivers/STM32H7xx_HAL_Driver/Src/stm32h7xx_hal_pwr_ex.c ****             regulator is running in main or low power mode.
 598:Drivers/STM32H7xx_HAL_Driver/Src/stm32h7xx_hal_pwr_ex.c ****        (++) D3 domain can be kept in Run mode regardless of the CPU status when
 599:Drivers/STM32H7xx_HAL_Driver/Src/stm32h7xx_hal_pwr_ex.c ****             enter STOP mode by using HAL_PWREx_ConfigD3Domain(D3State) function.
 600:Drivers/STM32H7xx_HAL_Driver/Src/stm32h7xx_hal_pwr_ex.c **** 
 601:Drivers/STM32H7xx_HAL_Driver/Src/stm32h7xx_hal_pwr_ex.c ****       (+) DSTANDBY mode to enters a domain to STANDBY mode:
 602:Drivers/STM32H7xx_HAL_Driver/Src/stm32h7xx_hal_pwr_ex.c ****        (++) The DSTANDBY mode is entered when the PDDS_Dn bit in PWR CPU control
 603:Drivers/STM32H7xx_HAL_Driver/Src/stm32h7xx_hal_pwr_ex.c ****             register (PWR_CPUCR) for the Dn domain selects Standby mode.
 604:Drivers/STM32H7xx_HAL_Driver/Src/stm32h7xx_hal_pwr_ex.c ****        (++) The system enters STANDBY mode only when D1, D2 and D3 domains enter
 605:Drivers/STM32H7xx_HAL_Driver/Src/stm32h7xx_hal_pwr_ex.c ****             DSTANDBY mode. Consequently the VCORE supply regulator is powered
 606:Drivers/STM32H7xx_HAL_Driver/Src/stm32h7xx_hal_pwr_ex.c ****             off.
 607:Drivers/STM32H7xx_HAL_Driver/Src/stm32h7xx_hal_pwr_ex.c **** 
 608:Drivers/STM32H7xx_HAL_Driver/Src/stm32h7xx_hal_pwr_ex.c ****    *** DSTOP mode ***
 609:Drivers/STM32H7xx_HAL_Driver/Src/stm32h7xx_hal_pwr_ex.c ****    ==================
 610:Drivers/STM32H7xx_HAL_Driver/Src/stm32h7xx_hal_pwr_ex.c ****     [..]
 611:Drivers/STM32H7xx_HAL_Driver/Src/stm32h7xx_hal_pwr_ex.c ****       In DStop mode the domain bus matrix clock is stopped.
 612:Drivers/STM32H7xx_HAL_Driver/Src/stm32h7xx_hal_pwr_ex.c ****       The Flash memory can enter low-power Stop mode when it is enabled through
 613:Drivers/STM32H7xx_HAL_Driver/Src/stm32h7xx_hal_pwr_ex.c ****       FLPS in PWR_CR1 register. This allows a trade-off between domain DStop
 614:Drivers/STM32H7xx_HAL_Driver/Src/stm32h7xx_hal_pwr_ex.c ****       restart time and low power consumption.
 615:Drivers/STM32H7xx_HAL_Driver/Src/stm32h7xx_hal_pwr_ex.c ****     [..]
 616:Drivers/STM32H7xx_HAL_Driver/Src/stm32h7xx_hal_pwr_ex.c ****       In DStop mode domain peripherals using the LSI or LSE clock and
 617:Drivers/STM32H7xx_HAL_Driver/Src/stm32h7xx_hal_pwr_ex.c ****       peripherals having a kernel clock request are still able to operate.
 618:Drivers/STM32H7xx_HAL_Driver/Src/stm32h7xx_hal_pwr_ex.c ****     [..]
 619:Drivers/STM32H7xx_HAL_Driver/Src/stm32h7xx_hal_pwr_ex.c ****       Before entering DSTOP mode it is recommended to call SCB_CleanDCache
 620:Drivers/STM32H7xx_HAL_Driver/Src/stm32h7xx_hal_pwr_ex.c ****       function in order to clean the D-Cache and guarantee the data integrity
 621:Drivers/STM32H7xx_HAL_Driver/Src/stm32h7xx_hal_pwr_ex.c ****       for the SRAM memories.
 622:Drivers/STM32H7xx_HAL_Driver/Src/stm32h7xx_hal_pwr_ex.c **** 
 623:Drivers/STM32H7xx_HAL_Driver/Src/stm32h7xx_hal_pwr_ex.c ****       (+) Entry:
 624:Drivers/STM32H7xx_HAL_Driver/Src/stm32h7xx_hal_pwr_ex.c ****          The DSTOP mode is entered using the HAL_PWREx_EnterSTOPMode(Regulator,
 625:Drivers/STM32H7xx_HAL_Driver/Src/stm32h7xx_hal_pwr_ex.c ****          STOPEntry, Domain) function with:
 626:Drivers/STM32H7xx_HAL_Driver/Src/stm32h7xx_hal_pwr_ex.c ****          (++) Regulator:
 627:Drivers/STM32H7xx_HAL_Driver/Src/stm32h7xx_hal_pwr_ex.c ****           (+++) PWR_MAINREGULATOR_ON     : Main regulator ON.
 628:Drivers/STM32H7xx_HAL_Driver/Src/stm32h7xx_hal_pwr_ex.c ****           (+++) PWR_LOWPOWERREGULATOR_ON : Low Power regulator ON.
 629:Drivers/STM32H7xx_HAL_Driver/Src/stm32h7xx_hal_pwr_ex.c ****          (++) STOPEntry:
 630:Drivers/STM32H7xx_HAL_Driver/Src/stm32h7xx_hal_pwr_ex.c ****           (+++) PWR_STOPENTRY_WFI : enter STOP mode with WFI instruction
 631:Drivers/STM32H7xx_HAL_Driver/Src/stm32h7xx_hal_pwr_ex.c ****           (+++) PWR_STOPENTRY_WFE : enter STOP mode with WFE instruction
 632:Drivers/STM32H7xx_HAL_Driver/Src/stm32h7xx_hal_pwr_ex.c ****          (++) Domain:
ARM GAS  /tmp/cc68FHKf.s 			page 21


 633:Drivers/STM32H7xx_HAL_Driver/Src/stm32h7xx_hal_pwr_ex.c ****           (+++) PWR_D1_DOMAIN : Enters D1/CD domain to DSTOP mode.
 634:Drivers/STM32H7xx_HAL_Driver/Src/stm32h7xx_hal_pwr_ex.c ****           (+++) PWR_D2_DOMAIN : Enters D2 domain to DSTOP mode.
 635:Drivers/STM32H7xx_HAL_Driver/Src/stm32h7xx_hal_pwr_ex.c ****           (+++) PWR_D3_DOMAIN : Enters D3/SRD domain to DSTOP mode.
 636:Drivers/STM32H7xx_HAL_Driver/Src/stm32h7xx_hal_pwr_ex.c **** 
 637:Drivers/STM32H7xx_HAL_Driver/Src/stm32h7xx_hal_pwr_ex.c ****       (+) Exit:
 638:Drivers/STM32H7xx_HAL_Driver/Src/stm32h7xx_hal_pwr_ex.c ****         Any EXTI Line (Internal or External) configured in Interrupt/Event mode.
 639:Drivers/STM32H7xx_HAL_Driver/Src/stm32h7xx_hal_pwr_ex.c **** 
 640:Drivers/STM32H7xx_HAL_Driver/Src/stm32h7xx_hal_pwr_ex.c ****    *** DSTANDBY mode ***
 641:Drivers/STM32H7xx_HAL_Driver/Src/stm32h7xx_hal_pwr_ex.c ****    =====================
 642:Drivers/STM32H7xx_HAL_Driver/Src/stm32h7xx_hal_pwr_ex.c ****     [..]
 643:Drivers/STM32H7xx_HAL_Driver/Src/stm32h7xx_hal_pwr_ex.c ****       In DStandby mode:
 644:Drivers/STM32H7xx_HAL_Driver/Src/stm32h7xx_hal_pwr_ex.c ****         (+) The domain bus matrix clock is stopped.
 645:Drivers/STM32H7xx_HAL_Driver/Src/stm32h7xx_hal_pwr_ex.c ****         (+) The domain is powered down and the domain RAM and register contents
 646:Drivers/STM32H7xx_HAL_Driver/Src/stm32h7xx_hal_pwr_ex.c ****             are lost.
 647:Drivers/STM32H7xx_HAL_Driver/Src/stm32h7xx_hal_pwr_ex.c ****     [..]
 648:Drivers/STM32H7xx_HAL_Driver/Src/stm32h7xx_hal_pwr_ex.c ****       Before entering DSTANDBY mode it is recommended to call SCB_CleanDCache
 649:Drivers/STM32H7xx_HAL_Driver/Src/stm32h7xx_hal_pwr_ex.c ****       function in order to clean the D-Cache and guarantee the data integrity
 650:Drivers/STM32H7xx_HAL_Driver/Src/stm32h7xx_hal_pwr_ex.c ****       for the SRAM memories.
 651:Drivers/STM32H7xx_HAL_Driver/Src/stm32h7xx_hal_pwr_ex.c **** 
 652:Drivers/STM32H7xx_HAL_Driver/Src/stm32h7xx_hal_pwr_ex.c ****       (+) Entry:
 653:Drivers/STM32H7xx_HAL_Driver/Src/stm32h7xx_hal_pwr_ex.c ****          The DSTANDBY mode is entered using the HAL_PWREx_EnterSTANDBYMode
 654:Drivers/STM32H7xx_HAL_Driver/Src/stm32h7xx_hal_pwr_ex.c ****          (Domain) function with:
 655:Drivers/STM32H7xx_HAL_Driver/Src/stm32h7xx_hal_pwr_ex.c ****        (++) Domain:
 656:Drivers/STM32H7xx_HAL_Driver/Src/stm32h7xx_hal_pwr_ex.c ****         (+++) PWR_D1_DOMAIN : Enters D1/CD domain to DSTANDBY mode.
 657:Drivers/STM32H7xx_HAL_Driver/Src/stm32h7xx_hal_pwr_ex.c ****         (+++) PWR_D2_DOMAIN : Enters D2 domain to DSTANDBY mode.
 658:Drivers/STM32H7xx_HAL_Driver/Src/stm32h7xx_hal_pwr_ex.c ****         (+++) PWR_D3_DOMAIN : Enters D3/SRD domain to DSTANDBY mode.
 659:Drivers/STM32H7xx_HAL_Driver/Src/stm32h7xx_hal_pwr_ex.c **** 
 660:Drivers/STM32H7xx_HAL_Driver/Src/stm32h7xx_hal_pwr_ex.c ****       (+) Exit:
 661:Drivers/STM32H7xx_HAL_Driver/Src/stm32h7xx_hal_pwr_ex.c ****         WKUP pin rising or falling edge, RTC alarm (Alarm A and Alarm B), RTC
 662:Drivers/STM32H7xx_HAL_Driver/Src/stm32h7xx_hal_pwr_ex.c ****         wakeup, tamper event, time stamp event, external reset in NRST pin,
 663:Drivers/STM32H7xx_HAL_Driver/Src/stm32h7xx_hal_pwr_ex.c ****         IWDG reset.
 664:Drivers/STM32H7xx_HAL_Driver/Src/stm32h7xx_hal_pwr_ex.c **** 
 665:Drivers/STM32H7xx_HAL_Driver/Src/stm32h7xx_hal_pwr_ex.c ****    *** Keep D3/SRD in RUN mode ***
 666:Drivers/STM32H7xx_HAL_Driver/Src/stm32h7xx_hal_pwr_ex.c ****    ===============================
 667:Drivers/STM32H7xx_HAL_Driver/Src/stm32h7xx_hal_pwr_ex.c ****     [..]
 668:Drivers/STM32H7xx_HAL_Driver/Src/stm32h7xx_hal_pwr_ex.c ****       D3/SRD domain can be kept in Run mode regardless of the CPU status when
 669:Drivers/STM32H7xx_HAL_Driver/Src/stm32h7xx_hal_pwr_ex.c ****       entering STOP mode by using HAL_PWREx_ConfigD3Domain(D3State) function
 670:Drivers/STM32H7xx_HAL_Driver/Src/stm32h7xx_hal_pwr_ex.c ****       with :
 671:Drivers/STM32H7xx_HAL_Driver/Src/stm32h7xx_hal_pwr_ex.c ****        (+) D3State:
 672:Drivers/STM32H7xx_HAL_Driver/Src/stm32h7xx_hal_pwr_ex.c ****         (++) PWR_D3_DOMAIN_STOP : D3/SDR domain follows the CPU sub-system
 673:Drivers/STM32H7xx_HAL_Driver/Src/stm32h7xx_hal_pwr_ex.c ****                                   mode.
 674:Drivers/STM32H7xx_HAL_Driver/Src/stm32h7xx_hal_pwr_ex.c ****         (++) PWR_D3_DOMAIN_RUN : D3/SRD domain remains in Run mode regardless
 675:Drivers/STM32H7xx_HAL_Driver/Src/stm32h7xx_hal_pwr_ex.c ****                                  of CPU subsystem mode.
 676:Drivers/STM32H7xx_HAL_Driver/Src/stm32h7xx_hal_pwr_ex.c **** 
 677:Drivers/STM32H7xx_HAL_Driver/Src/stm32h7xx_hal_pwr_ex.c ****     *** FLASH Power Down configuration ****
 678:Drivers/STM32H7xx_HAL_Driver/Src/stm32h7xx_hal_pwr_ex.c ****     =======================================
 679:Drivers/STM32H7xx_HAL_Driver/Src/stm32h7xx_hal_pwr_ex.c ****     [..]
 680:Drivers/STM32H7xx_HAL_Driver/Src/stm32h7xx_hal_pwr_ex.c ****       By setting the FLPS bit in the PWR_CR1 register using the
 681:Drivers/STM32H7xx_HAL_Driver/Src/stm32h7xx_hal_pwr_ex.c ****       HAL_PWREx_EnableFlashPowerDown() function, the Flash memory also enters
 682:Drivers/STM32H7xx_HAL_Driver/Src/stm32h7xx_hal_pwr_ex.c ****       power down mode when the device enters STOP mode. When the Flash memory is
 683:Drivers/STM32H7xx_HAL_Driver/Src/stm32h7xx_hal_pwr_ex.c ****       in power down mode, an additional startup delay is incurred when waking up
 684:Drivers/STM32H7xx_HAL_Driver/Src/stm32h7xx_hal_pwr_ex.c ****       from STOP mode.
 685:Drivers/STM32H7xx_HAL_Driver/Src/stm32h7xx_hal_pwr_ex.c **** 
 686:Drivers/STM32H7xx_HAL_Driver/Src/stm32h7xx_hal_pwr_ex.c ****     *** Wakeup Pins configuration ****
 687:Drivers/STM32H7xx_HAL_Driver/Src/stm32h7xx_hal_pwr_ex.c ****     ===================================
 688:Drivers/STM32H7xx_HAL_Driver/Src/stm32h7xx_hal_pwr_ex.c ****     [..]
 689:Drivers/STM32H7xx_HAL_Driver/Src/stm32h7xx_hal_pwr_ex.c ****       Wakeup pins allow the system to exit from Standby mode. The configuration
ARM GAS  /tmp/cc68FHKf.s 			page 22


 690:Drivers/STM32H7xx_HAL_Driver/Src/stm32h7xx_hal_pwr_ex.c ****       of wakeup pins is done with the HAL_PWREx_EnableWakeUpPin(sPinParams)
 691:Drivers/STM32H7xx_HAL_Driver/Src/stm32h7xx_hal_pwr_ex.c ****       function with:
 692:Drivers/STM32H7xx_HAL_Driver/Src/stm32h7xx_hal_pwr_ex.c ****        (+) sPinParams: structure to enable and configure a wakeup pin:
 693:Drivers/STM32H7xx_HAL_Driver/Src/stm32h7xx_hal_pwr_ex.c ****         (++) WakeUpPin: Wakeup pin to be enabled.
 694:Drivers/STM32H7xx_HAL_Driver/Src/stm32h7xx_hal_pwr_ex.c ****         (++) PinPolarity: Wakeup pin polarity (rising or falling edge).
 695:Drivers/STM32H7xx_HAL_Driver/Src/stm32h7xx_hal_pwr_ex.c ****         (++) PinPull: Wakeup pin pull (no pull, pull-up or pull-down).
 696:Drivers/STM32H7xx_HAL_Driver/Src/stm32h7xx_hal_pwr_ex.c ****     [..]
 697:Drivers/STM32H7xx_HAL_Driver/Src/stm32h7xx_hal_pwr_ex.c ****       The wakeup pins are internally connected to the EXTI lines [55-60] to
 698:Drivers/STM32H7xx_HAL_Driver/Src/stm32h7xx_hal_pwr_ex.c ****       generate an interrupt if enabled. The EXTI lines configuration is done by
 699:Drivers/STM32H7xx_HAL_Driver/Src/stm32h7xx_hal_pwr_ex.c ****       the HAL_EXTI_Dx_EventInputConfig() functions defined in the stm32h7xxhal.c
 700:Drivers/STM32H7xx_HAL_Driver/Src/stm32h7xx_hal_pwr_ex.c ****       file.
 701:Drivers/STM32H7xx_HAL_Driver/Src/stm32h7xx_hal_pwr_ex.c ****     [..]
 702:Drivers/STM32H7xx_HAL_Driver/Src/stm32h7xx_hal_pwr_ex.c ****       When a wakeup pin event is received the HAL_PWREx_WAKEUP_PIN_IRQHandler is
 703:Drivers/STM32H7xx_HAL_Driver/Src/stm32h7xx_hal_pwr_ex.c ****       called and the appropriate flag is set in the PWR_WKUPFR register. Then in
 704:Drivers/STM32H7xx_HAL_Driver/Src/stm32h7xx_hal_pwr_ex.c ****       the HAL_PWREx_WAKEUP_PIN_IRQHandler function the wakeup pin flag will be
 705:Drivers/STM32H7xx_HAL_Driver/Src/stm32h7xx_hal_pwr_ex.c ****       cleared and the appropriate user callback will be called. The user can add
 706:Drivers/STM32H7xx_HAL_Driver/Src/stm32h7xx_hal_pwr_ex.c ****       his own code by customization of function pointer HAL_PWREx_WKUPx_Callback.
 707:Drivers/STM32H7xx_HAL_Driver/Src/stm32h7xx_hal_pwr_ex.c **** 
 708:Drivers/STM32H7xx_HAL_Driver/Src/stm32h7xx_hal_pwr_ex.c **** @endverbatim
 709:Drivers/STM32H7xx_HAL_Driver/Src/stm32h7xx_hal_pwr_ex.c ****   * @{
 710:Drivers/STM32H7xx_HAL_Driver/Src/stm32h7xx_hal_pwr_ex.c ****   */
 711:Drivers/STM32H7xx_HAL_Driver/Src/stm32h7xx_hal_pwr_ex.c **** 
 712:Drivers/STM32H7xx_HAL_Driver/Src/stm32h7xx_hal_pwr_ex.c **** #if defined (PWR_CPUCR_RETDS_CD)
 713:Drivers/STM32H7xx_HAL_Driver/Src/stm32h7xx_hal_pwr_ex.c **** /**
 714:Drivers/STM32H7xx_HAL_Driver/Src/stm32h7xx_hal_pwr_ex.c ****   * @brief Enter the system to STOP mode with main domain in DSTOP2.
 715:Drivers/STM32H7xx_HAL_Driver/Src/stm32h7xx_hal_pwr_ex.c ****   * @note   In STOP mode, the domain bus matrix clock is stalled.
 716:Drivers/STM32H7xx_HAL_Driver/Src/stm32h7xx_hal_pwr_ex.c ****   * @note   In STOP mode, memories and registers are maintained and peripherals
 717:Drivers/STM32H7xx_HAL_Driver/Src/stm32h7xx_hal_pwr_ex.c ****   *         in CPU domain are no longer operational.
 718:Drivers/STM32H7xx_HAL_Driver/Src/stm32h7xx_hal_pwr_ex.c ****   * @note   All clocks in the VCORE domain are stopped, the PLL, the HSI and the
 719:Drivers/STM32H7xx_HAL_Driver/Src/stm32h7xx_hal_pwr_ex.c ****   *         HSE oscillators are disabled. Only Peripherals that have wakeup
 720:Drivers/STM32H7xx_HAL_Driver/Src/stm32h7xx_hal_pwr_ex.c ****   *         capability can switch on the HSI to receive a frame, and switch off
 721:Drivers/STM32H7xx_HAL_Driver/Src/stm32h7xx_hal_pwr_ex.c ****   *         the HSI after receiving the frame if it is not a wakeup frame. In
 722:Drivers/STM32H7xx_HAL_Driver/Src/stm32h7xx_hal_pwr_ex.c ****   *         this case the HSI clock is propagated only to the peripheral
 723:Drivers/STM32H7xx_HAL_Driver/Src/stm32h7xx_hal_pwr_ex.c ****   *         requesting it.
 724:Drivers/STM32H7xx_HAL_Driver/Src/stm32h7xx_hal_pwr_ex.c ****   * @note   When exiting STOP mode by issuing an interrupt or a wakeup event,
 725:Drivers/STM32H7xx_HAL_Driver/Src/stm32h7xx_hal_pwr_ex.c ****   *         the HSI RC oscillator is selected as system clock if STOPWUCK bit in
 726:Drivers/STM32H7xx_HAL_Driver/Src/stm32h7xx_hal_pwr_ex.c ****   *         RCC_CFGR register is set.
 727:Drivers/STM32H7xx_HAL_Driver/Src/stm32h7xx_hal_pwr_ex.c ****   * @param  Regulator : Specifies the regulator state in STOP mode.
 728:Drivers/STM32H7xx_HAL_Driver/Src/stm32h7xx_hal_pwr_ex.c ****   *          This parameter can be one of the following values:
 729:Drivers/STM32H7xx_HAL_Driver/Src/stm32h7xx_hal_pwr_ex.c ****   *            @arg PWR_MAINREGULATOR_ON     : STOP mode with regulator ON.
 730:Drivers/STM32H7xx_HAL_Driver/Src/stm32h7xx_hal_pwr_ex.c ****   *            @arg PWR_LOWPOWERREGULATOR_ON : STOP mode with low power
 731:Drivers/STM32H7xx_HAL_Driver/Src/stm32h7xx_hal_pwr_ex.c ****   *                                            regulator ON.
 732:Drivers/STM32H7xx_HAL_Driver/Src/stm32h7xx_hal_pwr_ex.c ****   * @param  STOPEntry : Specifies if STOP mode in entered with WFI or WFE
 733:Drivers/STM32H7xx_HAL_Driver/Src/stm32h7xx_hal_pwr_ex.c ****   *                     intrinsic instruction.
 734:Drivers/STM32H7xx_HAL_Driver/Src/stm32h7xx_hal_pwr_ex.c ****   *          This parameter can be one of the following values:
 735:Drivers/STM32H7xx_HAL_Driver/Src/stm32h7xx_hal_pwr_ex.c ****   *            @arg PWR_STOPENTRY_WFI : Enter STOP mode with WFI instruction.
 736:Drivers/STM32H7xx_HAL_Driver/Src/stm32h7xx_hal_pwr_ex.c ****   *            @arg PWR_STOPENTRY_WFE : Enter STOP mode with WFE instruction.
 737:Drivers/STM32H7xx_HAL_Driver/Src/stm32h7xx_hal_pwr_ex.c ****   * @retval None.
 738:Drivers/STM32H7xx_HAL_Driver/Src/stm32h7xx_hal_pwr_ex.c ****   */
 739:Drivers/STM32H7xx_HAL_Driver/Src/stm32h7xx_hal_pwr_ex.c **** void HAL_PWREx_EnterSTOP2Mode (uint32_t Regulator, uint8_t STOPEntry)
 740:Drivers/STM32H7xx_HAL_Driver/Src/stm32h7xx_hal_pwr_ex.c **** {
 741:Drivers/STM32H7xx_HAL_Driver/Src/stm32h7xx_hal_pwr_ex.c ****   /* Check the parameters */
 742:Drivers/STM32H7xx_HAL_Driver/Src/stm32h7xx_hal_pwr_ex.c ****   assert_param (IS_PWR_REGULATOR (Regulator));
 743:Drivers/STM32H7xx_HAL_Driver/Src/stm32h7xx_hal_pwr_ex.c ****   assert_param (IS_PWR_STOP_ENTRY (STOPEntry));
 744:Drivers/STM32H7xx_HAL_Driver/Src/stm32h7xx_hal_pwr_ex.c **** 
 745:Drivers/STM32H7xx_HAL_Driver/Src/stm32h7xx_hal_pwr_ex.c ****   /* Select the regulator state in Stop mode */
 746:Drivers/STM32H7xx_HAL_Driver/Src/stm32h7xx_hal_pwr_ex.c ****   MODIFY_REG (PWR->CR1, PWR_CR1_LPDS, Regulator);
ARM GAS  /tmp/cc68FHKf.s 			page 23


 747:Drivers/STM32H7xx_HAL_Driver/Src/stm32h7xx_hal_pwr_ex.c **** 
 748:Drivers/STM32H7xx_HAL_Driver/Src/stm32h7xx_hal_pwr_ex.c ****   /* Go to DStop2 mode (deep retention) when CPU domain enters Deepsleep */
 749:Drivers/STM32H7xx_HAL_Driver/Src/stm32h7xx_hal_pwr_ex.c ****   SET_BIT (PWR->CPUCR, PWR_CPUCR_RETDS_CD);
 750:Drivers/STM32H7xx_HAL_Driver/Src/stm32h7xx_hal_pwr_ex.c **** 
 751:Drivers/STM32H7xx_HAL_Driver/Src/stm32h7xx_hal_pwr_ex.c ****   /* Keep DSTOP mode when SmartRun domain enters Deepsleep */
 752:Drivers/STM32H7xx_HAL_Driver/Src/stm32h7xx_hal_pwr_ex.c ****   CLEAR_BIT (PWR->CPUCR, PWR_CPUCR_PDDS_SRD);
 753:Drivers/STM32H7xx_HAL_Driver/Src/stm32h7xx_hal_pwr_ex.c **** 
 754:Drivers/STM32H7xx_HAL_Driver/Src/stm32h7xx_hal_pwr_ex.c ****   /* Set SLEEPDEEP bit of Cortex System Control Register */
 755:Drivers/STM32H7xx_HAL_Driver/Src/stm32h7xx_hal_pwr_ex.c ****   SET_BIT (SCB->SCR, SCB_SCR_SLEEPDEEP_Msk);
 756:Drivers/STM32H7xx_HAL_Driver/Src/stm32h7xx_hal_pwr_ex.c **** 
 757:Drivers/STM32H7xx_HAL_Driver/Src/stm32h7xx_hal_pwr_ex.c ****   /* Ensure that all instructions are done before entering STOP mode */
 758:Drivers/STM32H7xx_HAL_Driver/Src/stm32h7xx_hal_pwr_ex.c ****   __ISB ();
 759:Drivers/STM32H7xx_HAL_Driver/Src/stm32h7xx_hal_pwr_ex.c ****   __DSB ();
 760:Drivers/STM32H7xx_HAL_Driver/Src/stm32h7xx_hal_pwr_ex.c **** 
 761:Drivers/STM32H7xx_HAL_Driver/Src/stm32h7xx_hal_pwr_ex.c ****   /* Select Stop mode entry */
 762:Drivers/STM32H7xx_HAL_Driver/Src/stm32h7xx_hal_pwr_ex.c ****   if (STOPEntry == PWR_STOPENTRY_WFI)
 763:Drivers/STM32H7xx_HAL_Driver/Src/stm32h7xx_hal_pwr_ex.c ****   {
 764:Drivers/STM32H7xx_HAL_Driver/Src/stm32h7xx_hal_pwr_ex.c ****     /* Request Wait For Interrupt */
 765:Drivers/STM32H7xx_HAL_Driver/Src/stm32h7xx_hal_pwr_ex.c ****     __WFI ();
 766:Drivers/STM32H7xx_HAL_Driver/Src/stm32h7xx_hal_pwr_ex.c ****   }
 767:Drivers/STM32H7xx_HAL_Driver/Src/stm32h7xx_hal_pwr_ex.c ****   else
 768:Drivers/STM32H7xx_HAL_Driver/Src/stm32h7xx_hal_pwr_ex.c ****   {
 769:Drivers/STM32H7xx_HAL_Driver/Src/stm32h7xx_hal_pwr_ex.c ****     /* Request Wait For Event */
 770:Drivers/STM32H7xx_HAL_Driver/Src/stm32h7xx_hal_pwr_ex.c ****     __WFE ();
 771:Drivers/STM32H7xx_HAL_Driver/Src/stm32h7xx_hal_pwr_ex.c ****   }
 772:Drivers/STM32H7xx_HAL_Driver/Src/stm32h7xx_hal_pwr_ex.c **** 
 773:Drivers/STM32H7xx_HAL_Driver/Src/stm32h7xx_hal_pwr_ex.c ****   /* Clear SLEEPDEEP bit of Cortex-Mx in the System Control Register */
 774:Drivers/STM32H7xx_HAL_Driver/Src/stm32h7xx_hal_pwr_ex.c ****   CLEAR_BIT (SCB->SCR, SCB_SCR_SLEEPDEEP_Msk);
 775:Drivers/STM32H7xx_HAL_Driver/Src/stm32h7xx_hal_pwr_ex.c **** }
 776:Drivers/STM32H7xx_HAL_Driver/Src/stm32h7xx_hal_pwr_ex.c **** #endif /* defined (PWR_CPUCR_RETDS_CD) */
 777:Drivers/STM32H7xx_HAL_Driver/Src/stm32h7xx_hal_pwr_ex.c **** 
 778:Drivers/STM32H7xx_HAL_Driver/Src/stm32h7xx_hal_pwr_ex.c **** /**
 779:Drivers/STM32H7xx_HAL_Driver/Src/stm32h7xx_hal_pwr_ex.c ****   * @brief Enter a Domain to DSTOP mode.
 780:Drivers/STM32H7xx_HAL_Driver/Src/stm32h7xx_hal_pwr_ex.c ****   * @note   This API gives flexibility to manage independently each domain STOP
 781:Drivers/STM32H7xx_HAL_Driver/Src/stm32h7xx_hal_pwr_ex.c ****   *         mode. For dual core lines, this API should be executed with the
 782:Drivers/STM32H7xx_HAL_Driver/Src/stm32h7xx_hal_pwr_ex.c ****   *         corresponding Cortex-Mx to enter domain to DSTOP mode. When it is
 783:Drivers/STM32H7xx_HAL_Driver/Src/stm32h7xx_hal_pwr_ex.c ****   *         executed by all available Cortex-Mx, the system enter to STOP mode.
 784:Drivers/STM32H7xx_HAL_Driver/Src/stm32h7xx_hal_pwr_ex.c ****   *         For single core lines, calling this API with domain parameter set to
 785:Drivers/STM32H7xx_HAL_Driver/Src/stm32h7xx_hal_pwr_ex.c ****   *         PWR_D1_DOMAIN (D1/CD), the whole system will enter in STOP mode
 786:Drivers/STM32H7xx_HAL_Driver/Src/stm32h7xx_hal_pwr_ex.c ****   *         independently of PWR_CPUCR_PDDS_Dx bits values if RUN_D3 bit in the
 787:Drivers/STM32H7xx_HAL_Driver/Src/stm32h7xx_hal_pwr_ex.c ****   *         CPUCR_RUN_D3 is cleared.
 788:Drivers/STM32H7xx_HAL_Driver/Src/stm32h7xx_hal_pwr_ex.c ****   * @note   In DStop mode the domain bus matrix clock is stopped.
 789:Drivers/STM32H7xx_HAL_Driver/Src/stm32h7xx_hal_pwr_ex.c ****   * @note   The system D3/SRD domain enter Stop mode only when the CPU subsystem
 790:Drivers/STM32H7xx_HAL_Driver/Src/stm32h7xx_hal_pwr_ex.c ****   *         is in CStop mode, the EXTI wakeup sources are inactive and at least
 791:Drivers/STM32H7xx_HAL_Driver/Src/stm32h7xx_hal_pwr_ex.c ****   *         one PDDS_Dn bit in PWR CPU control register (PWR_CPUCR) for
 792:Drivers/STM32H7xx_HAL_Driver/Src/stm32h7xx_hal_pwr_ex.c ****   *         any domain request Stop.
 793:Drivers/STM32H7xx_HAL_Driver/Src/stm32h7xx_hal_pwr_ex.c ****   * @note   Before entering DSTOP mode it is recommended to call SCB_CleanDCache
 794:Drivers/STM32H7xx_HAL_Driver/Src/stm32h7xx_hal_pwr_ex.c ****   *         function in order to clean the D-Cache and guarantee the data
 795:Drivers/STM32H7xx_HAL_Driver/Src/stm32h7xx_hal_pwr_ex.c ****   *         integrity for the SRAM memories.
 796:Drivers/STM32H7xx_HAL_Driver/Src/stm32h7xx_hal_pwr_ex.c ****   * @note   In System Stop mode, the domain peripherals that use the LSI or LSE
 797:Drivers/STM32H7xx_HAL_Driver/Src/stm32h7xx_hal_pwr_ex.c ****   *         clock, and the peripherals that have a kernel clock request to
 798:Drivers/STM32H7xx_HAL_Driver/Src/stm32h7xx_hal_pwr_ex.c ****   *         select HSI or CSI as source, are still able to operate.
 799:Drivers/STM32H7xx_HAL_Driver/Src/stm32h7xx_hal_pwr_ex.c ****   * @param  Regulator : Specifies the regulator state in STOP mode.
 800:Drivers/STM32H7xx_HAL_Driver/Src/stm32h7xx_hal_pwr_ex.c ****   *          This parameter can be one of the following values:
 801:Drivers/STM32H7xx_HAL_Driver/Src/stm32h7xx_hal_pwr_ex.c ****   *            @arg PWR_MAINREGULATOR_ON     : STOP mode with regulator ON.
 802:Drivers/STM32H7xx_HAL_Driver/Src/stm32h7xx_hal_pwr_ex.c ****   *            @arg PWR_LOWPOWERREGULATOR_ON : STOP mode with low power
 803:Drivers/STM32H7xx_HAL_Driver/Src/stm32h7xx_hal_pwr_ex.c ****   *                                            regulator ON.
ARM GAS  /tmp/cc68FHKf.s 			page 24


 804:Drivers/STM32H7xx_HAL_Driver/Src/stm32h7xx_hal_pwr_ex.c ****   * @param  STOPEntry : Specifies if STOP mode in entered with WFI or WFE
 805:Drivers/STM32H7xx_HAL_Driver/Src/stm32h7xx_hal_pwr_ex.c ****   *                     intrinsic instruction.
 806:Drivers/STM32H7xx_HAL_Driver/Src/stm32h7xx_hal_pwr_ex.c ****   *          This parameter can be one of the following values:
 807:Drivers/STM32H7xx_HAL_Driver/Src/stm32h7xx_hal_pwr_ex.c ****   *            @arg PWR_STOPENTRY_WFI : Enter STOP mode with WFI instruction.
 808:Drivers/STM32H7xx_HAL_Driver/Src/stm32h7xx_hal_pwr_ex.c ****   *            @arg PWR_STOPENTRY_WFE : Enter STOP mode with WFE instruction.
 809:Drivers/STM32H7xx_HAL_Driver/Src/stm32h7xx_hal_pwr_ex.c ****   * @param  Domain : Specifies the Domain to enter in DSTOP mode.
 810:Drivers/STM32H7xx_HAL_Driver/Src/stm32h7xx_hal_pwr_ex.c ****   *          This parameter can be one of the following values:
 811:Drivers/STM32H7xx_HAL_Driver/Src/stm32h7xx_hal_pwr_ex.c ****   *            @arg PWR_D1_DOMAIN : Enter D1/CD Domain to DSTOP mode.
 812:Drivers/STM32H7xx_HAL_Driver/Src/stm32h7xx_hal_pwr_ex.c ****   *            @arg PWR_D2_DOMAIN : Enter D2 Domain to DSTOP mode.
 813:Drivers/STM32H7xx_HAL_Driver/Src/stm32h7xx_hal_pwr_ex.c ****   *            @arg PWR_D3_DOMAIN : Enter D3/SRD Domain to DSTOP mode.
 814:Drivers/STM32H7xx_HAL_Driver/Src/stm32h7xx_hal_pwr_ex.c ****   * @retval None.
 815:Drivers/STM32H7xx_HAL_Driver/Src/stm32h7xx_hal_pwr_ex.c ****   */
 816:Drivers/STM32H7xx_HAL_Driver/Src/stm32h7xx_hal_pwr_ex.c **** void HAL_PWREx_EnterSTOPMode (uint32_t Regulator, uint8_t STOPEntry, uint32_t Domain)
 817:Drivers/STM32H7xx_HAL_Driver/Src/stm32h7xx_hal_pwr_ex.c **** {
 461              		.loc 1 817 1 is_stmt 1 view -0
 462              		.cfi_startproc
 463              		@ args = 0, pretend = 0, frame = 0
 464              		@ frame_needed = 0, uses_anonymous_args = 0
 465              		@ link register save eliminated.
 818:Drivers/STM32H7xx_HAL_Driver/Src/stm32h7xx_hal_pwr_ex.c ****   /* Check the parameters */
 819:Drivers/STM32H7xx_HAL_Driver/Src/stm32h7xx_hal_pwr_ex.c ****   assert_param (IS_PWR_REGULATOR (Regulator));
 466              		.loc 1 819 3 view .LVU120
 820:Drivers/STM32H7xx_HAL_Driver/Src/stm32h7xx_hal_pwr_ex.c ****   assert_param (IS_PWR_STOP_ENTRY (STOPEntry));
 467              		.loc 1 820 3 view .LVU121
 821:Drivers/STM32H7xx_HAL_Driver/Src/stm32h7xx_hal_pwr_ex.c ****   assert_param (IS_PWR_DOMAIN (Domain));
 468              		.loc 1 821 3 view .LVU122
 822:Drivers/STM32H7xx_HAL_Driver/Src/stm32h7xx_hal_pwr_ex.c **** 
 823:Drivers/STM32H7xx_HAL_Driver/Src/stm32h7xx_hal_pwr_ex.c ****   /* Select the regulator state in Stop mode */
 824:Drivers/STM32H7xx_HAL_Driver/Src/stm32h7xx_hal_pwr_ex.c ****   MODIFY_REG (PWR->CR1, PWR_CR1_LPDS, Regulator);
 469              		.loc 1 824 3 view .LVU123
 817:Drivers/STM32H7xx_HAL_Driver/Src/stm32h7xx_hal_pwr_ex.c ****   /* Check the parameters */
 470              		.loc 1 817 1 is_stmt 0 view .LVU124
 471 0000 10B4     		push	{r4}
 472              	.LCFI2:
 473              		.cfi_def_cfa_offset 4
 474              		.cfi_offset 4, -4
 475              		.loc 1 824 3 view .LVU125
 476 0002 154C     		ldr	r4, .L54
 477 0004 2368     		ldr	r3, [r4]
 478 0006 23F00103 		bic	r3, r3, #1
 479 000a 0343     		orrs	r3, r3, r0
 480 000c 2360     		str	r3, [r4]
 825:Drivers/STM32H7xx_HAL_Driver/Src/stm32h7xx_hal_pwr_ex.c **** 
 826:Drivers/STM32H7xx_HAL_Driver/Src/stm32h7xx_hal_pwr_ex.c ****   /* Select the domain Power Down DeepSleep */
 827:Drivers/STM32H7xx_HAL_Driver/Src/stm32h7xx_hal_pwr_ex.c ****   if (Domain == PWR_D1_DOMAIN)
 481              		.loc 1 827 3 is_stmt 1 view .LVU126
 828:Drivers/STM32H7xx_HAL_Driver/Src/stm32h7xx_hal_pwr_ex.c ****   {
 829:Drivers/STM32H7xx_HAL_Driver/Src/stm32h7xx_hal_pwr_ex.c **** #if defined (DUAL_CORE)
 830:Drivers/STM32H7xx_HAL_Driver/Src/stm32h7xx_hal_pwr_ex.c ****     /* Check current core */
 831:Drivers/STM32H7xx_HAL_Driver/Src/stm32h7xx_hal_pwr_ex.c ****     if (HAL_GetCurrentCPUID () != CM7_CPUID)
 832:Drivers/STM32H7xx_HAL_Driver/Src/stm32h7xx_hal_pwr_ex.c ****     {
 833:Drivers/STM32H7xx_HAL_Driver/Src/stm32h7xx_hal_pwr_ex.c ****       /*
 834:Drivers/STM32H7xx_HAL_Driver/Src/stm32h7xx_hal_pwr_ex.c ****          When the domain selected and the cortex-mx don't match, entering stop
 835:Drivers/STM32H7xx_HAL_Driver/Src/stm32h7xx_hal_pwr_ex.c ****          mode will not be performed
 836:Drivers/STM32H7xx_HAL_Driver/Src/stm32h7xx_hal_pwr_ex.c ****       */
 837:Drivers/STM32H7xx_HAL_Driver/Src/stm32h7xx_hal_pwr_ex.c ****       return;
 838:Drivers/STM32H7xx_HAL_Driver/Src/stm32h7xx_hal_pwr_ex.c ****     }
ARM GAS  /tmp/cc68FHKf.s 			page 25


 839:Drivers/STM32H7xx_HAL_Driver/Src/stm32h7xx_hal_pwr_ex.c **** #endif /* defined (DUAL_CORE) */
 840:Drivers/STM32H7xx_HAL_Driver/Src/stm32h7xx_hal_pwr_ex.c **** 
 841:Drivers/STM32H7xx_HAL_Driver/Src/stm32h7xx_hal_pwr_ex.c ****     /* Keep DSTOP mode when D1/CD domain enters Deepsleep */
 842:Drivers/STM32H7xx_HAL_Driver/Src/stm32h7xx_hal_pwr_ex.c ****     CLEAR_BIT (PWR->CPUCR, PWR_CPUCR_PDDS_D1);
 482              		.loc 1 842 5 is_stmt 0 view .LVU127
 483 000e 2369     		ldr	r3, [r4, #16]
 827:Drivers/STM32H7xx_HAL_Driver/Src/stm32h7xx_hal_pwr_ex.c ****   {
 484              		.loc 1 827 6 view .LVU128
 485 0010 B2B9     		cbnz	r2, .L47
 486              		.loc 1 842 5 is_stmt 1 view .LVU129
 843:Drivers/STM32H7xx_HAL_Driver/Src/stm32h7xx_hal_pwr_ex.c **** 
 844:Drivers/STM32H7xx_HAL_Driver/Src/stm32h7xx_hal_pwr_ex.c ****     /* Set SLEEPDEEP bit of Cortex System Control Register */
 845:Drivers/STM32H7xx_HAL_Driver/Src/stm32h7xx_hal_pwr_ex.c ****     SET_BIT (SCB->SCR, SCB_SCR_SLEEPDEEP_Msk);
 487              		.loc 1 845 5 is_stmt 0 view .LVU130
 488 0012 124A     		ldr	r2, .L54+4
 489              	.LVL34:
 842:Drivers/STM32H7xx_HAL_Driver/Src/stm32h7xx_hal_pwr_ex.c **** 
 490              		.loc 1 842 5 view .LVU131
 491 0014 23F00103 		bic	r3, r3, #1
 492 0018 2361     		str	r3, [r4, #16]
 493              		.loc 1 845 5 is_stmt 1 view .LVU132
 494 001a 1369     		ldr	r3, [r2, #16]
 495 001c 43F00403 		orr	r3, r3, #4
 496 0020 1361     		str	r3, [r2, #16]
 846:Drivers/STM32H7xx_HAL_Driver/Src/stm32h7xx_hal_pwr_ex.c **** 
 847:Drivers/STM32H7xx_HAL_Driver/Src/stm32h7xx_hal_pwr_ex.c ****     /* Ensure that all instructions are done before entering STOP mode */
 848:Drivers/STM32H7xx_HAL_Driver/Src/stm32h7xx_hal_pwr_ex.c ****     __DSB ();
 497              		.loc 1 848 5 view .LVU133
 498              	.LBB22:
 499              	.LBI22:
 500              		.file 2 "Drivers/CMSIS/Include/cmsis_gcc.h"
   1:Drivers/CMSIS/Include/cmsis_gcc.h **** /**************************************************************************//**
   2:Drivers/CMSIS/Include/cmsis_gcc.h ****  * @file     cmsis_gcc.h
   3:Drivers/CMSIS/Include/cmsis_gcc.h ****  * @brief    CMSIS compiler GCC header file
   4:Drivers/CMSIS/Include/cmsis_gcc.h ****  * @version  V5.2.0
   5:Drivers/CMSIS/Include/cmsis_gcc.h ****  * @date     08. May 2019
   6:Drivers/CMSIS/Include/cmsis_gcc.h ****  ******************************************************************************/
   7:Drivers/CMSIS/Include/cmsis_gcc.h **** /*
   8:Drivers/CMSIS/Include/cmsis_gcc.h ****  * Copyright (c) 2009-2019 Arm Limited. All rights reserved.
   9:Drivers/CMSIS/Include/cmsis_gcc.h ****  *
  10:Drivers/CMSIS/Include/cmsis_gcc.h ****  * SPDX-License-Identifier: Apache-2.0
  11:Drivers/CMSIS/Include/cmsis_gcc.h ****  *
  12:Drivers/CMSIS/Include/cmsis_gcc.h ****  * Licensed under the Apache License, Version 2.0 (the License); you may
  13:Drivers/CMSIS/Include/cmsis_gcc.h ****  * not use this file except in compliance with the License.
  14:Drivers/CMSIS/Include/cmsis_gcc.h ****  * You may obtain a copy of the License at
  15:Drivers/CMSIS/Include/cmsis_gcc.h ****  *
  16:Drivers/CMSIS/Include/cmsis_gcc.h ****  * www.apache.org/licenses/LICENSE-2.0
  17:Drivers/CMSIS/Include/cmsis_gcc.h ****  *
  18:Drivers/CMSIS/Include/cmsis_gcc.h ****  * Unless required by applicable law or agreed to in writing, software
  19:Drivers/CMSIS/Include/cmsis_gcc.h ****  * distributed under the License is distributed on an AS IS BASIS, WITHOUT
  20:Drivers/CMSIS/Include/cmsis_gcc.h ****  * WARRANTIES OR CONDITIONS OF ANY KIND, either express or implied.
  21:Drivers/CMSIS/Include/cmsis_gcc.h ****  * See the License for the specific language governing permissions and
  22:Drivers/CMSIS/Include/cmsis_gcc.h ****  * limitations under the License.
  23:Drivers/CMSIS/Include/cmsis_gcc.h ****  */
  24:Drivers/CMSIS/Include/cmsis_gcc.h **** 
  25:Drivers/CMSIS/Include/cmsis_gcc.h **** #ifndef __CMSIS_GCC_H
  26:Drivers/CMSIS/Include/cmsis_gcc.h **** #define __CMSIS_GCC_H
ARM GAS  /tmp/cc68FHKf.s 			page 26


  27:Drivers/CMSIS/Include/cmsis_gcc.h **** 
  28:Drivers/CMSIS/Include/cmsis_gcc.h **** /* ignore some GCC warnings */
  29:Drivers/CMSIS/Include/cmsis_gcc.h **** #pragma GCC diagnostic push
  30:Drivers/CMSIS/Include/cmsis_gcc.h **** #pragma GCC diagnostic ignored "-Wsign-conversion"
  31:Drivers/CMSIS/Include/cmsis_gcc.h **** #pragma GCC diagnostic ignored "-Wconversion"
  32:Drivers/CMSIS/Include/cmsis_gcc.h **** #pragma GCC diagnostic ignored "-Wunused-parameter"
  33:Drivers/CMSIS/Include/cmsis_gcc.h **** 
  34:Drivers/CMSIS/Include/cmsis_gcc.h **** /* Fallback for __has_builtin */
  35:Drivers/CMSIS/Include/cmsis_gcc.h **** #ifndef __has_builtin
  36:Drivers/CMSIS/Include/cmsis_gcc.h ****   #define __has_builtin(x) (0)
  37:Drivers/CMSIS/Include/cmsis_gcc.h **** #endif
  38:Drivers/CMSIS/Include/cmsis_gcc.h **** 
  39:Drivers/CMSIS/Include/cmsis_gcc.h **** /* CMSIS compiler specific defines */
  40:Drivers/CMSIS/Include/cmsis_gcc.h **** #ifndef   __ASM
  41:Drivers/CMSIS/Include/cmsis_gcc.h ****   #define __ASM                                  __asm
  42:Drivers/CMSIS/Include/cmsis_gcc.h **** #endif
  43:Drivers/CMSIS/Include/cmsis_gcc.h **** #ifndef   __INLINE
  44:Drivers/CMSIS/Include/cmsis_gcc.h ****   #define __INLINE                               inline
  45:Drivers/CMSIS/Include/cmsis_gcc.h **** #endif
  46:Drivers/CMSIS/Include/cmsis_gcc.h **** #ifndef   __STATIC_INLINE
  47:Drivers/CMSIS/Include/cmsis_gcc.h ****   #define __STATIC_INLINE                        static inline
  48:Drivers/CMSIS/Include/cmsis_gcc.h **** #endif
  49:Drivers/CMSIS/Include/cmsis_gcc.h **** #ifndef   __STATIC_FORCEINLINE                 
  50:Drivers/CMSIS/Include/cmsis_gcc.h ****   #define __STATIC_FORCEINLINE                   __attribute__((always_inline)) static inline
  51:Drivers/CMSIS/Include/cmsis_gcc.h **** #endif                                           
  52:Drivers/CMSIS/Include/cmsis_gcc.h **** #ifndef   __NO_RETURN
  53:Drivers/CMSIS/Include/cmsis_gcc.h ****   #define __NO_RETURN                            __attribute__((__noreturn__))
  54:Drivers/CMSIS/Include/cmsis_gcc.h **** #endif
  55:Drivers/CMSIS/Include/cmsis_gcc.h **** #ifndef   __USED
  56:Drivers/CMSIS/Include/cmsis_gcc.h ****   #define __USED                                 __attribute__((used))
  57:Drivers/CMSIS/Include/cmsis_gcc.h **** #endif
  58:Drivers/CMSIS/Include/cmsis_gcc.h **** #ifndef   __WEAK
  59:Drivers/CMSIS/Include/cmsis_gcc.h ****   #define __WEAK                                 __attribute__((weak))
  60:Drivers/CMSIS/Include/cmsis_gcc.h **** #endif
  61:Drivers/CMSIS/Include/cmsis_gcc.h **** #ifndef   __PACKED
  62:Drivers/CMSIS/Include/cmsis_gcc.h ****   #define __PACKED                               __attribute__((packed, aligned(1)))
  63:Drivers/CMSIS/Include/cmsis_gcc.h **** #endif
  64:Drivers/CMSIS/Include/cmsis_gcc.h **** #ifndef   __PACKED_STRUCT
  65:Drivers/CMSIS/Include/cmsis_gcc.h ****   #define __PACKED_STRUCT                        struct __attribute__((packed, aligned(1)))
  66:Drivers/CMSIS/Include/cmsis_gcc.h **** #endif
  67:Drivers/CMSIS/Include/cmsis_gcc.h **** #ifndef   __PACKED_UNION
  68:Drivers/CMSIS/Include/cmsis_gcc.h ****   #define __PACKED_UNION                         union __attribute__((packed, aligned(1)))
  69:Drivers/CMSIS/Include/cmsis_gcc.h **** #endif
  70:Drivers/CMSIS/Include/cmsis_gcc.h **** #ifndef   __UNALIGNED_UINT32        /* deprecated */
  71:Drivers/CMSIS/Include/cmsis_gcc.h ****   #pragma GCC diagnostic push
  72:Drivers/CMSIS/Include/cmsis_gcc.h ****   #pragma GCC diagnostic ignored "-Wpacked"
  73:Drivers/CMSIS/Include/cmsis_gcc.h ****   #pragma GCC diagnostic ignored "-Wattributes"
  74:Drivers/CMSIS/Include/cmsis_gcc.h ****   struct __attribute__((packed)) T_UINT32 { uint32_t v; };
  75:Drivers/CMSIS/Include/cmsis_gcc.h ****   #pragma GCC diagnostic pop
  76:Drivers/CMSIS/Include/cmsis_gcc.h ****   #define __UNALIGNED_UINT32(x)                  (((struct T_UINT32 *)(x))->v)
  77:Drivers/CMSIS/Include/cmsis_gcc.h **** #endif
  78:Drivers/CMSIS/Include/cmsis_gcc.h **** #ifndef   __UNALIGNED_UINT16_WRITE
  79:Drivers/CMSIS/Include/cmsis_gcc.h ****   #pragma GCC diagnostic push
  80:Drivers/CMSIS/Include/cmsis_gcc.h ****   #pragma GCC diagnostic ignored "-Wpacked"
  81:Drivers/CMSIS/Include/cmsis_gcc.h ****   #pragma GCC diagnostic ignored "-Wattributes"
  82:Drivers/CMSIS/Include/cmsis_gcc.h ****   __PACKED_STRUCT T_UINT16_WRITE { uint16_t v; };
  83:Drivers/CMSIS/Include/cmsis_gcc.h ****   #pragma GCC diagnostic pop
ARM GAS  /tmp/cc68FHKf.s 			page 27


  84:Drivers/CMSIS/Include/cmsis_gcc.h ****   #define __UNALIGNED_UINT16_WRITE(addr, val)    (void)((((struct T_UINT16_WRITE *)(void *)(addr))-
  85:Drivers/CMSIS/Include/cmsis_gcc.h **** #endif
  86:Drivers/CMSIS/Include/cmsis_gcc.h **** #ifndef   __UNALIGNED_UINT16_READ
  87:Drivers/CMSIS/Include/cmsis_gcc.h ****   #pragma GCC diagnostic push
  88:Drivers/CMSIS/Include/cmsis_gcc.h ****   #pragma GCC diagnostic ignored "-Wpacked"
  89:Drivers/CMSIS/Include/cmsis_gcc.h ****   #pragma GCC diagnostic ignored "-Wattributes"
  90:Drivers/CMSIS/Include/cmsis_gcc.h ****   __PACKED_STRUCT T_UINT16_READ { uint16_t v; };
  91:Drivers/CMSIS/Include/cmsis_gcc.h ****   #pragma GCC diagnostic pop
  92:Drivers/CMSIS/Include/cmsis_gcc.h ****   #define __UNALIGNED_UINT16_READ(addr)          (((const struct T_UINT16_READ *)(const void *)(add
  93:Drivers/CMSIS/Include/cmsis_gcc.h **** #endif
  94:Drivers/CMSIS/Include/cmsis_gcc.h **** #ifndef   __UNALIGNED_UINT32_WRITE
  95:Drivers/CMSIS/Include/cmsis_gcc.h ****   #pragma GCC diagnostic push
  96:Drivers/CMSIS/Include/cmsis_gcc.h ****   #pragma GCC diagnostic ignored "-Wpacked"
  97:Drivers/CMSIS/Include/cmsis_gcc.h ****   #pragma GCC diagnostic ignored "-Wattributes"
  98:Drivers/CMSIS/Include/cmsis_gcc.h ****   __PACKED_STRUCT T_UINT32_WRITE { uint32_t v; };
  99:Drivers/CMSIS/Include/cmsis_gcc.h ****   #pragma GCC diagnostic pop
 100:Drivers/CMSIS/Include/cmsis_gcc.h ****   #define __UNALIGNED_UINT32_WRITE(addr, val)    (void)((((struct T_UINT32_WRITE *)(void *)(addr))-
 101:Drivers/CMSIS/Include/cmsis_gcc.h **** #endif
 102:Drivers/CMSIS/Include/cmsis_gcc.h **** #ifndef   __UNALIGNED_UINT32_READ
 103:Drivers/CMSIS/Include/cmsis_gcc.h ****   #pragma GCC diagnostic push
 104:Drivers/CMSIS/Include/cmsis_gcc.h ****   #pragma GCC diagnostic ignored "-Wpacked"
 105:Drivers/CMSIS/Include/cmsis_gcc.h ****   #pragma GCC diagnostic ignored "-Wattributes"
 106:Drivers/CMSIS/Include/cmsis_gcc.h ****   __PACKED_STRUCT T_UINT32_READ { uint32_t v; };
 107:Drivers/CMSIS/Include/cmsis_gcc.h ****   #pragma GCC diagnostic pop
 108:Drivers/CMSIS/Include/cmsis_gcc.h ****   #define __UNALIGNED_UINT32_READ(addr)          (((const struct T_UINT32_READ *)(const void *)(add
 109:Drivers/CMSIS/Include/cmsis_gcc.h **** #endif
 110:Drivers/CMSIS/Include/cmsis_gcc.h **** #ifndef   __ALIGNED
 111:Drivers/CMSIS/Include/cmsis_gcc.h ****   #define __ALIGNED(x)                           __attribute__((aligned(x)))
 112:Drivers/CMSIS/Include/cmsis_gcc.h **** #endif
 113:Drivers/CMSIS/Include/cmsis_gcc.h **** #ifndef   __RESTRICT
 114:Drivers/CMSIS/Include/cmsis_gcc.h ****   #define __RESTRICT                             __restrict
 115:Drivers/CMSIS/Include/cmsis_gcc.h **** #endif
 116:Drivers/CMSIS/Include/cmsis_gcc.h **** #ifndef   __COMPILER_BARRIER
 117:Drivers/CMSIS/Include/cmsis_gcc.h ****   #define __COMPILER_BARRIER()                   __ASM volatile("":::"memory")
 118:Drivers/CMSIS/Include/cmsis_gcc.h **** #endif
 119:Drivers/CMSIS/Include/cmsis_gcc.h **** 
 120:Drivers/CMSIS/Include/cmsis_gcc.h **** /* #########################  Startup and Lowlevel Init  ######################## */
 121:Drivers/CMSIS/Include/cmsis_gcc.h **** 
 122:Drivers/CMSIS/Include/cmsis_gcc.h **** #ifndef __PROGRAM_START
 123:Drivers/CMSIS/Include/cmsis_gcc.h **** 
 124:Drivers/CMSIS/Include/cmsis_gcc.h **** /**
 125:Drivers/CMSIS/Include/cmsis_gcc.h ****   \brief   Initializes data and bss sections
 126:Drivers/CMSIS/Include/cmsis_gcc.h ****   \details This default implementations initialized all data and additional bss
 127:Drivers/CMSIS/Include/cmsis_gcc.h ****            sections relying on .copy.table and .zero.table specified properly
 128:Drivers/CMSIS/Include/cmsis_gcc.h ****            in the used linker script.
 129:Drivers/CMSIS/Include/cmsis_gcc.h ****   
 130:Drivers/CMSIS/Include/cmsis_gcc.h ****  */
 131:Drivers/CMSIS/Include/cmsis_gcc.h **** __STATIC_FORCEINLINE __NO_RETURN void __cmsis_start(void)
 132:Drivers/CMSIS/Include/cmsis_gcc.h **** {
 133:Drivers/CMSIS/Include/cmsis_gcc.h ****   extern void _start(void) __NO_RETURN;
 134:Drivers/CMSIS/Include/cmsis_gcc.h ****   
 135:Drivers/CMSIS/Include/cmsis_gcc.h ****   typedef struct {
 136:Drivers/CMSIS/Include/cmsis_gcc.h ****     uint32_t const* src;
 137:Drivers/CMSIS/Include/cmsis_gcc.h ****     uint32_t* dest;
 138:Drivers/CMSIS/Include/cmsis_gcc.h ****     uint32_t  wlen;
 139:Drivers/CMSIS/Include/cmsis_gcc.h ****   } __copy_table_t;
 140:Drivers/CMSIS/Include/cmsis_gcc.h ****   
ARM GAS  /tmp/cc68FHKf.s 			page 28


 141:Drivers/CMSIS/Include/cmsis_gcc.h ****   typedef struct {
 142:Drivers/CMSIS/Include/cmsis_gcc.h ****     uint32_t* dest;
 143:Drivers/CMSIS/Include/cmsis_gcc.h ****     uint32_t  wlen;
 144:Drivers/CMSIS/Include/cmsis_gcc.h ****   } __zero_table_t;
 145:Drivers/CMSIS/Include/cmsis_gcc.h ****   
 146:Drivers/CMSIS/Include/cmsis_gcc.h ****   extern const __copy_table_t __copy_table_start__;
 147:Drivers/CMSIS/Include/cmsis_gcc.h ****   extern const __copy_table_t __copy_table_end__;
 148:Drivers/CMSIS/Include/cmsis_gcc.h ****   extern const __zero_table_t __zero_table_start__;
 149:Drivers/CMSIS/Include/cmsis_gcc.h ****   extern const __zero_table_t __zero_table_end__;
 150:Drivers/CMSIS/Include/cmsis_gcc.h **** 
 151:Drivers/CMSIS/Include/cmsis_gcc.h ****   for (__copy_table_t const* pTable = &__copy_table_start__; pTable < &__copy_table_end__; ++pTable
 152:Drivers/CMSIS/Include/cmsis_gcc.h ****     for(uint32_t i=0u; i<pTable->wlen; ++i) {
 153:Drivers/CMSIS/Include/cmsis_gcc.h ****       pTable->dest[i] = pTable->src[i];
 154:Drivers/CMSIS/Include/cmsis_gcc.h ****     }
 155:Drivers/CMSIS/Include/cmsis_gcc.h ****   }
 156:Drivers/CMSIS/Include/cmsis_gcc.h ****  
 157:Drivers/CMSIS/Include/cmsis_gcc.h ****   for (__zero_table_t const* pTable = &__zero_table_start__; pTable < &__zero_table_end__; ++pTable
 158:Drivers/CMSIS/Include/cmsis_gcc.h ****     for(uint32_t i=0u; i<pTable->wlen; ++i) {
 159:Drivers/CMSIS/Include/cmsis_gcc.h ****       pTable->dest[i] = 0u;
 160:Drivers/CMSIS/Include/cmsis_gcc.h ****     }
 161:Drivers/CMSIS/Include/cmsis_gcc.h ****   }
 162:Drivers/CMSIS/Include/cmsis_gcc.h ****  
 163:Drivers/CMSIS/Include/cmsis_gcc.h ****   _start();
 164:Drivers/CMSIS/Include/cmsis_gcc.h **** }
 165:Drivers/CMSIS/Include/cmsis_gcc.h ****   
 166:Drivers/CMSIS/Include/cmsis_gcc.h **** #define __PROGRAM_START           __cmsis_start
 167:Drivers/CMSIS/Include/cmsis_gcc.h **** #endif
 168:Drivers/CMSIS/Include/cmsis_gcc.h **** 
 169:Drivers/CMSIS/Include/cmsis_gcc.h **** #ifndef __INITIAL_SP
 170:Drivers/CMSIS/Include/cmsis_gcc.h **** #define __INITIAL_SP              __StackTop
 171:Drivers/CMSIS/Include/cmsis_gcc.h **** #endif
 172:Drivers/CMSIS/Include/cmsis_gcc.h **** 
 173:Drivers/CMSIS/Include/cmsis_gcc.h **** #ifndef __STACK_LIMIT
 174:Drivers/CMSIS/Include/cmsis_gcc.h **** #define __STACK_LIMIT             __StackLimit
 175:Drivers/CMSIS/Include/cmsis_gcc.h **** #endif
 176:Drivers/CMSIS/Include/cmsis_gcc.h **** 
 177:Drivers/CMSIS/Include/cmsis_gcc.h **** #ifndef __VECTOR_TABLE
 178:Drivers/CMSIS/Include/cmsis_gcc.h **** #define __VECTOR_TABLE            __Vectors
 179:Drivers/CMSIS/Include/cmsis_gcc.h **** #endif
 180:Drivers/CMSIS/Include/cmsis_gcc.h **** 
 181:Drivers/CMSIS/Include/cmsis_gcc.h **** #ifndef __VECTOR_TABLE_ATTRIBUTE
 182:Drivers/CMSIS/Include/cmsis_gcc.h **** #define __VECTOR_TABLE_ATTRIBUTE  __attribute((used, section(".vectors")))
 183:Drivers/CMSIS/Include/cmsis_gcc.h **** #endif
 184:Drivers/CMSIS/Include/cmsis_gcc.h **** 
 185:Drivers/CMSIS/Include/cmsis_gcc.h **** /* ###########################  Core Function Access  ########################### */
 186:Drivers/CMSIS/Include/cmsis_gcc.h **** /** \ingroup  CMSIS_Core_FunctionInterface
 187:Drivers/CMSIS/Include/cmsis_gcc.h ****     \defgroup CMSIS_Core_RegAccFunctions CMSIS Core Register Access Functions
 188:Drivers/CMSIS/Include/cmsis_gcc.h ****   @{
 189:Drivers/CMSIS/Include/cmsis_gcc.h ****  */
 190:Drivers/CMSIS/Include/cmsis_gcc.h **** 
 191:Drivers/CMSIS/Include/cmsis_gcc.h **** /**
 192:Drivers/CMSIS/Include/cmsis_gcc.h ****   \brief   Enable IRQ Interrupts
 193:Drivers/CMSIS/Include/cmsis_gcc.h ****   \details Enables IRQ interrupts by clearing the I-bit in the CPSR.
 194:Drivers/CMSIS/Include/cmsis_gcc.h ****            Can only be executed in Privileged modes.
 195:Drivers/CMSIS/Include/cmsis_gcc.h ****  */
 196:Drivers/CMSIS/Include/cmsis_gcc.h **** __STATIC_FORCEINLINE void __enable_irq(void)
 197:Drivers/CMSIS/Include/cmsis_gcc.h **** {
ARM GAS  /tmp/cc68FHKf.s 			page 29


 198:Drivers/CMSIS/Include/cmsis_gcc.h ****   __ASM volatile ("cpsie i" : : : "memory");
 199:Drivers/CMSIS/Include/cmsis_gcc.h **** }
 200:Drivers/CMSIS/Include/cmsis_gcc.h **** 
 201:Drivers/CMSIS/Include/cmsis_gcc.h **** 
 202:Drivers/CMSIS/Include/cmsis_gcc.h **** /**
 203:Drivers/CMSIS/Include/cmsis_gcc.h ****   \brief   Disable IRQ Interrupts
 204:Drivers/CMSIS/Include/cmsis_gcc.h ****   \details Disables IRQ interrupts by setting the I-bit in the CPSR.
 205:Drivers/CMSIS/Include/cmsis_gcc.h ****            Can only be executed in Privileged modes.
 206:Drivers/CMSIS/Include/cmsis_gcc.h ****  */
 207:Drivers/CMSIS/Include/cmsis_gcc.h **** __STATIC_FORCEINLINE void __disable_irq(void)
 208:Drivers/CMSIS/Include/cmsis_gcc.h **** {
 209:Drivers/CMSIS/Include/cmsis_gcc.h ****   __ASM volatile ("cpsid i" : : : "memory");
 210:Drivers/CMSIS/Include/cmsis_gcc.h **** }
 211:Drivers/CMSIS/Include/cmsis_gcc.h **** 
 212:Drivers/CMSIS/Include/cmsis_gcc.h **** 
 213:Drivers/CMSIS/Include/cmsis_gcc.h **** /**
 214:Drivers/CMSIS/Include/cmsis_gcc.h ****   \brief   Get Control Register
 215:Drivers/CMSIS/Include/cmsis_gcc.h ****   \details Returns the content of the Control Register.
 216:Drivers/CMSIS/Include/cmsis_gcc.h ****   \return               Control Register value
 217:Drivers/CMSIS/Include/cmsis_gcc.h ****  */
 218:Drivers/CMSIS/Include/cmsis_gcc.h **** __STATIC_FORCEINLINE uint32_t __get_CONTROL(void)
 219:Drivers/CMSIS/Include/cmsis_gcc.h **** {
 220:Drivers/CMSIS/Include/cmsis_gcc.h ****   uint32_t result;
 221:Drivers/CMSIS/Include/cmsis_gcc.h **** 
 222:Drivers/CMSIS/Include/cmsis_gcc.h ****   __ASM volatile ("MRS %0, control" : "=r" (result) );
 223:Drivers/CMSIS/Include/cmsis_gcc.h ****   return(result);
 224:Drivers/CMSIS/Include/cmsis_gcc.h **** }
 225:Drivers/CMSIS/Include/cmsis_gcc.h **** 
 226:Drivers/CMSIS/Include/cmsis_gcc.h **** 
 227:Drivers/CMSIS/Include/cmsis_gcc.h **** #if (defined (__ARM_FEATURE_CMSE ) && (__ARM_FEATURE_CMSE == 3))
 228:Drivers/CMSIS/Include/cmsis_gcc.h **** /**
 229:Drivers/CMSIS/Include/cmsis_gcc.h ****   \brief   Get Control Register (non-secure)
 230:Drivers/CMSIS/Include/cmsis_gcc.h ****   \details Returns the content of the non-secure Control Register when in secure mode.
 231:Drivers/CMSIS/Include/cmsis_gcc.h ****   \return               non-secure Control Register value
 232:Drivers/CMSIS/Include/cmsis_gcc.h ****  */
 233:Drivers/CMSIS/Include/cmsis_gcc.h **** __STATIC_FORCEINLINE uint32_t __TZ_get_CONTROL_NS(void)
 234:Drivers/CMSIS/Include/cmsis_gcc.h **** {
 235:Drivers/CMSIS/Include/cmsis_gcc.h ****   uint32_t result;
 236:Drivers/CMSIS/Include/cmsis_gcc.h **** 
 237:Drivers/CMSIS/Include/cmsis_gcc.h ****   __ASM volatile ("MRS %0, control_ns" : "=r" (result) );
 238:Drivers/CMSIS/Include/cmsis_gcc.h ****   return(result);
 239:Drivers/CMSIS/Include/cmsis_gcc.h **** }
 240:Drivers/CMSIS/Include/cmsis_gcc.h **** #endif
 241:Drivers/CMSIS/Include/cmsis_gcc.h **** 
 242:Drivers/CMSIS/Include/cmsis_gcc.h **** 
 243:Drivers/CMSIS/Include/cmsis_gcc.h **** /**
 244:Drivers/CMSIS/Include/cmsis_gcc.h ****   \brief   Set Control Register
 245:Drivers/CMSIS/Include/cmsis_gcc.h ****   \details Writes the given value to the Control Register.
 246:Drivers/CMSIS/Include/cmsis_gcc.h ****   \param [in]    control  Control Register value to set
 247:Drivers/CMSIS/Include/cmsis_gcc.h ****  */
 248:Drivers/CMSIS/Include/cmsis_gcc.h **** __STATIC_FORCEINLINE void __set_CONTROL(uint32_t control)
 249:Drivers/CMSIS/Include/cmsis_gcc.h **** {
 250:Drivers/CMSIS/Include/cmsis_gcc.h ****   __ASM volatile ("MSR control, %0" : : "r" (control) : "memory");
 251:Drivers/CMSIS/Include/cmsis_gcc.h **** }
 252:Drivers/CMSIS/Include/cmsis_gcc.h **** 
 253:Drivers/CMSIS/Include/cmsis_gcc.h **** 
 254:Drivers/CMSIS/Include/cmsis_gcc.h **** #if (defined (__ARM_FEATURE_CMSE ) && (__ARM_FEATURE_CMSE == 3))
ARM GAS  /tmp/cc68FHKf.s 			page 30


 255:Drivers/CMSIS/Include/cmsis_gcc.h **** /**
 256:Drivers/CMSIS/Include/cmsis_gcc.h ****   \brief   Set Control Register (non-secure)
 257:Drivers/CMSIS/Include/cmsis_gcc.h ****   \details Writes the given value to the non-secure Control Register when in secure state.
 258:Drivers/CMSIS/Include/cmsis_gcc.h ****   \param [in]    control  Control Register value to set
 259:Drivers/CMSIS/Include/cmsis_gcc.h ****  */
 260:Drivers/CMSIS/Include/cmsis_gcc.h **** __STATIC_FORCEINLINE void __TZ_set_CONTROL_NS(uint32_t control)
 261:Drivers/CMSIS/Include/cmsis_gcc.h **** {
 262:Drivers/CMSIS/Include/cmsis_gcc.h ****   __ASM volatile ("MSR control_ns, %0" : : "r" (control) : "memory");
 263:Drivers/CMSIS/Include/cmsis_gcc.h **** }
 264:Drivers/CMSIS/Include/cmsis_gcc.h **** #endif
 265:Drivers/CMSIS/Include/cmsis_gcc.h **** 
 266:Drivers/CMSIS/Include/cmsis_gcc.h **** 
 267:Drivers/CMSIS/Include/cmsis_gcc.h **** /**
 268:Drivers/CMSIS/Include/cmsis_gcc.h ****   \brief   Get IPSR Register
 269:Drivers/CMSIS/Include/cmsis_gcc.h ****   \details Returns the content of the IPSR Register.
 270:Drivers/CMSIS/Include/cmsis_gcc.h ****   \return               IPSR Register value
 271:Drivers/CMSIS/Include/cmsis_gcc.h ****  */
 272:Drivers/CMSIS/Include/cmsis_gcc.h **** __STATIC_FORCEINLINE uint32_t __get_IPSR(void)
 273:Drivers/CMSIS/Include/cmsis_gcc.h **** {
 274:Drivers/CMSIS/Include/cmsis_gcc.h ****   uint32_t result;
 275:Drivers/CMSIS/Include/cmsis_gcc.h **** 
 276:Drivers/CMSIS/Include/cmsis_gcc.h ****   __ASM volatile ("MRS %0, ipsr" : "=r" (result) );
 277:Drivers/CMSIS/Include/cmsis_gcc.h ****   return(result);
 278:Drivers/CMSIS/Include/cmsis_gcc.h **** }
 279:Drivers/CMSIS/Include/cmsis_gcc.h **** 
 280:Drivers/CMSIS/Include/cmsis_gcc.h **** 
 281:Drivers/CMSIS/Include/cmsis_gcc.h **** /**
 282:Drivers/CMSIS/Include/cmsis_gcc.h ****   \brief   Get APSR Register
 283:Drivers/CMSIS/Include/cmsis_gcc.h ****   \details Returns the content of the APSR Register.
 284:Drivers/CMSIS/Include/cmsis_gcc.h ****   \return               APSR Register value
 285:Drivers/CMSIS/Include/cmsis_gcc.h ****  */
 286:Drivers/CMSIS/Include/cmsis_gcc.h **** __STATIC_FORCEINLINE uint32_t __get_APSR(void)
 287:Drivers/CMSIS/Include/cmsis_gcc.h **** {
 288:Drivers/CMSIS/Include/cmsis_gcc.h ****   uint32_t result;
 289:Drivers/CMSIS/Include/cmsis_gcc.h **** 
 290:Drivers/CMSIS/Include/cmsis_gcc.h ****   __ASM volatile ("MRS %0, apsr" : "=r" (result) );
 291:Drivers/CMSIS/Include/cmsis_gcc.h ****   return(result);
 292:Drivers/CMSIS/Include/cmsis_gcc.h **** }
 293:Drivers/CMSIS/Include/cmsis_gcc.h **** 
 294:Drivers/CMSIS/Include/cmsis_gcc.h **** 
 295:Drivers/CMSIS/Include/cmsis_gcc.h **** /**
 296:Drivers/CMSIS/Include/cmsis_gcc.h ****   \brief   Get xPSR Register
 297:Drivers/CMSIS/Include/cmsis_gcc.h ****   \details Returns the content of the xPSR Register.
 298:Drivers/CMSIS/Include/cmsis_gcc.h ****   \return               xPSR Register value
 299:Drivers/CMSIS/Include/cmsis_gcc.h ****  */
 300:Drivers/CMSIS/Include/cmsis_gcc.h **** __STATIC_FORCEINLINE uint32_t __get_xPSR(void)
 301:Drivers/CMSIS/Include/cmsis_gcc.h **** {
 302:Drivers/CMSIS/Include/cmsis_gcc.h ****   uint32_t result;
 303:Drivers/CMSIS/Include/cmsis_gcc.h **** 
 304:Drivers/CMSIS/Include/cmsis_gcc.h ****   __ASM volatile ("MRS %0, xpsr" : "=r" (result) );
 305:Drivers/CMSIS/Include/cmsis_gcc.h ****   return(result);
 306:Drivers/CMSIS/Include/cmsis_gcc.h **** }
 307:Drivers/CMSIS/Include/cmsis_gcc.h **** 
 308:Drivers/CMSIS/Include/cmsis_gcc.h **** 
 309:Drivers/CMSIS/Include/cmsis_gcc.h **** /**
 310:Drivers/CMSIS/Include/cmsis_gcc.h ****   \brief   Get Process Stack Pointer
 311:Drivers/CMSIS/Include/cmsis_gcc.h ****   \details Returns the current value of the Process Stack Pointer (PSP).
ARM GAS  /tmp/cc68FHKf.s 			page 31


 312:Drivers/CMSIS/Include/cmsis_gcc.h ****   \return               PSP Register value
 313:Drivers/CMSIS/Include/cmsis_gcc.h ****  */
 314:Drivers/CMSIS/Include/cmsis_gcc.h **** __STATIC_FORCEINLINE uint32_t __get_PSP(void)
 315:Drivers/CMSIS/Include/cmsis_gcc.h **** {
 316:Drivers/CMSIS/Include/cmsis_gcc.h ****   uint32_t result;
 317:Drivers/CMSIS/Include/cmsis_gcc.h **** 
 318:Drivers/CMSIS/Include/cmsis_gcc.h ****   __ASM volatile ("MRS %0, psp"  : "=r" (result) );
 319:Drivers/CMSIS/Include/cmsis_gcc.h ****   return(result);
 320:Drivers/CMSIS/Include/cmsis_gcc.h **** }
 321:Drivers/CMSIS/Include/cmsis_gcc.h **** 
 322:Drivers/CMSIS/Include/cmsis_gcc.h **** 
 323:Drivers/CMSIS/Include/cmsis_gcc.h **** #if (defined (__ARM_FEATURE_CMSE ) && (__ARM_FEATURE_CMSE == 3))
 324:Drivers/CMSIS/Include/cmsis_gcc.h **** /**
 325:Drivers/CMSIS/Include/cmsis_gcc.h ****   \brief   Get Process Stack Pointer (non-secure)
 326:Drivers/CMSIS/Include/cmsis_gcc.h ****   \details Returns the current value of the non-secure Process Stack Pointer (PSP) when in secure s
 327:Drivers/CMSIS/Include/cmsis_gcc.h ****   \return               PSP Register value
 328:Drivers/CMSIS/Include/cmsis_gcc.h ****  */
 329:Drivers/CMSIS/Include/cmsis_gcc.h **** __STATIC_FORCEINLINE uint32_t __TZ_get_PSP_NS(void)
 330:Drivers/CMSIS/Include/cmsis_gcc.h **** {
 331:Drivers/CMSIS/Include/cmsis_gcc.h ****   uint32_t result;
 332:Drivers/CMSIS/Include/cmsis_gcc.h **** 
 333:Drivers/CMSIS/Include/cmsis_gcc.h ****   __ASM volatile ("MRS %0, psp_ns"  : "=r" (result) );
 334:Drivers/CMSIS/Include/cmsis_gcc.h ****   return(result);
 335:Drivers/CMSIS/Include/cmsis_gcc.h **** }
 336:Drivers/CMSIS/Include/cmsis_gcc.h **** #endif
 337:Drivers/CMSIS/Include/cmsis_gcc.h **** 
 338:Drivers/CMSIS/Include/cmsis_gcc.h **** 
 339:Drivers/CMSIS/Include/cmsis_gcc.h **** /**
 340:Drivers/CMSIS/Include/cmsis_gcc.h ****   \brief   Set Process Stack Pointer
 341:Drivers/CMSIS/Include/cmsis_gcc.h ****   \details Assigns the given value to the Process Stack Pointer (PSP).
 342:Drivers/CMSIS/Include/cmsis_gcc.h ****   \param [in]    topOfProcStack  Process Stack Pointer value to set
 343:Drivers/CMSIS/Include/cmsis_gcc.h ****  */
 344:Drivers/CMSIS/Include/cmsis_gcc.h **** __STATIC_FORCEINLINE void __set_PSP(uint32_t topOfProcStack)
 345:Drivers/CMSIS/Include/cmsis_gcc.h **** {
 346:Drivers/CMSIS/Include/cmsis_gcc.h ****   __ASM volatile ("MSR psp, %0" : : "r" (topOfProcStack) : );
 347:Drivers/CMSIS/Include/cmsis_gcc.h **** }
 348:Drivers/CMSIS/Include/cmsis_gcc.h **** 
 349:Drivers/CMSIS/Include/cmsis_gcc.h **** 
 350:Drivers/CMSIS/Include/cmsis_gcc.h **** #if (defined (__ARM_FEATURE_CMSE ) && (__ARM_FEATURE_CMSE == 3))
 351:Drivers/CMSIS/Include/cmsis_gcc.h **** /**
 352:Drivers/CMSIS/Include/cmsis_gcc.h ****   \brief   Set Process Stack Pointer (non-secure)
 353:Drivers/CMSIS/Include/cmsis_gcc.h ****   \details Assigns the given value to the non-secure Process Stack Pointer (PSP) when in secure sta
 354:Drivers/CMSIS/Include/cmsis_gcc.h ****   \param [in]    topOfProcStack  Process Stack Pointer value to set
 355:Drivers/CMSIS/Include/cmsis_gcc.h ****  */
 356:Drivers/CMSIS/Include/cmsis_gcc.h **** __STATIC_FORCEINLINE void __TZ_set_PSP_NS(uint32_t topOfProcStack)
 357:Drivers/CMSIS/Include/cmsis_gcc.h **** {
 358:Drivers/CMSIS/Include/cmsis_gcc.h ****   __ASM volatile ("MSR psp_ns, %0" : : "r" (topOfProcStack) : );
 359:Drivers/CMSIS/Include/cmsis_gcc.h **** }
 360:Drivers/CMSIS/Include/cmsis_gcc.h **** #endif
 361:Drivers/CMSIS/Include/cmsis_gcc.h **** 
 362:Drivers/CMSIS/Include/cmsis_gcc.h **** 
 363:Drivers/CMSIS/Include/cmsis_gcc.h **** /**
 364:Drivers/CMSIS/Include/cmsis_gcc.h ****   \brief   Get Main Stack Pointer
 365:Drivers/CMSIS/Include/cmsis_gcc.h ****   \details Returns the current value of the Main Stack Pointer (MSP).
 366:Drivers/CMSIS/Include/cmsis_gcc.h ****   \return               MSP Register value
 367:Drivers/CMSIS/Include/cmsis_gcc.h ****  */
 368:Drivers/CMSIS/Include/cmsis_gcc.h **** __STATIC_FORCEINLINE uint32_t __get_MSP(void)
ARM GAS  /tmp/cc68FHKf.s 			page 32


 369:Drivers/CMSIS/Include/cmsis_gcc.h **** {
 370:Drivers/CMSIS/Include/cmsis_gcc.h ****   uint32_t result;
 371:Drivers/CMSIS/Include/cmsis_gcc.h **** 
 372:Drivers/CMSIS/Include/cmsis_gcc.h ****   __ASM volatile ("MRS %0, msp" : "=r" (result) );
 373:Drivers/CMSIS/Include/cmsis_gcc.h ****   return(result);
 374:Drivers/CMSIS/Include/cmsis_gcc.h **** }
 375:Drivers/CMSIS/Include/cmsis_gcc.h **** 
 376:Drivers/CMSIS/Include/cmsis_gcc.h **** 
 377:Drivers/CMSIS/Include/cmsis_gcc.h **** #if (defined (__ARM_FEATURE_CMSE ) && (__ARM_FEATURE_CMSE == 3))
 378:Drivers/CMSIS/Include/cmsis_gcc.h **** /**
 379:Drivers/CMSIS/Include/cmsis_gcc.h ****   \brief   Get Main Stack Pointer (non-secure)
 380:Drivers/CMSIS/Include/cmsis_gcc.h ****   \details Returns the current value of the non-secure Main Stack Pointer (MSP) when in secure stat
 381:Drivers/CMSIS/Include/cmsis_gcc.h ****   \return               MSP Register value
 382:Drivers/CMSIS/Include/cmsis_gcc.h ****  */
 383:Drivers/CMSIS/Include/cmsis_gcc.h **** __STATIC_FORCEINLINE uint32_t __TZ_get_MSP_NS(void)
 384:Drivers/CMSIS/Include/cmsis_gcc.h **** {
 385:Drivers/CMSIS/Include/cmsis_gcc.h ****   uint32_t result;
 386:Drivers/CMSIS/Include/cmsis_gcc.h **** 
 387:Drivers/CMSIS/Include/cmsis_gcc.h ****   __ASM volatile ("MRS %0, msp_ns" : "=r" (result) );
 388:Drivers/CMSIS/Include/cmsis_gcc.h ****   return(result);
 389:Drivers/CMSIS/Include/cmsis_gcc.h **** }
 390:Drivers/CMSIS/Include/cmsis_gcc.h **** #endif
 391:Drivers/CMSIS/Include/cmsis_gcc.h **** 
 392:Drivers/CMSIS/Include/cmsis_gcc.h **** 
 393:Drivers/CMSIS/Include/cmsis_gcc.h **** /**
 394:Drivers/CMSIS/Include/cmsis_gcc.h ****   \brief   Set Main Stack Pointer
 395:Drivers/CMSIS/Include/cmsis_gcc.h ****   \details Assigns the given value to the Main Stack Pointer (MSP).
 396:Drivers/CMSIS/Include/cmsis_gcc.h ****   \param [in]    topOfMainStack  Main Stack Pointer value to set
 397:Drivers/CMSIS/Include/cmsis_gcc.h ****  */
 398:Drivers/CMSIS/Include/cmsis_gcc.h **** __STATIC_FORCEINLINE void __set_MSP(uint32_t topOfMainStack)
 399:Drivers/CMSIS/Include/cmsis_gcc.h **** {
 400:Drivers/CMSIS/Include/cmsis_gcc.h ****   __ASM volatile ("MSR msp, %0" : : "r" (topOfMainStack) : );
 401:Drivers/CMSIS/Include/cmsis_gcc.h **** }
 402:Drivers/CMSIS/Include/cmsis_gcc.h **** 
 403:Drivers/CMSIS/Include/cmsis_gcc.h **** 
 404:Drivers/CMSIS/Include/cmsis_gcc.h **** #if (defined (__ARM_FEATURE_CMSE ) && (__ARM_FEATURE_CMSE == 3))
 405:Drivers/CMSIS/Include/cmsis_gcc.h **** /**
 406:Drivers/CMSIS/Include/cmsis_gcc.h ****   \brief   Set Main Stack Pointer (non-secure)
 407:Drivers/CMSIS/Include/cmsis_gcc.h ****   \details Assigns the given value to the non-secure Main Stack Pointer (MSP) when in secure state.
 408:Drivers/CMSIS/Include/cmsis_gcc.h ****   \param [in]    topOfMainStack  Main Stack Pointer value to set
 409:Drivers/CMSIS/Include/cmsis_gcc.h ****  */
 410:Drivers/CMSIS/Include/cmsis_gcc.h **** __STATIC_FORCEINLINE void __TZ_set_MSP_NS(uint32_t topOfMainStack)
 411:Drivers/CMSIS/Include/cmsis_gcc.h **** {
 412:Drivers/CMSIS/Include/cmsis_gcc.h ****   __ASM volatile ("MSR msp_ns, %0" : : "r" (topOfMainStack) : );
 413:Drivers/CMSIS/Include/cmsis_gcc.h **** }
 414:Drivers/CMSIS/Include/cmsis_gcc.h **** #endif
 415:Drivers/CMSIS/Include/cmsis_gcc.h **** 
 416:Drivers/CMSIS/Include/cmsis_gcc.h **** 
 417:Drivers/CMSIS/Include/cmsis_gcc.h **** #if (defined (__ARM_FEATURE_CMSE ) && (__ARM_FEATURE_CMSE == 3))
 418:Drivers/CMSIS/Include/cmsis_gcc.h **** /**
 419:Drivers/CMSIS/Include/cmsis_gcc.h ****   \brief   Get Stack Pointer (non-secure)
 420:Drivers/CMSIS/Include/cmsis_gcc.h ****   \details Returns the current value of the non-secure Stack Pointer (SP) when in secure state.
 421:Drivers/CMSIS/Include/cmsis_gcc.h ****   \return               SP Register value
 422:Drivers/CMSIS/Include/cmsis_gcc.h ****  */
 423:Drivers/CMSIS/Include/cmsis_gcc.h **** __STATIC_FORCEINLINE uint32_t __TZ_get_SP_NS(void)
 424:Drivers/CMSIS/Include/cmsis_gcc.h **** {
 425:Drivers/CMSIS/Include/cmsis_gcc.h ****   uint32_t result;
ARM GAS  /tmp/cc68FHKf.s 			page 33


 426:Drivers/CMSIS/Include/cmsis_gcc.h **** 
 427:Drivers/CMSIS/Include/cmsis_gcc.h ****   __ASM volatile ("MRS %0, sp_ns" : "=r" (result) );
 428:Drivers/CMSIS/Include/cmsis_gcc.h ****   return(result);
 429:Drivers/CMSIS/Include/cmsis_gcc.h **** }
 430:Drivers/CMSIS/Include/cmsis_gcc.h **** 
 431:Drivers/CMSIS/Include/cmsis_gcc.h **** 
 432:Drivers/CMSIS/Include/cmsis_gcc.h **** /**
 433:Drivers/CMSIS/Include/cmsis_gcc.h ****   \brief   Set Stack Pointer (non-secure)
 434:Drivers/CMSIS/Include/cmsis_gcc.h ****   \details Assigns the given value to the non-secure Stack Pointer (SP) when in secure state.
 435:Drivers/CMSIS/Include/cmsis_gcc.h ****   \param [in]    topOfStack  Stack Pointer value to set
 436:Drivers/CMSIS/Include/cmsis_gcc.h ****  */
 437:Drivers/CMSIS/Include/cmsis_gcc.h **** __STATIC_FORCEINLINE void __TZ_set_SP_NS(uint32_t topOfStack)
 438:Drivers/CMSIS/Include/cmsis_gcc.h **** {
 439:Drivers/CMSIS/Include/cmsis_gcc.h ****   __ASM volatile ("MSR sp_ns, %0" : : "r" (topOfStack) : );
 440:Drivers/CMSIS/Include/cmsis_gcc.h **** }
 441:Drivers/CMSIS/Include/cmsis_gcc.h **** #endif
 442:Drivers/CMSIS/Include/cmsis_gcc.h **** 
 443:Drivers/CMSIS/Include/cmsis_gcc.h **** 
 444:Drivers/CMSIS/Include/cmsis_gcc.h **** /**
 445:Drivers/CMSIS/Include/cmsis_gcc.h ****   \brief   Get Priority Mask
 446:Drivers/CMSIS/Include/cmsis_gcc.h ****   \details Returns the current state of the priority mask bit from the Priority Mask Register.
 447:Drivers/CMSIS/Include/cmsis_gcc.h ****   \return               Priority Mask value
 448:Drivers/CMSIS/Include/cmsis_gcc.h ****  */
 449:Drivers/CMSIS/Include/cmsis_gcc.h **** __STATIC_FORCEINLINE uint32_t __get_PRIMASK(void)
 450:Drivers/CMSIS/Include/cmsis_gcc.h **** {
 451:Drivers/CMSIS/Include/cmsis_gcc.h ****   uint32_t result;
 452:Drivers/CMSIS/Include/cmsis_gcc.h **** 
 453:Drivers/CMSIS/Include/cmsis_gcc.h ****   __ASM volatile ("MRS %0, primask" : "=r" (result) :: "memory");
 454:Drivers/CMSIS/Include/cmsis_gcc.h ****   return(result);
 455:Drivers/CMSIS/Include/cmsis_gcc.h **** }
 456:Drivers/CMSIS/Include/cmsis_gcc.h **** 
 457:Drivers/CMSIS/Include/cmsis_gcc.h **** 
 458:Drivers/CMSIS/Include/cmsis_gcc.h **** #if (defined (__ARM_FEATURE_CMSE ) && (__ARM_FEATURE_CMSE == 3))
 459:Drivers/CMSIS/Include/cmsis_gcc.h **** /**
 460:Drivers/CMSIS/Include/cmsis_gcc.h ****   \brief   Get Priority Mask (non-secure)
 461:Drivers/CMSIS/Include/cmsis_gcc.h ****   \details Returns the current state of the non-secure priority mask bit from the Priority Mask Reg
 462:Drivers/CMSIS/Include/cmsis_gcc.h ****   \return               Priority Mask value
 463:Drivers/CMSIS/Include/cmsis_gcc.h ****  */
 464:Drivers/CMSIS/Include/cmsis_gcc.h **** __STATIC_FORCEINLINE uint32_t __TZ_get_PRIMASK_NS(void)
 465:Drivers/CMSIS/Include/cmsis_gcc.h **** {
 466:Drivers/CMSIS/Include/cmsis_gcc.h ****   uint32_t result;
 467:Drivers/CMSIS/Include/cmsis_gcc.h **** 
 468:Drivers/CMSIS/Include/cmsis_gcc.h ****   __ASM volatile ("MRS %0, primask_ns" : "=r" (result) :: "memory");
 469:Drivers/CMSIS/Include/cmsis_gcc.h ****   return(result);
 470:Drivers/CMSIS/Include/cmsis_gcc.h **** }
 471:Drivers/CMSIS/Include/cmsis_gcc.h **** #endif
 472:Drivers/CMSIS/Include/cmsis_gcc.h **** 
 473:Drivers/CMSIS/Include/cmsis_gcc.h **** 
 474:Drivers/CMSIS/Include/cmsis_gcc.h **** /**
 475:Drivers/CMSIS/Include/cmsis_gcc.h ****   \brief   Set Priority Mask
 476:Drivers/CMSIS/Include/cmsis_gcc.h ****   \details Assigns the given value to the Priority Mask Register.
 477:Drivers/CMSIS/Include/cmsis_gcc.h ****   \param [in]    priMask  Priority Mask
 478:Drivers/CMSIS/Include/cmsis_gcc.h ****  */
 479:Drivers/CMSIS/Include/cmsis_gcc.h **** __STATIC_FORCEINLINE void __set_PRIMASK(uint32_t priMask)
 480:Drivers/CMSIS/Include/cmsis_gcc.h **** {
 481:Drivers/CMSIS/Include/cmsis_gcc.h ****   __ASM volatile ("MSR primask, %0" : : "r" (priMask) : "memory");
 482:Drivers/CMSIS/Include/cmsis_gcc.h **** }
ARM GAS  /tmp/cc68FHKf.s 			page 34


 483:Drivers/CMSIS/Include/cmsis_gcc.h **** 
 484:Drivers/CMSIS/Include/cmsis_gcc.h **** 
 485:Drivers/CMSIS/Include/cmsis_gcc.h **** #if (defined (__ARM_FEATURE_CMSE ) && (__ARM_FEATURE_CMSE == 3))
 486:Drivers/CMSIS/Include/cmsis_gcc.h **** /**
 487:Drivers/CMSIS/Include/cmsis_gcc.h ****   \brief   Set Priority Mask (non-secure)
 488:Drivers/CMSIS/Include/cmsis_gcc.h ****   \details Assigns the given value to the non-secure Priority Mask Register when in secure state.
 489:Drivers/CMSIS/Include/cmsis_gcc.h ****   \param [in]    priMask  Priority Mask
 490:Drivers/CMSIS/Include/cmsis_gcc.h ****  */
 491:Drivers/CMSIS/Include/cmsis_gcc.h **** __STATIC_FORCEINLINE void __TZ_set_PRIMASK_NS(uint32_t priMask)
 492:Drivers/CMSIS/Include/cmsis_gcc.h **** {
 493:Drivers/CMSIS/Include/cmsis_gcc.h ****   __ASM volatile ("MSR primask_ns, %0" : : "r" (priMask) : "memory");
 494:Drivers/CMSIS/Include/cmsis_gcc.h **** }
 495:Drivers/CMSIS/Include/cmsis_gcc.h **** #endif
 496:Drivers/CMSIS/Include/cmsis_gcc.h **** 
 497:Drivers/CMSIS/Include/cmsis_gcc.h **** 
 498:Drivers/CMSIS/Include/cmsis_gcc.h **** #if ((defined (__ARM_ARCH_7M__      ) && (__ARM_ARCH_7M__      == 1)) || \
 499:Drivers/CMSIS/Include/cmsis_gcc.h ****      (defined (__ARM_ARCH_7EM__     ) && (__ARM_ARCH_7EM__     == 1)) || \
 500:Drivers/CMSIS/Include/cmsis_gcc.h ****      (defined (__ARM_ARCH_8M_MAIN__ ) && (__ARM_ARCH_8M_MAIN__ == 1))    )
 501:Drivers/CMSIS/Include/cmsis_gcc.h **** /**
 502:Drivers/CMSIS/Include/cmsis_gcc.h ****   \brief   Enable FIQ
 503:Drivers/CMSIS/Include/cmsis_gcc.h ****   \details Enables FIQ interrupts by clearing the F-bit in the CPSR.
 504:Drivers/CMSIS/Include/cmsis_gcc.h ****            Can only be executed in Privileged modes.
 505:Drivers/CMSIS/Include/cmsis_gcc.h ****  */
 506:Drivers/CMSIS/Include/cmsis_gcc.h **** __STATIC_FORCEINLINE void __enable_fault_irq(void)
 507:Drivers/CMSIS/Include/cmsis_gcc.h **** {
 508:Drivers/CMSIS/Include/cmsis_gcc.h ****   __ASM volatile ("cpsie f" : : : "memory");
 509:Drivers/CMSIS/Include/cmsis_gcc.h **** }
 510:Drivers/CMSIS/Include/cmsis_gcc.h **** 
 511:Drivers/CMSIS/Include/cmsis_gcc.h **** 
 512:Drivers/CMSIS/Include/cmsis_gcc.h **** /**
 513:Drivers/CMSIS/Include/cmsis_gcc.h ****   \brief   Disable FIQ
 514:Drivers/CMSIS/Include/cmsis_gcc.h ****   \details Disables FIQ interrupts by setting the F-bit in the CPSR.
 515:Drivers/CMSIS/Include/cmsis_gcc.h ****            Can only be executed in Privileged modes.
 516:Drivers/CMSIS/Include/cmsis_gcc.h ****  */
 517:Drivers/CMSIS/Include/cmsis_gcc.h **** __STATIC_FORCEINLINE void __disable_fault_irq(void)
 518:Drivers/CMSIS/Include/cmsis_gcc.h **** {
 519:Drivers/CMSIS/Include/cmsis_gcc.h ****   __ASM volatile ("cpsid f" : : : "memory");
 520:Drivers/CMSIS/Include/cmsis_gcc.h **** }
 521:Drivers/CMSIS/Include/cmsis_gcc.h **** 
 522:Drivers/CMSIS/Include/cmsis_gcc.h **** 
 523:Drivers/CMSIS/Include/cmsis_gcc.h **** /**
 524:Drivers/CMSIS/Include/cmsis_gcc.h ****   \brief   Get Base Priority
 525:Drivers/CMSIS/Include/cmsis_gcc.h ****   \details Returns the current value of the Base Priority register.
 526:Drivers/CMSIS/Include/cmsis_gcc.h ****   \return               Base Priority register value
 527:Drivers/CMSIS/Include/cmsis_gcc.h ****  */
 528:Drivers/CMSIS/Include/cmsis_gcc.h **** __STATIC_FORCEINLINE uint32_t __get_BASEPRI(void)
 529:Drivers/CMSIS/Include/cmsis_gcc.h **** {
 530:Drivers/CMSIS/Include/cmsis_gcc.h ****   uint32_t result;
 531:Drivers/CMSIS/Include/cmsis_gcc.h **** 
 532:Drivers/CMSIS/Include/cmsis_gcc.h ****   __ASM volatile ("MRS %0, basepri" : "=r" (result) );
 533:Drivers/CMSIS/Include/cmsis_gcc.h ****   return(result);
 534:Drivers/CMSIS/Include/cmsis_gcc.h **** }
 535:Drivers/CMSIS/Include/cmsis_gcc.h **** 
 536:Drivers/CMSIS/Include/cmsis_gcc.h **** 
 537:Drivers/CMSIS/Include/cmsis_gcc.h **** #if (defined (__ARM_FEATURE_CMSE ) && (__ARM_FEATURE_CMSE == 3))
 538:Drivers/CMSIS/Include/cmsis_gcc.h **** /**
 539:Drivers/CMSIS/Include/cmsis_gcc.h ****   \brief   Get Base Priority (non-secure)
ARM GAS  /tmp/cc68FHKf.s 			page 35


 540:Drivers/CMSIS/Include/cmsis_gcc.h ****   \details Returns the current value of the non-secure Base Priority register when in secure state.
 541:Drivers/CMSIS/Include/cmsis_gcc.h ****   \return               Base Priority register value
 542:Drivers/CMSIS/Include/cmsis_gcc.h ****  */
 543:Drivers/CMSIS/Include/cmsis_gcc.h **** __STATIC_FORCEINLINE uint32_t __TZ_get_BASEPRI_NS(void)
 544:Drivers/CMSIS/Include/cmsis_gcc.h **** {
 545:Drivers/CMSIS/Include/cmsis_gcc.h ****   uint32_t result;
 546:Drivers/CMSIS/Include/cmsis_gcc.h **** 
 547:Drivers/CMSIS/Include/cmsis_gcc.h ****   __ASM volatile ("MRS %0, basepri_ns" : "=r" (result) );
 548:Drivers/CMSIS/Include/cmsis_gcc.h ****   return(result);
 549:Drivers/CMSIS/Include/cmsis_gcc.h **** }
 550:Drivers/CMSIS/Include/cmsis_gcc.h **** #endif
 551:Drivers/CMSIS/Include/cmsis_gcc.h **** 
 552:Drivers/CMSIS/Include/cmsis_gcc.h **** 
 553:Drivers/CMSIS/Include/cmsis_gcc.h **** /**
 554:Drivers/CMSIS/Include/cmsis_gcc.h ****   \brief   Set Base Priority
 555:Drivers/CMSIS/Include/cmsis_gcc.h ****   \details Assigns the given value to the Base Priority register.
 556:Drivers/CMSIS/Include/cmsis_gcc.h ****   \param [in]    basePri  Base Priority value to set
 557:Drivers/CMSIS/Include/cmsis_gcc.h ****  */
 558:Drivers/CMSIS/Include/cmsis_gcc.h **** __STATIC_FORCEINLINE void __set_BASEPRI(uint32_t basePri)
 559:Drivers/CMSIS/Include/cmsis_gcc.h **** {
 560:Drivers/CMSIS/Include/cmsis_gcc.h ****   __ASM volatile ("MSR basepri, %0" : : "r" (basePri) : "memory");
 561:Drivers/CMSIS/Include/cmsis_gcc.h **** }
 562:Drivers/CMSIS/Include/cmsis_gcc.h **** 
 563:Drivers/CMSIS/Include/cmsis_gcc.h **** 
 564:Drivers/CMSIS/Include/cmsis_gcc.h **** #if (defined (__ARM_FEATURE_CMSE ) && (__ARM_FEATURE_CMSE == 3))
 565:Drivers/CMSIS/Include/cmsis_gcc.h **** /**
 566:Drivers/CMSIS/Include/cmsis_gcc.h ****   \brief   Set Base Priority (non-secure)
 567:Drivers/CMSIS/Include/cmsis_gcc.h ****   \details Assigns the given value to the non-secure Base Priority register when in secure state.
 568:Drivers/CMSIS/Include/cmsis_gcc.h ****   \param [in]    basePri  Base Priority value to set
 569:Drivers/CMSIS/Include/cmsis_gcc.h ****  */
 570:Drivers/CMSIS/Include/cmsis_gcc.h **** __STATIC_FORCEINLINE void __TZ_set_BASEPRI_NS(uint32_t basePri)
 571:Drivers/CMSIS/Include/cmsis_gcc.h **** {
 572:Drivers/CMSIS/Include/cmsis_gcc.h ****   __ASM volatile ("MSR basepri_ns, %0" : : "r" (basePri) : "memory");
 573:Drivers/CMSIS/Include/cmsis_gcc.h **** }
 574:Drivers/CMSIS/Include/cmsis_gcc.h **** #endif
 575:Drivers/CMSIS/Include/cmsis_gcc.h **** 
 576:Drivers/CMSIS/Include/cmsis_gcc.h **** 
 577:Drivers/CMSIS/Include/cmsis_gcc.h **** /**
 578:Drivers/CMSIS/Include/cmsis_gcc.h ****   \brief   Set Base Priority with condition
 579:Drivers/CMSIS/Include/cmsis_gcc.h ****   \details Assigns the given value to the Base Priority register only if BASEPRI masking is disable
 580:Drivers/CMSIS/Include/cmsis_gcc.h ****            or the new value increases the BASEPRI priority level.
 581:Drivers/CMSIS/Include/cmsis_gcc.h ****   \param [in]    basePri  Base Priority value to set
 582:Drivers/CMSIS/Include/cmsis_gcc.h ****  */
 583:Drivers/CMSIS/Include/cmsis_gcc.h **** __STATIC_FORCEINLINE void __set_BASEPRI_MAX(uint32_t basePri)
 584:Drivers/CMSIS/Include/cmsis_gcc.h **** {
 585:Drivers/CMSIS/Include/cmsis_gcc.h ****   __ASM volatile ("MSR basepri_max, %0" : : "r" (basePri) : "memory");
 586:Drivers/CMSIS/Include/cmsis_gcc.h **** }
 587:Drivers/CMSIS/Include/cmsis_gcc.h **** 
 588:Drivers/CMSIS/Include/cmsis_gcc.h **** 
 589:Drivers/CMSIS/Include/cmsis_gcc.h **** /**
 590:Drivers/CMSIS/Include/cmsis_gcc.h ****   \brief   Get Fault Mask
 591:Drivers/CMSIS/Include/cmsis_gcc.h ****   \details Returns the current value of the Fault Mask register.
 592:Drivers/CMSIS/Include/cmsis_gcc.h ****   \return               Fault Mask register value
 593:Drivers/CMSIS/Include/cmsis_gcc.h ****  */
 594:Drivers/CMSIS/Include/cmsis_gcc.h **** __STATIC_FORCEINLINE uint32_t __get_FAULTMASK(void)
 595:Drivers/CMSIS/Include/cmsis_gcc.h **** {
 596:Drivers/CMSIS/Include/cmsis_gcc.h ****   uint32_t result;
ARM GAS  /tmp/cc68FHKf.s 			page 36


 597:Drivers/CMSIS/Include/cmsis_gcc.h **** 
 598:Drivers/CMSIS/Include/cmsis_gcc.h ****   __ASM volatile ("MRS %0, faultmask" : "=r" (result) );
 599:Drivers/CMSIS/Include/cmsis_gcc.h ****   return(result);
 600:Drivers/CMSIS/Include/cmsis_gcc.h **** }
 601:Drivers/CMSIS/Include/cmsis_gcc.h **** 
 602:Drivers/CMSIS/Include/cmsis_gcc.h **** 
 603:Drivers/CMSIS/Include/cmsis_gcc.h **** #if (defined (__ARM_FEATURE_CMSE ) && (__ARM_FEATURE_CMSE == 3))
 604:Drivers/CMSIS/Include/cmsis_gcc.h **** /**
 605:Drivers/CMSIS/Include/cmsis_gcc.h ****   \brief   Get Fault Mask (non-secure)
 606:Drivers/CMSIS/Include/cmsis_gcc.h ****   \details Returns the current value of the non-secure Fault Mask register when in secure state.
 607:Drivers/CMSIS/Include/cmsis_gcc.h ****   \return               Fault Mask register value
 608:Drivers/CMSIS/Include/cmsis_gcc.h ****  */
 609:Drivers/CMSIS/Include/cmsis_gcc.h **** __STATIC_FORCEINLINE uint32_t __TZ_get_FAULTMASK_NS(void)
 610:Drivers/CMSIS/Include/cmsis_gcc.h **** {
 611:Drivers/CMSIS/Include/cmsis_gcc.h ****   uint32_t result;
 612:Drivers/CMSIS/Include/cmsis_gcc.h **** 
 613:Drivers/CMSIS/Include/cmsis_gcc.h ****   __ASM volatile ("MRS %0, faultmask_ns" : "=r" (result) );
 614:Drivers/CMSIS/Include/cmsis_gcc.h ****   return(result);
 615:Drivers/CMSIS/Include/cmsis_gcc.h **** }
 616:Drivers/CMSIS/Include/cmsis_gcc.h **** #endif
 617:Drivers/CMSIS/Include/cmsis_gcc.h **** 
 618:Drivers/CMSIS/Include/cmsis_gcc.h **** 
 619:Drivers/CMSIS/Include/cmsis_gcc.h **** /**
 620:Drivers/CMSIS/Include/cmsis_gcc.h ****   \brief   Set Fault Mask
 621:Drivers/CMSIS/Include/cmsis_gcc.h ****   \details Assigns the given value to the Fault Mask register.
 622:Drivers/CMSIS/Include/cmsis_gcc.h ****   \param [in]    faultMask  Fault Mask value to set
 623:Drivers/CMSIS/Include/cmsis_gcc.h ****  */
 624:Drivers/CMSIS/Include/cmsis_gcc.h **** __STATIC_FORCEINLINE void __set_FAULTMASK(uint32_t faultMask)
 625:Drivers/CMSIS/Include/cmsis_gcc.h **** {
 626:Drivers/CMSIS/Include/cmsis_gcc.h ****   __ASM volatile ("MSR faultmask, %0" : : "r" (faultMask) : "memory");
 627:Drivers/CMSIS/Include/cmsis_gcc.h **** }
 628:Drivers/CMSIS/Include/cmsis_gcc.h **** 
 629:Drivers/CMSIS/Include/cmsis_gcc.h **** 
 630:Drivers/CMSIS/Include/cmsis_gcc.h **** #if (defined (__ARM_FEATURE_CMSE ) && (__ARM_FEATURE_CMSE == 3))
 631:Drivers/CMSIS/Include/cmsis_gcc.h **** /**
 632:Drivers/CMSIS/Include/cmsis_gcc.h ****   \brief   Set Fault Mask (non-secure)
 633:Drivers/CMSIS/Include/cmsis_gcc.h ****   \details Assigns the given value to the non-secure Fault Mask register when in secure state.
 634:Drivers/CMSIS/Include/cmsis_gcc.h ****   \param [in]    faultMask  Fault Mask value to set
 635:Drivers/CMSIS/Include/cmsis_gcc.h ****  */
 636:Drivers/CMSIS/Include/cmsis_gcc.h **** __STATIC_FORCEINLINE void __TZ_set_FAULTMASK_NS(uint32_t faultMask)
 637:Drivers/CMSIS/Include/cmsis_gcc.h **** {
 638:Drivers/CMSIS/Include/cmsis_gcc.h ****   __ASM volatile ("MSR faultmask_ns, %0" : : "r" (faultMask) : "memory");
 639:Drivers/CMSIS/Include/cmsis_gcc.h **** }
 640:Drivers/CMSIS/Include/cmsis_gcc.h **** #endif
 641:Drivers/CMSIS/Include/cmsis_gcc.h **** 
 642:Drivers/CMSIS/Include/cmsis_gcc.h **** #endif /* ((defined (__ARM_ARCH_7M__      ) && (__ARM_ARCH_7M__      == 1)) || \
 643:Drivers/CMSIS/Include/cmsis_gcc.h ****            (defined (__ARM_ARCH_7EM__     ) && (__ARM_ARCH_7EM__     == 1)) || \
 644:Drivers/CMSIS/Include/cmsis_gcc.h ****            (defined (__ARM_ARCH_8M_MAIN__ ) && (__ARM_ARCH_8M_MAIN__ == 1))    ) */
 645:Drivers/CMSIS/Include/cmsis_gcc.h **** 
 646:Drivers/CMSIS/Include/cmsis_gcc.h **** 
 647:Drivers/CMSIS/Include/cmsis_gcc.h **** #if ((defined (__ARM_ARCH_8M_MAIN__ ) && (__ARM_ARCH_8M_MAIN__ == 1)) || \
 648:Drivers/CMSIS/Include/cmsis_gcc.h ****      (defined (__ARM_ARCH_8M_BASE__ ) && (__ARM_ARCH_8M_BASE__ == 1))    )
 649:Drivers/CMSIS/Include/cmsis_gcc.h **** 
 650:Drivers/CMSIS/Include/cmsis_gcc.h **** /**
 651:Drivers/CMSIS/Include/cmsis_gcc.h ****   \brief   Get Process Stack Pointer Limit
 652:Drivers/CMSIS/Include/cmsis_gcc.h ****   Devices without ARMv8-M Main Extensions (i.e. Cortex-M23) lack the non-secure
 653:Drivers/CMSIS/Include/cmsis_gcc.h ****   Stack Pointer Limit register hence zero is returned always in non-secure
ARM GAS  /tmp/cc68FHKf.s 			page 37


 654:Drivers/CMSIS/Include/cmsis_gcc.h ****   mode.
 655:Drivers/CMSIS/Include/cmsis_gcc.h ****   
 656:Drivers/CMSIS/Include/cmsis_gcc.h ****   \details Returns the current value of the Process Stack Pointer Limit (PSPLIM).
 657:Drivers/CMSIS/Include/cmsis_gcc.h ****   \return               PSPLIM Register value
 658:Drivers/CMSIS/Include/cmsis_gcc.h ****  */
 659:Drivers/CMSIS/Include/cmsis_gcc.h **** __STATIC_FORCEINLINE uint32_t __get_PSPLIM(void)
 660:Drivers/CMSIS/Include/cmsis_gcc.h **** {
 661:Drivers/CMSIS/Include/cmsis_gcc.h **** #if (!(defined (__ARM_ARCH_8M_MAIN__ ) && (__ARM_ARCH_8M_MAIN__ == 1)) && \
 662:Drivers/CMSIS/Include/cmsis_gcc.h ****     (!defined (__ARM_FEATURE_CMSE) || (__ARM_FEATURE_CMSE < 3)))
 663:Drivers/CMSIS/Include/cmsis_gcc.h ****     // without main extensions, the non-secure PSPLIM is RAZ/WI
 664:Drivers/CMSIS/Include/cmsis_gcc.h ****   return 0U;
 665:Drivers/CMSIS/Include/cmsis_gcc.h **** #else
 666:Drivers/CMSIS/Include/cmsis_gcc.h ****   uint32_t result;
 667:Drivers/CMSIS/Include/cmsis_gcc.h ****   __ASM volatile ("MRS %0, psplim"  : "=r" (result) );
 668:Drivers/CMSIS/Include/cmsis_gcc.h ****   return result;
 669:Drivers/CMSIS/Include/cmsis_gcc.h **** #endif
 670:Drivers/CMSIS/Include/cmsis_gcc.h **** }
 671:Drivers/CMSIS/Include/cmsis_gcc.h **** 
 672:Drivers/CMSIS/Include/cmsis_gcc.h **** #if (defined (__ARM_FEATURE_CMSE) && (__ARM_FEATURE_CMSE == 3))
 673:Drivers/CMSIS/Include/cmsis_gcc.h **** /**
 674:Drivers/CMSIS/Include/cmsis_gcc.h ****   \brief   Get Process Stack Pointer Limit (non-secure)
 675:Drivers/CMSIS/Include/cmsis_gcc.h ****   Devices without ARMv8-M Main Extensions (i.e. Cortex-M23) lack the non-secure
 676:Drivers/CMSIS/Include/cmsis_gcc.h ****   Stack Pointer Limit register hence zero is returned always.
 677:Drivers/CMSIS/Include/cmsis_gcc.h **** 
 678:Drivers/CMSIS/Include/cmsis_gcc.h ****   \details Returns the current value of the non-secure Process Stack Pointer Limit (PSPLIM) when in
 679:Drivers/CMSIS/Include/cmsis_gcc.h ****   \return               PSPLIM Register value
 680:Drivers/CMSIS/Include/cmsis_gcc.h ****  */
 681:Drivers/CMSIS/Include/cmsis_gcc.h **** __STATIC_FORCEINLINE uint32_t __TZ_get_PSPLIM_NS(void)
 682:Drivers/CMSIS/Include/cmsis_gcc.h **** {
 683:Drivers/CMSIS/Include/cmsis_gcc.h **** #if (!(defined (__ARM_ARCH_8M_MAIN__ ) && (__ARM_ARCH_8M_MAIN__ == 1)))
 684:Drivers/CMSIS/Include/cmsis_gcc.h ****   // without main extensions, the non-secure PSPLIM is RAZ/WI
 685:Drivers/CMSIS/Include/cmsis_gcc.h ****   return 0U;
 686:Drivers/CMSIS/Include/cmsis_gcc.h **** #else
 687:Drivers/CMSIS/Include/cmsis_gcc.h ****   uint32_t result;
 688:Drivers/CMSIS/Include/cmsis_gcc.h ****   __ASM volatile ("MRS %0, psplim_ns"  : "=r" (result) );
 689:Drivers/CMSIS/Include/cmsis_gcc.h ****   return result;
 690:Drivers/CMSIS/Include/cmsis_gcc.h **** #endif
 691:Drivers/CMSIS/Include/cmsis_gcc.h **** }
 692:Drivers/CMSIS/Include/cmsis_gcc.h **** #endif
 693:Drivers/CMSIS/Include/cmsis_gcc.h **** 
 694:Drivers/CMSIS/Include/cmsis_gcc.h **** 
 695:Drivers/CMSIS/Include/cmsis_gcc.h **** /**
 696:Drivers/CMSIS/Include/cmsis_gcc.h ****   \brief   Set Process Stack Pointer Limit
 697:Drivers/CMSIS/Include/cmsis_gcc.h ****   Devices without ARMv8-M Main Extensions (i.e. Cortex-M23) lack the non-secure
 698:Drivers/CMSIS/Include/cmsis_gcc.h ****   Stack Pointer Limit register hence the write is silently ignored in non-secure
 699:Drivers/CMSIS/Include/cmsis_gcc.h ****   mode.
 700:Drivers/CMSIS/Include/cmsis_gcc.h ****   
 701:Drivers/CMSIS/Include/cmsis_gcc.h ****   \details Assigns the given value to the Process Stack Pointer Limit (PSPLIM).
 702:Drivers/CMSIS/Include/cmsis_gcc.h ****   \param [in]    ProcStackPtrLimit  Process Stack Pointer Limit value to set
 703:Drivers/CMSIS/Include/cmsis_gcc.h ****  */
 704:Drivers/CMSIS/Include/cmsis_gcc.h **** __STATIC_FORCEINLINE void __set_PSPLIM(uint32_t ProcStackPtrLimit)
 705:Drivers/CMSIS/Include/cmsis_gcc.h **** {
 706:Drivers/CMSIS/Include/cmsis_gcc.h **** #if (!(defined (__ARM_ARCH_8M_MAIN__ ) && (__ARM_ARCH_8M_MAIN__ == 1)) && \
 707:Drivers/CMSIS/Include/cmsis_gcc.h ****     (!defined (__ARM_FEATURE_CMSE) || (__ARM_FEATURE_CMSE < 3)))
 708:Drivers/CMSIS/Include/cmsis_gcc.h ****   // without main extensions, the non-secure PSPLIM is RAZ/WI
 709:Drivers/CMSIS/Include/cmsis_gcc.h ****   (void)ProcStackPtrLimit;
 710:Drivers/CMSIS/Include/cmsis_gcc.h **** #else
ARM GAS  /tmp/cc68FHKf.s 			page 38


 711:Drivers/CMSIS/Include/cmsis_gcc.h ****   __ASM volatile ("MSR psplim, %0" : : "r" (ProcStackPtrLimit));
 712:Drivers/CMSIS/Include/cmsis_gcc.h **** #endif
 713:Drivers/CMSIS/Include/cmsis_gcc.h **** }
 714:Drivers/CMSIS/Include/cmsis_gcc.h **** 
 715:Drivers/CMSIS/Include/cmsis_gcc.h **** 
 716:Drivers/CMSIS/Include/cmsis_gcc.h **** #if (defined (__ARM_FEATURE_CMSE  ) && (__ARM_FEATURE_CMSE   == 3))
 717:Drivers/CMSIS/Include/cmsis_gcc.h **** /**
 718:Drivers/CMSIS/Include/cmsis_gcc.h ****   \brief   Set Process Stack Pointer (non-secure)
 719:Drivers/CMSIS/Include/cmsis_gcc.h ****   Devices without ARMv8-M Main Extensions (i.e. Cortex-M23) lack the non-secure
 720:Drivers/CMSIS/Include/cmsis_gcc.h ****   Stack Pointer Limit register hence the write is silently ignored.
 721:Drivers/CMSIS/Include/cmsis_gcc.h **** 
 722:Drivers/CMSIS/Include/cmsis_gcc.h ****   \details Assigns the given value to the non-secure Process Stack Pointer Limit (PSPLIM) when in s
 723:Drivers/CMSIS/Include/cmsis_gcc.h ****   \param [in]    ProcStackPtrLimit  Process Stack Pointer Limit value to set
 724:Drivers/CMSIS/Include/cmsis_gcc.h ****  */
 725:Drivers/CMSIS/Include/cmsis_gcc.h **** __STATIC_FORCEINLINE void __TZ_set_PSPLIM_NS(uint32_t ProcStackPtrLimit)
 726:Drivers/CMSIS/Include/cmsis_gcc.h **** {
 727:Drivers/CMSIS/Include/cmsis_gcc.h **** #if (!(defined (__ARM_ARCH_8M_MAIN__ ) && (__ARM_ARCH_8M_MAIN__ == 1)))
 728:Drivers/CMSIS/Include/cmsis_gcc.h ****   // without main extensions, the non-secure PSPLIM is RAZ/WI
 729:Drivers/CMSIS/Include/cmsis_gcc.h ****   (void)ProcStackPtrLimit;
 730:Drivers/CMSIS/Include/cmsis_gcc.h **** #else
 731:Drivers/CMSIS/Include/cmsis_gcc.h ****   __ASM volatile ("MSR psplim_ns, %0\n" : : "r" (ProcStackPtrLimit));
 732:Drivers/CMSIS/Include/cmsis_gcc.h **** #endif
 733:Drivers/CMSIS/Include/cmsis_gcc.h **** }
 734:Drivers/CMSIS/Include/cmsis_gcc.h **** #endif
 735:Drivers/CMSIS/Include/cmsis_gcc.h **** 
 736:Drivers/CMSIS/Include/cmsis_gcc.h **** 
 737:Drivers/CMSIS/Include/cmsis_gcc.h **** /**
 738:Drivers/CMSIS/Include/cmsis_gcc.h ****   \brief   Get Main Stack Pointer Limit
 739:Drivers/CMSIS/Include/cmsis_gcc.h ****   Devices without ARMv8-M Main Extensions (i.e. Cortex-M23) lack the non-secure
 740:Drivers/CMSIS/Include/cmsis_gcc.h ****   Stack Pointer Limit register hence zero is returned always in non-secure
 741:Drivers/CMSIS/Include/cmsis_gcc.h ****   mode.
 742:Drivers/CMSIS/Include/cmsis_gcc.h **** 
 743:Drivers/CMSIS/Include/cmsis_gcc.h ****   \details Returns the current value of the Main Stack Pointer Limit (MSPLIM).
 744:Drivers/CMSIS/Include/cmsis_gcc.h ****   \return               MSPLIM Register value
 745:Drivers/CMSIS/Include/cmsis_gcc.h ****  */
 746:Drivers/CMSIS/Include/cmsis_gcc.h **** __STATIC_FORCEINLINE uint32_t __get_MSPLIM(void)
 747:Drivers/CMSIS/Include/cmsis_gcc.h **** {
 748:Drivers/CMSIS/Include/cmsis_gcc.h **** #if (!(defined (__ARM_ARCH_8M_MAIN__ ) && (__ARM_ARCH_8M_MAIN__ == 1)) && \
 749:Drivers/CMSIS/Include/cmsis_gcc.h ****     (!defined (__ARM_FEATURE_CMSE) || (__ARM_FEATURE_CMSE < 3)))
 750:Drivers/CMSIS/Include/cmsis_gcc.h ****   // without main extensions, the non-secure MSPLIM is RAZ/WI
 751:Drivers/CMSIS/Include/cmsis_gcc.h ****   return 0U;
 752:Drivers/CMSIS/Include/cmsis_gcc.h **** #else
 753:Drivers/CMSIS/Include/cmsis_gcc.h ****   uint32_t result;
 754:Drivers/CMSIS/Include/cmsis_gcc.h ****   __ASM volatile ("MRS %0, msplim" : "=r" (result) );
 755:Drivers/CMSIS/Include/cmsis_gcc.h ****   return result;
 756:Drivers/CMSIS/Include/cmsis_gcc.h **** #endif
 757:Drivers/CMSIS/Include/cmsis_gcc.h **** }
 758:Drivers/CMSIS/Include/cmsis_gcc.h **** 
 759:Drivers/CMSIS/Include/cmsis_gcc.h **** 
 760:Drivers/CMSIS/Include/cmsis_gcc.h **** #if (defined (__ARM_FEATURE_CMSE  ) && (__ARM_FEATURE_CMSE   == 3))
 761:Drivers/CMSIS/Include/cmsis_gcc.h **** /**
 762:Drivers/CMSIS/Include/cmsis_gcc.h ****   \brief   Get Main Stack Pointer Limit (non-secure)
 763:Drivers/CMSIS/Include/cmsis_gcc.h ****   Devices without ARMv8-M Main Extensions (i.e. Cortex-M23) lack the non-secure
 764:Drivers/CMSIS/Include/cmsis_gcc.h ****   Stack Pointer Limit register hence zero is returned always.
 765:Drivers/CMSIS/Include/cmsis_gcc.h **** 
 766:Drivers/CMSIS/Include/cmsis_gcc.h ****   \details Returns the current value of the non-secure Main Stack Pointer Limit(MSPLIM) when in sec
 767:Drivers/CMSIS/Include/cmsis_gcc.h ****   \return               MSPLIM Register value
ARM GAS  /tmp/cc68FHKf.s 			page 39


 768:Drivers/CMSIS/Include/cmsis_gcc.h ****  */
 769:Drivers/CMSIS/Include/cmsis_gcc.h **** __STATIC_FORCEINLINE uint32_t __TZ_get_MSPLIM_NS(void)
 770:Drivers/CMSIS/Include/cmsis_gcc.h **** {
 771:Drivers/CMSIS/Include/cmsis_gcc.h **** #if (!(defined (__ARM_ARCH_8M_MAIN__ ) && (__ARM_ARCH_8M_MAIN__ == 1)))
 772:Drivers/CMSIS/Include/cmsis_gcc.h ****   // without main extensions, the non-secure MSPLIM is RAZ/WI
 773:Drivers/CMSIS/Include/cmsis_gcc.h ****   return 0U;
 774:Drivers/CMSIS/Include/cmsis_gcc.h **** #else
 775:Drivers/CMSIS/Include/cmsis_gcc.h ****   uint32_t result;
 776:Drivers/CMSIS/Include/cmsis_gcc.h ****   __ASM volatile ("MRS %0, msplim_ns" : "=r" (result) );
 777:Drivers/CMSIS/Include/cmsis_gcc.h ****   return result;
 778:Drivers/CMSIS/Include/cmsis_gcc.h **** #endif
 779:Drivers/CMSIS/Include/cmsis_gcc.h **** }
 780:Drivers/CMSIS/Include/cmsis_gcc.h **** #endif
 781:Drivers/CMSIS/Include/cmsis_gcc.h **** 
 782:Drivers/CMSIS/Include/cmsis_gcc.h **** 
 783:Drivers/CMSIS/Include/cmsis_gcc.h **** /**
 784:Drivers/CMSIS/Include/cmsis_gcc.h ****   \brief   Set Main Stack Pointer Limit
 785:Drivers/CMSIS/Include/cmsis_gcc.h ****   Devices without ARMv8-M Main Extensions (i.e. Cortex-M23) lack the non-secure
 786:Drivers/CMSIS/Include/cmsis_gcc.h ****   Stack Pointer Limit register hence the write is silently ignored in non-secure
 787:Drivers/CMSIS/Include/cmsis_gcc.h ****   mode.
 788:Drivers/CMSIS/Include/cmsis_gcc.h **** 
 789:Drivers/CMSIS/Include/cmsis_gcc.h ****   \details Assigns the given value to the Main Stack Pointer Limit (MSPLIM).
 790:Drivers/CMSIS/Include/cmsis_gcc.h ****   \param [in]    MainStackPtrLimit  Main Stack Pointer Limit value to set
 791:Drivers/CMSIS/Include/cmsis_gcc.h ****  */
 792:Drivers/CMSIS/Include/cmsis_gcc.h **** __STATIC_FORCEINLINE void __set_MSPLIM(uint32_t MainStackPtrLimit)
 793:Drivers/CMSIS/Include/cmsis_gcc.h **** {
 794:Drivers/CMSIS/Include/cmsis_gcc.h **** #if (!(defined (__ARM_ARCH_8M_MAIN__ ) && (__ARM_ARCH_8M_MAIN__ == 1)) && \
 795:Drivers/CMSIS/Include/cmsis_gcc.h ****     (!defined (__ARM_FEATURE_CMSE) || (__ARM_FEATURE_CMSE < 3)))
 796:Drivers/CMSIS/Include/cmsis_gcc.h ****   // without main extensions, the non-secure MSPLIM is RAZ/WI
 797:Drivers/CMSIS/Include/cmsis_gcc.h ****   (void)MainStackPtrLimit;
 798:Drivers/CMSIS/Include/cmsis_gcc.h **** #else
 799:Drivers/CMSIS/Include/cmsis_gcc.h ****   __ASM volatile ("MSR msplim, %0" : : "r" (MainStackPtrLimit));
 800:Drivers/CMSIS/Include/cmsis_gcc.h **** #endif
 801:Drivers/CMSIS/Include/cmsis_gcc.h **** }
 802:Drivers/CMSIS/Include/cmsis_gcc.h **** 
 803:Drivers/CMSIS/Include/cmsis_gcc.h **** 
 804:Drivers/CMSIS/Include/cmsis_gcc.h **** #if (defined (__ARM_FEATURE_CMSE  ) && (__ARM_FEATURE_CMSE   == 3))
 805:Drivers/CMSIS/Include/cmsis_gcc.h **** /**
 806:Drivers/CMSIS/Include/cmsis_gcc.h ****   \brief   Set Main Stack Pointer Limit (non-secure)
 807:Drivers/CMSIS/Include/cmsis_gcc.h ****   Devices without ARMv8-M Main Extensions (i.e. Cortex-M23) lack the non-secure
 808:Drivers/CMSIS/Include/cmsis_gcc.h ****   Stack Pointer Limit register hence the write is silently ignored.
 809:Drivers/CMSIS/Include/cmsis_gcc.h **** 
 810:Drivers/CMSIS/Include/cmsis_gcc.h ****   \details Assigns the given value to the non-secure Main Stack Pointer Limit (MSPLIM) when in secu
 811:Drivers/CMSIS/Include/cmsis_gcc.h ****   \param [in]    MainStackPtrLimit  Main Stack Pointer value to set
 812:Drivers/CMSIS/Include/cmsis_gcc.h ****  */
 813:Drivers/CMSIS/Include/cmsis_gcc.h **** __STATIC_FORCEINLINE void __TZ_set_MSPLIM_NS(uint32_t MainStackPtrLimit)
 814:Drivers/CMSIS/Include/cmsis_gcc.h **** {
 815:Drivers/CMSIS/Include/cmsis_gcc.h **** #if (!(defined (__ARM_ARCH_8M_MAIN__ ) && (__ARM_ARCH_8M_MAIN__ == 1)))
 816:Drivers/CMSIS/Include/cmsis_gcc.h ****   // without main extensions, the non-secure MSPLIM is RAZ/WI
 817:Drivers/CMSIS/Include/cmsis_gcc.h ****   (void)MainStackPtrLimit;
 818:Drivers/CMSIS/Include/cmsis_gcc.h **** #else
 819:Drivers/CMSIS/Include/cmsis_gcc.h ****   __ASM volatile ("MSR msplim_ns, %0" : : "r" (MainStackPtrLimit));
 820:Drivers/CMSIS/Include/cmsis_gcc.h **** #endif
 821:Drivers/CMSIS/Include/cmsis_gcc.h **** }
 822:Drivers/CMSIS/Include/cmsis_gcc.h **** #endif
 823:Drivers/CMSIS/Include/cmsis_gcc.h **** 
 824:Drivers/CMSIS/Include/cmsis_gcc.h **** #endif /* ((defined (__ARM_ARCH_8M_MAIN__ ) && (__ARM_ARCH_8M_MAIN__ == 1)) || \
ARM GAS  /tmp/cc68FHKf.s 			page 40


 825:Drivers/CMSIS/Include/cmsis_gcc.h ****            (defined (__ARM_ARCH_8M_BASE__ ) && (__ARM_ARCH_8M_BASE__ == 1))    ) */
 826:Drivers/CMSIS/Include/cmsis_gcc.h **** 
 827:Drivers/CMSIS/Include/cmsis_gcc.h **** 
 828:Drivers/CMSIS/Include/cmsis_gcc.h **** /**
 829:Drivers/CMSIS/Include/cmsis_gcc.h ****   \brief   Get FPSCR
 830:Drivers/CMSIS/Include/cmsis_gcc.h ****   \details Returns the current value of the Floating Point Status/Control register.
 831:Drivers/CMSIS/Include/cmsis_gcc.h ****   \return               Floating Point Status/Control register value
 832:Drivers/CMSIS/Include/cmsis_gcc.h ****  */
 833:Drivers/CMSIS/Include/cmsis_gcc.h **** __STATIC_FORCEINLINE uint32_t __get_FPSCR(void)
 834:Drivers/CMSIS/Include/cmsis_gcc.h **** {
 835:Drivers/CMSIS/Include/cmsis_gcc.h **** #if ((defined (__FPU_PRESENT) && (__FPU_PRESENT == 1U)) && \
 836:Drivers/CMSIS/Include/cmsis_gcc.h ****      (defined (__FPU_USED   ) && (__FPU_USED    == 1U))     )
 837:Drivers/CMSIS/Include/cmsis_gcc.h **** #if __has_builtin(__builtin_arm_get_fpscr) 
 838:Drivers/CMSIS/Include/cmsis_gcc.h **** // Re-enable using built-in when GCC has been fixed
 839:Drivers/CMSIS/Include/cmsis_gcc.h **** // || (__GNUC__ > 7) || (__GNUC__ == 7 && __GNUC_MINOR__ >= 2)
 840:Drivers/CMSIS/Include/cmsis_gcc.h ****   /* see https://gcc.gnu.org/ml/gcc-patches/2017-04/msg00443.html */
 841:Drivers/CMSIS/Include/cmsis_gcc.h ****   return __builtin_arm_get_fpscr();
 842:Drivers/CMSIS/Include/cmsis_gcc.h **** #else
 843:Drivers/CMSIS/Include/cmsis_gcc.h ****   uint32_t result;
 844:Drivers/CMSIS/Include/cmsis_gcc.h **** 
 845:Drivers/CMSIS/Include/cmsis_gcc.h ****   __ASM volatile ("VMRS %0, fpscr" : "=r" (result) );
 846:Drivers/CMSIS/Include/cmsis_gcc.h ****   return(result);
 847:Drivers/CMSIS/Include/cmsis_gcc.h **** #endif
 848:Drivers/CMSIS/Include/cmsis_gcc.h **** #else
 849:Drivers/CMSIS/Include/cmsis_gcc.h ****   return(0U);
 850:Drivers/CMSIS/Include/cmsis_gcc.h **** #endif
 851:Drivers/CMSIS/Include/cmsis_gcc.h **** }
 852:Drivers/CMSIS/Include/cmsis_gcc.h **** 
 853:Drivers/CMSIS/Include/cmsis_gcc.h **** 
 854:Drivers/CMSIS/Include/cmsis_gcc.h **** /**
 855:Drivers/CMSIS/Include/cmsis_gcc.h ****   \brief   Set FPSCR
 856:Drivers/CMSIS/Include/cmsis_gcc.h ****   \details Assigns the given value to the Floating Point Status/Control register.
 857:Drivers/CMSIS/Include/cmsis_gcc.h ****   \param [in]    fpscr  Floating Point Status/Control value to set
 858:Drivers/CMSIS/Include/cmsis_gcc.h ****  */
 859:Drivers/CMSIS/Include/cmsis_gcc.h **** __STATIC_FORCEINLINE void __set_FPSCR(uint32_t fpscr)
 860:Drivers/CMSIS/Include/cmsis_gcc.h **** {
 861:Drivers/CMSIS/Include/cmsis_gcc.h **** #if ((defined (__FPU_PRESENT) && (__FPU_PRESENT == 1U)) && \
 862:Drivers/CMSIS/Include/cmsis_gcc.h ****      (defined (__FPU_USED   ) && (__FPU_USED    == 1U))     )
 863:Drivers/CMSIS/Include/cmsis_gcc.h **** #if __has_builtin(__builtin_arm_set_fpscr)
 864:Drivers/CMSIS/Include/cmsis_gcc.h **** // Re-enable using built-in when GCC has been fixed
 865:Drivers/CMSIS/Include/cmsis_gcc.h **** // || (__GNUC__ > 7) || (__GNUC__ == 7 && __GNUC_MINOR__ >= 2)
 866:Drivers/CMSIS/Include/cmsis_gcc.h ****   /* see https://gcc.gnu.org/ml/gcc-patches/2017-04/msg00443.html */
 867:Drivers/CMSIS/Include/cmsis_gcc.h ****   __builtin_arm_set_fpscr(fpscr);
 868:Drivers/CMSIS/Include/cmsis_gcc.h **** #else
 869:Drivers/CMSIS/Include/cmsis_gcc.h ****   __ASM volatile ("VMSR fpscr, %0" : : "r" (fpscr) : "vfpcc", "memory");
 870:Drivers/CMSIS/Include/cmsis_gcc.h **** #endif
 871:Drivers/CMSIS/Include/cmsis_gcc.h **** #else
 872:Drivers/CMSIS/Include/cmsis_gcc.h ****   (void)fpscr;
 873:Drivers/CMSIS/Include/cmsis_gcc.h **** #endif
 874:Drivers/CMSIS/Include/cmsis_gcc.h **** }
 875:Drivers/CMSIS/Include/cmsis_gcc.h **** 
 876:Drivers/CMSIS/Include/cmsis_gcc.h **** 
 877:Drivers/CMSIS/Include/cmsis_gcc.h **** /*@} end of CMSIS_Core_RegAccFunctions */
 878:Drivers/CMSIS/Include/cmsis_gcc.h **** 
 879:Drivers/CMSIS/Include/cmsis_gcc.h **** 
 880:Drivers/CMSIS/Include/cmsis_gcc.h **** /* ##########################  Core Instruction Access  ######################### */
 881:Drivers/CMSIS/Include/cmsis_gcc.h **** /** \defgroup CMSIS_Core_InstructionInterface CMSIS Core Instruction Interface
ARM GAS  /tmp/cc68FHKf.s 			page 41


 882:Drivers/CMSIS/Include/cmsis_gcc.h ****   Access to dedicated instructions
 883:Drivers/CMSIS/Include/cmsis_gcc.h ****   @{
 884:Drivers/CMSIS/Include/cmsis_gcc.h **** */
 885:Drivers/CMSIS/Include/cmsis_gcc.h **** 
 886:Drivers/CMSIS/Include/cmsis_gcc.h **** /* Define macros for porting to both thumb1 and thumb2.
 887:Drivers/CMSIS/Include/cmsis_gcc.h ****  * For thumb1, use low register (r0-r7), specified by constraint "l"
 888:Drivers/CMSIS/Include/cmsis_gcc.h ****  * Otherwise, use general registers, specified by constraint "r" */
 889:Drivers/CMSIS/Include/cmsis_gcc.h **** #if defined (__thumb__) && !defined (__thumb2__)
 890:Drivers/CMSIS/Include/cmsis_gcc.h **** #define __CMSIS_GCC_OUT_REG(r) "=l" (r)
 891:Drivers/CMSIS/Include/cmsis_gcc.h **** #define __CMSIS_GCC_RW_REG(r) "+l" (r)
 892:Drivers/CMSIS/Include/cmsis_gcc.h **** #define __CMSIS_GCC_USE_REG(r) "l" (r)
 893:Drivers/CMSIS/Include/cmsis_gcc.h **** #else
 894:Drivers/CMSIS/Include/cmsis_gcc.h **** #define __CMSIS_GCC_OUT_REG(r) "=r" (r)
 895:Drivers/CMSIS/Include/cmsis_gcc.h **** #define __CMSIS_GCC_RW_REG(r) "+r" (r)
 896:Drivers/CMSIS/Include/cmsis_gcc.h **** #define __CMSIS_GCC_USE_REG(r) "r" (r)
 897:Drivers/CMSIS/Include/cmsis_gcc.h **** #endif
 898:Drivers/CMSIS/Include/cmsis_gcc.h **** 
 899:Drivers/CMSIS/Include/cmsis_gcc.h **** /**
 900:Drivers/CMSIS/Include/cmsis_gcc.h ****   \brief   No Operation
 901:Drivers/CMSIS/Include/cmsis_gcc.h ****   \details No Operation does nothing. This instruction can be used for code alignment purposes.
 902:Drivers/CMSIS/Include/cmsis_gcc.h ****  */
 903:Drivers/CMSIS/Include/cmsis_gcc.h **** #define __NOP()                             __ASM volatile ("nop")
 904:Drivers/CMSIS/Include/cmsis_gcc.h **** 
 905:Drivers/CMSIS/Include/cmsis_gcc.h **** /**
 906:Drivers/CMSIS/Include/cmsis_gcc.h ****   \brief   Wait For Interrupt
 907:Drivers/CMSIS/Include/cmsis_gcc.h ****   \details Wait For Interrupt is a hint instruction that suspends execution until one of a number o
 908:Drivers/CMSIS/Include/cmsis_gcc.h ****  */
 909:Drivers/CMSIS/Include/cmsis_gcc.h **** #define __WFI()                             __ASM volatile ("wfi")
 910:Drivers/CMSIS/Include/cmsis_gcc.h **** 
 911:Drivers/CMSIS/Include/cmsis_gcc.h **** 
 912:Drivers/CMSIS/Include/cmsis_gcc.h **** /**
 913:Drivers/CMSIS/Include/cmsis_gcc.h ****   \brief   Wait For Event
 914:Drivers/CMSIS/Include/cmsis_gcc.h ****   \details Wait For Event is a hint instruction that permits the processor to enter
 915:Drivers/CMSIS/Include/cmsis_gcc.h ****            a low-power state until one of a number of events occurs.
 916:Drivers/CMSIS/Include/cmsis_gcc.h ****  */
 917:Drivers/CMSIS/Include/cmsis_gcc.h **** #define __WFE()                             __ASM volatile ("wfe")
 918:Drivers/CMSIS/Include/cmsis_gcc.h **** 
 919:Drivers/CMSIS/Include/cmsis_gcc.h **** 
 920:Drivers/CMSIS/Include/cmsis_gcc.h **** /**
 921:Drivers/CMSIS/Include/cmsis_gcc.h ****   \brief   Send Event
 922:Drivers/CMSIS/Include/cmsis_gcc.h ****   \details Send Event is a hint instruction. It causes an event to be signaled to the CPU.
 923:Drivers/CMSIS/Include/cmsis_gcc.h ****  */
 924:Drivers/CMSIS/Include/cmsis_gcc.h **** #define __SEV()                             __ASM volatile ("sev")
 925:Drivers/CMSIS/Include/cmsis_gcc.h **** 
 926:Drivers/CMSIS/Include/cmsis_gcc.h **** 
 927:Drivers/CMSIS/Include/cmsis_gcc.h **** /**
 928:Drivers/CMSIS/Include/cmsis_gcc.h ****   \brief   Instruction Synchronization Barrier
 929:Drivers/CMSIS/Include/cmsis_gcc.h ****   \details Instruction Synchronization Barrier flushes the pipeline in the processor,
 930:Drivers/CMSIS/Include/cmsis_gcc.h ****            so that all instructions following the ISB are fetched from cache or memory,
 931:Drivers/CMSIS/Include/cmsis_gcc.h ****            after the instruction has been completed.
 932:Drivers/CMSIS/Include/cmsis_gcc.h ****  */
 933:Drivers/CMSIS/Include/cmsis_gcc.h **** __STATIC_FORCEINLINE void __ISB(void)
 934:Drivers/CMSIS/Include/cmsis_gcc.h **** {
 935:Drivers/CMSIS/Include/cmsis_gcc.h ****   __ASM volatile ("isb 0xF":::"memory");
 936:Drivers/CMSIS/Include/cmsis_gcc.h **** }
 937:Drivers/CMSIS/Include/cmsis_gcc.h **** 
 938:Drivers/CMSIS/Include/cmsis_gcc.h **** 
ARM GAS  /tmp/cc68FHKf.s 			page 42


 939:Drivers/CMSIS/Include/cmsis_gcc.h **** /**
 940:Drivers/CMSIS/Include/cmsis_gcc.h ****   \brief   Data Synchronization Barrier
 941:Drivers/CMSIS/Include/cmsis_gcc.h ****   \details Acts as a special kind of Data Memory Barrier.
 942:Drivers/CMSIS/Include/cmsis_gcc.h ****            It completes when all explicit memory accesses before this instruction complete.
 943:Drivers/CMSIS/Include/cmsis_gcc.h ****  */
 944:Drivers/CMSIS/Include/cmsis_gcc.h **** __STATIC_FORCEINLINE void __DSB(void)
 501              		.loc 2 944 27 view .LVU134
 502              	.LBB23:
 945:Drivers/CMSIS/Include/cmsis_gcc.h **** {
 946:Drivers/CMSIS/Include/cmsis_gcc.h ****   __ASM volatile ("dsb 0xF":::"memory");
 503              		.loc 2 946 3 view .LVU135
 504              		.syntax unified
 505              	@ 946 "Drivers/CMSIS/Include/cmsis_gcc.h" 1
 506 0022 BFF34F8F 		dsb 0xF
 507              	@ 0 "" 2
 508              		.thumb
 509              		.syntax unified
 510              	.LBE23:
 511              	.LBE22:
 849:Drivers/STM32H7xx_HAL_Driver/Src/stm32h7xx_hal_pwr_ex.c ****     __ISB ();
 512              		.loc 1 849 5 view .LVU136
 513              	.LBB24:
 514              	.LBI24:
 933:Drivers/CMSIS/Include/cmsis_gcc.h **** {
 515              		.loc 2 933 27 view .LVU137
 516              	.LBB25:
 935:Drivers/CMSIS/Include/cmsis_gcc.h **** }
 517              		.loc 2 935 3 view .LVU138
 518              		.syntax unified
 519              	@ 935 "Drivers/CMSIS/Include/cmsis_gcc.h" 1
 520 0026 BFF36F8F 		isb 0xF
 521              	@ 0 "" 2
 522              		.thumb
 523              		.syntax unified
 524              	.LBE25:
 525              	.LBE24:
 850:Drivers/STM32H7xx_HAL_Driver/Src/stm32h7xx_hal_pwr_ex.c **** 
 851:Drivers/STM32H7xx_HAL_Driver/Src/stm32h7xx_hal_pwr_ex.c ****     /* Select Stop mode entry */
 852:Drivers/STM32H7xx_HAL_Driver/Src/stm32h7xx_hal_pwr_ex.c ****     if (STOPEntry == PWR_STOPENTRY_WFI)
 526              		.loc 1 852 5 view .LVU139
 527              		.loc 1 852 8 is_stmt 0 view .LVU140
 528 002a 0129     		cmp	r1, #1
 529 002c 12D0     		beq	.L53
 853:Drivers/STM32H7xx_HAL_Driver/Src/stm32h7xx_hal_pwr_ex.c ****     {
 854:Drivers/STM32H7xx_HAL_Driver/Src/stm32h7xx_hal_pwr_ex.c ****       /* Request Wait For Interrupt */
 855:Drivers/STM32H7xx_HAL_Driver/Src/stm32h7xx_hal_pwr_ex.c ****       __WFI ();
 856:Drivers/STM32H7xx_HAL_Driver/Src/stm32h7xx_hal_pwr_ex.c ****     }
 857:Drivers/STM32H7xx_HAL_Driver/Src/stm32h7xx_hal_pwr_ex.c ****     else
 858:Drivers/STM32H7xx_HAL_Driver/Src/stm32h7xx_hal_pwr_ex.c ****     {
 859:Drivers/STM32H7xx_HAL_Driver/Src/stm32h7xx_hal_pwr_ex.c ****       /* Request Wait For Event */
 860:Drivers/STM32H7xx_HAL_Driver/Src/stm32h7xx_hal_pwr_ex.c ****       __WFE ();
 530              		.loc 1 860 7 is_stmt 1 view .LVU141
 531              		.syntax unified
 532              	@ 860 "Drivers/STM32H7xx_HAL_Driver/Src/stm32h7xx_hal_pwr_ex.c" 1
 533 002e 20BF     		wfe
 534              	@ 0 "" 2
 535              		.thumb
ARM GAS  /tmp/cc68FHKf.s 			page 43


 536              		.syntax unified
 537              	.L49:
 861:Drivers/STM32H7xx_HAL_Driver/Src/stm32h7xx_hal_pwr_ex.c ****     }
 862:Drivers/STM32H7xx_HAL_Driver/Src/stm32h7xx_hal_pwr_ex.c **** 
 863:Drivers/STM32H7xx_HAL_Driver/Src/stm32h7xx_hal_pwr_ex.c ****     /* Clear SLEEPDEEP bit of Cortex-Mx in the System Control Register */
 864:Drivers/STM32H7xx_HAL_Driver/Src/stm32h7xx_hal_pwr_ex.c ****     CLEAR_BIT (SCB->SCR, SCB_SCR_SLEEPDEEP_Msk);
 538              		.loc 1 864 5 view .LVU142
 539 0030 0A4A     		ldr	r2, .L54+4
 865:Drivers/STM32H7xx_HAL_Driver/Src/stm32h7xx_hal_pwr_ex.c ****   }
 866:Drivers/STM32H7xx_HAL_Driver/Src/stm32h7xx_hal_pwr_ex.c **** #if defined (PWR_CPUCR_PDDS_D2)
 867:Drivers/STM32H7xx_HAL_Driver/Src/stm32h7xx_hal_pwr_ex.c ****   else if (Domain == PWR_D2_DOMAIN)
 868:Drivers/STM32H7xx_HAL_Driver/Src/stm32h7xx_hal_pwr_ex.c ****   {
 869:Drivers/STM32H7xx_HAL_Driver/Src/stm32h7xx_hal_pwr_ex.c **** #if defined (DUAL_CORE)
 870:Drivers/STM32H7xx_HAL_Driver/Src/stm32h7xx_hal_pwr_ex.c ****     /* Check current core */
 871:Drivers/STM32H7xx_HAL_Driver/Src/stm32h7xx_hal_pwr_ex.c ****     if (HAL_GetCurrentCPUID () != CM4_CPUID)
 872:Drivers/STM32H7xx_HAL_Driver/Src/stm32h7xx_hal_pwr_ex.c ****     {
 873:Drivers/STM32H7xx_HAL_Driver/Src/stm32h7xx_hal_pwr_ex.c ****       /*
 874:Drivers/STM32H7xx_HAL_Driver/Src/stm32h7xx_hal_pwr_ex.c ****          When the domain selected and the cortex-mx don't match, entering stop
 875:Drivers/STM32H7xx_HAL_Driver/Src/stm32h7xx_hal_pwr_ex.c ****          mode will not be performed
 876:Drivers/STM32H7xx_HAL_Driver/Src/stm32h7xx_hal_pwr_ex.c ****       */
 877:Drivers/STM32H7xx_HAL_Driver/Src/stm32h7xx_hal_pwr_ex.c ****       return;
 878:Drivers/STM32H7xx_HAL_Driver/Src/stm32h7xx_hal_pwr_ex.c ****     }
 879:Drivers/STM32H7xx_HAL_Driver/Src/stm32h7xx_hal_pwr_ex.c **** 
 880:Drivers/STM32H7xx_HAL_Driver/Src/stm32h7xx_hal_pwr_ex.c ****     /* Keep DSTOP mode when D2 domain enters Deepsleep */
 881:Drivers/STM32H7xx_HAL_Driver/Src/stm32h7xx_hal_pwr_ex.c ****     CLEAR_BIT (PWR->CPU2CR, PWR_CPU2CR_PDDS_D2);
 882:Drivers/STM32H7xx_HAL_Driver/Src/stm32h7xx_hal_pwr_ex.c **** 
 883:Drivers/STM32H7xx_HAL_Driver/Src/stm32h7xx_hal_pwr_ex.c ****     /* Set SLEEPDEEP bit of Cortex System Control Register */
 884:Drivers/STM32H7xx_HAL_Driver/Src/stm32h7xx_hal_pwr_ex.c ****     SET_BIT (SCB->SCR, SCB_SCR_SLEEPDEEP_Msk);
 885:Drivers/STM32H7xx_HAL_Driver/Src/stm32h7xx_hal_pwr_ex.c **** 
 886:Drivers/STM32H7xx_HAL_Driver/Src/stm32h7xx_hal_pwr_ex.c ****     /* Ensure that all instructions are done before entering STOP mode */
 887:Drivers/STM32H7xx_HAL_Driver/Src/stm32h7xx_hal_pwr_ex.c ****     __DSB ();
 888:Drivers/STM32H7xx_HAL_Driver/Src/stm32h7xx_hal_pwr_ex.c ****     __ISB ();
 889:Drivers/STM32H7xx_HAL_Driver/Src/stm32h7xx_hal_pwr_ex.c **** 
 890:Drivers/STM32H7xx_HAL_Driver/Src/stm32h7xx_hal_pwr_ex.c ****     /* Select Stop mode entry */
 891:Drivers/STM32H7xx_HAL_Driver/Src/stm32h7xx_hal_pwr_ex.c ****     if (STOPEntry == PWR_STOPENTRY_WFI)
 892:Drivers/STM32H7xx_HAL_Driver/Src/stm32h7xx_hal_pwr_ex.c ****     {
 893:Drivers/STM32H7xx_HAL_Driver/Src/stm32h7xx_hal_pwr_ex.c ****       /* Request Wait For Interrupt */
 894:Drivers/STM32H7xx_HAL_Driver/Src/stm32h7xx_hal_pwr_ex.c ****       __WFI ();
 895:Drivers/STM32H7xx_HAL_Driver/Src/stm32h7xx_hal_pwr_ex.c ****     }
 896:Drivers/STM32H7xx_HAL_Driver/Src/stm32h7xx_hal_pwr_ex.c ****     else
 897:Drivers/STM32H7xx_HAL_Driver/Src/stm32h7xx_hal_pwr_ex.c ****     {
 898:Drivers/STM32H7xx_HAL_Driver/Src/stm32h7xx_hal_pwr_ex.c ****       /* Request Wait For Event */
 899:Drivers/STM32H7xx_HAL_Driver/Src/stm32h7xx_hal_pwr_ex.c ****       __WFE ();
 900:Drivers/STM32H7xx_HAL_Driver/Src/stm32h7xx_hal_pwr_ex.c ****     }
 901:Drivers/STM32H7xx_HAL_Driver/Src/stm32h7xx_hal_pwr_ex.c **** 
 902:Drivers/STM32H7xx_HAL_Driver/Src/stm32h7xx_hal_pwr_ex.c ****     /* Clear SLEEPDEEP bit of Cortex-Mx in the System Control Register */
 903:Drivers/STM32H7xx_HAL_Driver/Src/stm32h7xx_hal_pwr_ex.c ****     CLEAR_BIT (SCB->SCR, SCB_SCR_SLEEPDEEP_Msk);
 904:Drivers/STM32H7xx_HAL_Driver/Src/stm32h7xx_hal_pwr_ex.c **** #else
 905:Drivers/STM32H7xx_HAL_Driver/Src/stm32h7xx_hal_pwr_ex.c ****     /* Keep DSTOP mode when D2 domain enters Deepsleep */
 906:Drivers/STM32H7xx_HAL_Driver/Src/stm32h7xx_hal_pwr_ex.c ****     CLEAR_BIT (PWR->CPUCR, PWR_CPUCR_PDDS_D2);
 907:Drivers/STM32H7xx_HAL_Driver/Src/stm32h7xx_hal_pwr_ex.c **** #endif  /* defined (DUAL_CORE) */
 908:Drivers/STM32H7xx_HAL_Driver/Src/stm32h7xx_hal_pwr_ex.c ****   }
 909:Drivers/STM32H7xx_HAL_Driver/Src/stm32h7xx_hal_pwr_ex.c **** #endif /* defined (PWR_CPUCR_PDDS_D2) */
 910:Drivers/STM32H7xx_HAL_Driver/Src/stm32h7xx_hal_pwr_ex.c ****   else
 911:Drivers/STM32H7xx_HAL_Driver/Src/stm32h7xx_hal_pwr_ex.c ****   {
 912:Drivers/STM32H7xx_HAL_Driver/Src/stm32h7xx_hal_pwr_ex.c **** #if defined (DUAL_CORE)
 913:Drivers/STM32H7xx_HAL_Driver/Src/stm32h7xx_hal_pwr_ex.c ****     /* Check current core */
ARM GAS  /tmp/cc68FHKf.s 			page 44


 914:Drivers/STM32H7xx_HAL_Driver/Src/stm32h7xx_hal_pwr_ex.c ****     if (HAL_GetCurrentCPUID () == CM7_CPUID)
 915:Drivers/STM32H7xx_HAL_Driver/Src/stm32h7xx_hal_pwr_ex.c ****     {
 916:Drivers/STM32H7xx_HAL_Driver/Src/stm32h7xx_hal_pwr_ex.c ****       /* Keep DSTOP mode when D3 domain enters Deepsleep */
 917:Drivers/STM32H7xx_HAL_Driver/Src/stm32h7xx_hal_pwr_ex.c ****       CLEAR_BIT (PWR->CPUCR, PWR_CPUCR_PDDS_D3);
 918:Drivers/STM32H7xx_HAL_Driver/Src/stm32h7xx_hal_pwr_ex.c ****     }
 919:Drivers/STM32H7xx_HAL_Driver/Src/stm32h7xx_hal_pwr_ex.c ****     else
 920:Drivers/STM32H7xx_HAL_Driver/Src/stm32h7xx_hal_pwr_ex.c ****     {
 921:Drivers/STM32H7xx_HAL_Driver/Src/stm32h7xx_hal_pwr_ex.c ****       /* Keep DSTOP mode when D3 domain enters Deepsleep */
 922:Drivers/STM32H7xx_HAL_Driver/Src/stm32h7xx_hal_pwr_ex.c ****       CLEAR_BIT (PWR->CPU2CR, PWR_CPU2CR_PDDS_D3);
 923:Drivers/STM32H7xx_HAL_Driver/Src/stm32h7xx_hal_pwr_ex.c ****     }
 924:Drivers/STM32H7xx_HAL_Driver/Src/stm32h7xx_hal_pwr_ex.c **** #else
 925:Drivers/STM32H7xx_HAL_Driver/Src/stm32h7xx_hal_pwr_ex.c ****     /* Keep DSTOP mode when D3/SRD domain enters Deepsleep */
 926:Drivers/STM32H7xx_HAL_Driver/Src/stm32h7xx_hal_pwr_ex.c ****     CLEAR_BIT (PWR->CPUCR, PWR_CPUCR_PDDS_D3);
 927:Drivers/STM32H7xx_HAL_Driver/Src/stm32h7xx_hal_pwr_ex.c **** #endif  /* defined (DUAL_CORE) */
 928:Drivers/STM32H7xx_HAL_Driver/Src/stm32h7xx_hal_pwr_ex.c ****   }
 929:Drivers/STM32H7xx_HAL_Driver/Src/stm32h7xx_hal_pwr_ex.c **** }
 540              		.loc 1 929 1 is_stmt 0 view .LVU143
 541 0032 5DF8044B 		ldr	r4, [sp], #4
 542              	.LCFI3:
 543              		.cfi_remember_state
 544              		.cfi_restore 4
 545              		.cfi_def_cfa_offset 0
 864:Drivers/STM32H7xx_HAL_Driver/Src/stm32h7xx_hal_pwr_ex.c ****   }
 546              		.loc 1 864 5 view .LVU144
 547 0036 1369     		ldr	r3, [r2, #16]
 548 0038 23F00403 		bic	r3, r3, #4
 549 003c 1361     		str	r3, [r2, #16]
 550              		.loc 1 929 1 view .LVU145
 551 003e 7047     		bx	lr
 552              	.LVL35:
 553              	.L47:
 554              	.LCFI4:
 555              		.cfi_restore_state
 867:Drivers/STM32H7xx_HAL_Driver/Src/stm32h7xx_hal_pwr_ex.c ****   {
 556              		.loc 1 867 8 is_stmt 1 view .LVU146
 867:Drivers/STM32H7xx_HAL_Driver/Src/stm32h7xx_hal_pwr_ex.c ****   {
 557              		.loc 1 867 11 is_stmt 0 view .LVU147
 558 0040 012A     		cmp	r2, #1
 906:Drivers/STM32H7xx_HAL_Driver/Src/stm32h7xx_hal_pwr_ex.c **** #endif  /* defined (DUAL_CORE) */
 559              		.loc 1 906 5 is_stmt 1 view .LVU148
 560 0042 0CBF     		ite	eq
 561 0044 23F00203 		biceq	r3, r3, #2
 926:Drivers/STM32H7xx_HAL_Driver/Src/stm32h7xx_hal_pwr_ex.c **** #endif  /* defined (DUAL_CORE) */
 562              		.loc 1 926 5 view .LVU149
 563 0048 23F00403 		bicne	r3, r3, #4
 564 004c 2361     		str	r3, [r4, #16]
 565              		.loc 1 929 1 is_stmt 0 view .LVU150
 566 004e 5DF8044B 		ldr	r4, [sp], #4
 567              	.LCFI5:
 568              		.cfi_remember_state
 569              		.cfi_restore 4
 570              		.cfi_def_cfa_offset 0
 571 0052 7047     		bx	lr
 572              	.LVL36:
 573              	.L53:
 574              	.LCFI6:
 575              		.cfi_restore_state
ARM GAS  /tmp/cc68FHKf.s 			page 45


 855:Drivers/STM32H7xx_HAL_Driver/Src/stm32h7xx_hal_pwr_ex.c ****     }
 576              		.loc 1 855 7 is_stmt 1 view .LVU151
 577              		.syntax unified
 578              	@ 855 "Drivers/STM32H7xx_HAL_Driver/Src/stm32h7xx_hal_pwr_ex.c" 1
 579 0054 30BF     		wfi
 580              	@ 0 "" 2
 581              		.thumb
 582              		.syntax unified
 583 0056 EBE7     		b	.L49
 584              	.L55:
 585              		.align	2
 586              	.L54:
 587 0058 00480258 		.word	1476544512
 588 005c 00ED00E0 		.word	-536810240
 589              		.cfi_endproc
 590              	.LFE150:
 592              		.section	.text.HAL_PWREx_ClearPendingEvent,"ax",%progbits
 593              		.align	1
 594              		.p2align 2,,3
 595              		.global	HAL_PWREx_ClearPendingEvent
 596              		.syntax unified
 597              		.thumb
 598              		.thumb_func
 599              		.fpu fpv5-d16
 601              	HAL_PWREx_ClearPendingEvent:
 602              	.LFB151:
 930:Drivers/STM32H7xx_HAL_Driver/Src/stm32h7xx_hal_pwr_ex.c **** 
 931:Drivers/STM32H7xx_HAL_Driver/Src/stm32h7xx_hal_pwr_ex.c **** /**
 932:Drivers/STM32H7xx_HAL_Driver/Src/stm32h7xx_hal_pwr_ex.c ****   * @brief Clear pending event.
 933:Drivers/STM32H7xx_HAL_Driver/Src/stm32h7xx_hal_pwr_ex.c ****   * @note   This API clears the pending event in order to enter a given CPU
 934:Drivers/STM32H7xx_HAL_Driver/Src/stm32h7xx_hal_pwr_ex.c ****   *         to CSLEEP or CSTOP. It should be called just before APIs performing
 935:Drivers/STM32H7xx_HAL_Driver/Src/stm32h7xx_hal_pwr_ex.c ****   *         enter low power mode using Wait For Event request.
 936:Drivers/STM32H7xx_HAL_Driver/Src/stm32h7xx_hal_pwr_ex.c ****   * @note   Cortex-M7 must be in CRUN mode when calling this API by Cortex-M4.
 937:Drivers/STM32H7xx_HAL_Driver/Src/stm32h7xx_hal_pwr_ex.c ****   * @retval None.
 938:Drivers/STM32H7xx_HAL_Driver/Src/stm32h7xx_hal_pwr_ex.c ****   */
 939:Drivers/STM32H7xx_HAL_Driver/Src/stm32h7xx_hal_pwr_ex.c **** void HAL_PWREx_ClearPendingEvent (void)
 940:Drivers/STM32H7xx_HAL_Driver/Src/stm32h7xx_hal_pwr_ex.c **** {
 603              		.loc 1 940 1 view -0
 604              		.cfi_startproc
 605              		@ args = 0, pretend = 0, frame = 0
 606              		@ frame_needed = 0, uses_anonymous_args = 0
 607              		@ link register save eliminated.
 941:Drivers/STM32H7xx_HAL_Driver/Src/stm32h7xx_hal_pwr_ex.c **** #if defined (DUAL_CORE)
 942:Drivers/STM32H7xx_HAL_Driver/Src/stm32h7xx_hal_pwr_ex.c ****   /* Check the current Core */
 943:Drivers/STM32H7xx_HAL_Driver/Src/stm32h7xx_hal_pwr_ex.c ****   if (HAL_GetCurrentCPUID () == CM7_CPUID)
 944:Drivers/STM32H7xx_HAL_Driver/Src/stm32h7xx_hal_pwr_ex.c ****   {
 945:Drivers/STM32H7xx_HAL_Driver/Src/stm32h7xx_hal_pwr_ex.c ****     __WFE ();
 946:Drivers/STM32H7xx_HAL_Driver/Src/stm32h7xx_hal_pwr_ex.c ****   }
 947:Drivers/STM32H7xx_HAL_Driver/Src/stm32h7xx_hal_pwr_ex.c ****   else
 948:Drivers/STM32H7xx_HAL_Driver/Src/stm32h7xx_hal_pwr_ex.c ****   {
 949:Drivers/STM32H7xx_HAL_Driver/Src/stm32h7xx_hal_pwr_ex.c ****     __SEV ();
 950:Drivers/STM32H7xx_HAL_Driver/Src/stm32h7xx_hal_pwr_ex.c ****     __WFE ();
 951:Drivers/STM32H7xx_HAL_Driver/Src/stm32h7xx_hal_pwr_ex.c ****   }
 952:Drivers/STM32H7xx_HAL_Driver/Src/stm32h7xx_hal_pwr_ex.c **** #else
 953:Drivers/STM32H7xx_HAL_Driver/Src/stm32h7xx_hal_pwr_ex.c ****   __WFE ();
 608              		.loc 1 953 3 view .LVU153
 609              		.syntax unified
ARM GAS  /tmp/cc68FHKf.s 			page 46


 610              	@ 953 "Drivers/STM32H7xx_HAL_Driver/Src/stm32h7xx_hal_pwr_ex.c" 1
 611 0000 20BF     		wfe
 612              	@ 0 "" 2
 954:Drivers/STM32H7xx_HAL_Driver/Src/stm32h7xx_hal_pwr_ex.c **** #endif /* defined (DUAL_CORE) */
 955:Drivers/STM32H7xx_HAL_Driver/Src/stm32h7xx_hal_pwr_ex.c **** }
 613              		.loc 1 955 1 is_stmt 0 view .LVU154
 614              		.thumb
 615              		.syntax unified
 616 0002 7047     		bx	lr
 617              		.cfi_endproc
 618              	.LFE151:
 620              		.section	.text.HAL_PWREx_EnterSTANDBYMode,"ax",%progbits
 621              		.align	1
 622              		.p2align 2,,3
 623              		.global	HAL_PWREx_EnterSTANDBYMode
 624              		.syntax unified
 625              		.thumb
 626              		.thumb_func
 627              		.fpu fpv5-d16
 629              	HAL_PWREx_EnterSTANDBYMode:
 630              	.LVL37:
 631              	.LFB152:
 956:Drivers/STM32H7xx_HAL_Driver/Src/stm32h7xx_hal_pwr_ex.c **** 
 957:Drivers/STM32H7xx_HAL_Driver/Src/stm32h7xx_hal_pwr_ex.c **** /**
 958:Drivers/STM32H7xx_HAL_Driver/Src/stm32h7xx_hal_pwr_ex.c ****   * @brief Enter a Domain to DSTANDBY mode.
 959:Drivers/STM32H7xx_HAL_Driver/Src/stm32h7xx_hal_pwr_ex.c ****   * @note   This API gives flexibility to manage independently each domain
 960:Drivers/STM32H7xx_HAL_Driver/Src/stm32h7xx_hal_pwr_ex.c ****   *         STANDBY mode. For dual core lines, this API should be executed with
 961:Drivers/STM32H7xx_HAL_Driver/Src/stm32h7xx_hal_pwr_ex.c ****   *         the corresponding Cortex-Mx to enter domain to DSTANDBY mode. When
 962:Drivers/STM32H7xx_HAL_Driver/Src/stm32h7xx_hal_pwr_ex.c ****   *         it is executed by all available Cortex-Mx, the system enter STANDBY
 963:Drivers/STM32H7xx_HAL_Driver/Src/stm32h7xx_hal_pwr_ex.c ****   *         mode.
 964:Drivers/STM32H7xx_HAL_Driver/Src/stm32h7xx_hal_pwr_ex.c ****   *         For single core lines, calling this API with D1/SRD the selected
 965:Drivers/STM32H7xx_HAL_Driver/Src/stm32h7xx_hal_pwr_ex.c ****   *         domain will enter the whole system in STOP if PWR_CPUCR_PDDS_D3 = 0
 966:Drivers/STM32H7xx_HAL_Driver/Src/stm32h7xx_hal_pwr_ex.c ****   *         and enter the whole system in STANDBY if PWR_CPUCR_PDDS_D3 = 1.
 967:Drivers/STM32H7xx_HAL_Driver/Src/stm32h7xx_hal_pwr_ex.c ****   * @note   The DStandby mode is entered when all PDDS_Dn bits in PWR_CPUCR for
 968:Drivers/STM32H7xx_HAL_Driver/Src/stm32h7xx_hal_pwr_ex.c ****   *         the Dn domain select Standby mode. When the system enters Standby
 969:Drivers/STM32H7xx_HAL_Driver/Src/stm32h7xx_hal_pwr_ex.c ****   *         mode, the voltage regulator is disabled.
 970:Drivers/STM32H7xx_HAL_Driver/Src/stm32h7xx_hal_pwr_ex.c ****   * @note   When D2 or D3 domain is in DStandby mode and the CPU sets the
 971:Drivers/STM32H7xx_HAL_Driver/Src/stm32h7xx_hal_pwr_ex.c ****   *         domain PDDS_Dn bit to select Stop mode, the domain remains in
 972:Drivers/STM32H7xx_HAL_Driver/Src/stm32h7xx_hal_pwr_ex.c ****   *         DStandby mode. The domain will only exit DStandby when the CPU
 973:Drivers/STM32H7xx_HAL_Driver/Src/stm32h7xx_hal_pwr_ex.c ****   *         allocates a peripheral in the domain.
 974:Drivers/STM32H7xx_HAL_Driver/Src/stm32h7xx_hal_pwr_ex.c ****   * @note   The system D3/SRD domain enters Standby mode only when the D1 and D2
 975:Drivers/STM32H7xx_HAL_Driver/Src/stm32h7xx_hal_pwr_ex.c ****   *         domain are in DStandby.
 976:Drivers/STM32H7xx_HAL_Driver/Src/stm32h7xx_hal_pwr_ex.c ****   * @note   Before entering DSTANDBY mode it is recommended to call
 977:Drivers/STM32H7xx_HAL_Driver/Src/stm32h7xx_hal_pwr_ex.c ****   *         SCB_CleanDCache function in order to clean the D-Cache and guarantee
 978:Drivers/STM32H7xx_HAL_Driver/Src/stm32h7xx_hal_pwr_ex.c ****   *         the data integrity for the SRAM memories.
 979:Drivers/STM32H7xx_HAL_Driver/Src/stm32h7xx_hal_pwr_ex.c ****   * @param  Domain : Specifies the Domain to enter to STANDBY mode.
 980:Drivers/STM32H7xx_HAL_Driver/Src/stm32h7xx_hal_pwr_ex.c ****   *          This parameter can be one of the following values:
 981:Drivers/STM32H7xx_HAL_Driver/Src/stm32h7xx_hal_pwr_ex.c ****   *            @arg PWR_D1_DOMAIN: Enter D1/CD Domain to DSTANDBY mode.
 982:Drivers/STM32H7xx_HAL_Driver/Src/stm32h7xx_hal_pwr_ex.c ****   *            @arg PWR_D2_DOMAIN: Enter D2 Domain to DSTANDBY mode.
 983:Drivers/STM32H7xx_HAL_Driver/Src/stm32h7xx_hal_pwr_ex.c ****   *            @arg PWR_D3_DOMAIN: Enter D3/SRD Domain to DSTANDBY mode.
 984:Drivers/STM32H7xx_HAL_Driver/Src/stm32h7xx_hal_pwr_ex.c ****   * @retval None
 985:Drivers/STM32H7xx_HAL_Driver/Src/stm32h7xx_hal_pwr_ex.c ****   */
 986:Drivers/STM32H7xx_HAL_Driver/Src/stm32h7xx_hal_pwr_ex.c **** void HAL_PWREx_EnterSTANDBYMode (uint32_t Domain)
 987:Drivers/STM32H7xx_HAL_Driver/Src/stm32h7xx_hal_pwr_ex.c **** {
 632              		.loc 1 987 1 is_stmt 1 view -0
 633              		.cfi_startproc
 634              		@ args = 0, pretend = 0, frame = 0
ARM GAS  /tmp/cc68FHKf.s 			page 47


 635              		@ frame_needed = 0, uses_anonymous_args = 0
 636              		@ link register save eliminated.
 988:Drivers/STM32H7xx_HAL_Driver/Src/stm32h7xx_hal_pwr_ex.c ****   /* Check the parameters */
 989:Drivers/STM32H7xx_HAL_Driver/Src/stm32h7xx_hal_pwr_ex.c ****   assert_param (IS_PWR_DOMAIN (Domain));
 637              		.loc 1 989 3 view .LVU156
 990:Drivers/STM32H7xx_HAL_Driver/Src/stm32h7xx_hal_pwr_ex.c **** 
 991:Drivers/STM32H7xx_HAL_Driver/Src/stm32h7xx_hal_pwr_ex.c ****   /* Select the domain Power Down DeepSleep */
 992:Drivers/STM32H7xx_HAL_Driver/Src/stm32h7xx_hal_pwr_ex.c ****   if (Domain == PWR_D1_DOMAIN)
 638              		.loc 1 992 3 view .LVU157
 639              		.loc 1 992 6 is_stmt 0 view .LVU158
 640 0000 58B9     		cbnz	r0, .L58
 993:Drivers/STM32H7xx_HAL_Driver/Src/stm32h7xx_hal_pwr_ex.c ****   {
 994:Drivers/STM32H7xx_HAL_Driver/Src/stm32h7xx_hal_pwr_ex.c **** #if defined (DUAL_CORE)
 995:Drivers/STM32H7xx_HAL_Driver/Src/stm32h7xx_hal_pwr_ex.c ****     /* Check current core */
 996:Drivers/STM32H7xx_HAL_Driver/Src/stm32h7xx_hal_pwr_ex.c ****     if (HAL_GetCurrentCPUID () != CM7_CPUID)
 997:Drivers/STM32H7xx_HAL_Driver/Src/stm32h7xx_hal_pwr_ex.c ****     {
 998:Drivers/STM32H7xx_HAL_Driver/Src/stm32h7xx_hal_pwr_ex.c ****       /*
 999:Drivers/STM32H7xx_HAL_Driver/Src/stm32h7xx_hal_pwr_ex.c ****          When the domain selected and the cortex-mx don't match, entering
1000:Drivers/STM32H7xx_HAL_Driver/Src/stm32h7xx_hal_pwr_ex.c ****          standby mode will not be performed
1001:Drivers/STM32H7xx_HAL_Driver/Src/stm32h7xx_hal_pwr_ex.c ****       */
1002:Drivers/STM32H7xx_HAL_Driver/Src/stm32h7xx_hal_pwr_ex.c ****       return;
1003:Drivers/STM32H7xx_HAL_Driver/Src/stm32h7xx_hal_pwr_ex.c ****     }
1004:Drivers/STM32H7xx_HAL_Driver/Src/stm32h7xx_hal_pwr_ex.c **** #endif /* defined (DUAL_CORE) */
1005:Drivers/STM32H7xx_HAL_Driver/Src/stm32h7xx_hal_pwr_ex.c **** 
1006:Drivers/STM32H7xx_HAL_Driver/Src/stm32h7xx_hal_pwr_ex.c ****     /* Allow DSTANDBY mode when D1/CD domain enters Deepsleep */
1007:Drivers/STM32H7xx_HAL_Driver/Src/stm32h7xx_hal_pwr_ex.c ****     SET_BIT (PWR-> CPUCR, PWR_CPUCR_PDDS_D1);
 641              		.loc 1 1007 5 is_stmt 1 view .LVU159
 642 0002 0B49     		ldr	r1, .L61
1008:Drivers/STM32H7xx_HAL_Driver/Src/stm32h7xx_hal_pwr_ex.c **** 
1009:Drivers/STM32H7xx_HAL_Driver/Src/stm32h7xx_hal_pwr_ex.c **** #if defined (DUAL_CORE)
1010:Drivers/STM32H7xx_HAL_Driver/Src/stm32h7xx_hal_pwr_ex.c ****     /* Allow DSTANDBY mode when D1/CD domain enters Deepsleep */
1011:Drivers/STM32H7xx_HAL_Driver/Src/stm32h7xx_hal_pwr_ex.c ****     SET_BIT (PWR-> CPU2CR, PWR_CPU2CR_PDDS_D1);
1012:Drivers/STM32H7xx_HAL_Driver/Src/stm32h7xx_hal_pwr_ex.c **** #endif /*DUAL_CORE*/
1013:Drivers/STM32H7xx_HAL_Driver/Src/stm32h7xx_hal_pwr_ex.c **** 
1014:Drivers/STM32H7xx_HAL_Driver/Src/stm32h7xx_hal_pwr_ex.c ****     /* Set SLEEPDEEP bit of Cortex System Control Register */
1015:Drivers/STM32H7xx_HAL_Driver/Src/stm32h7xx_hal_pwr_ex.c ****     SET_BIT (SCB->SCR, SCB_SCR_SLEEPDEEP_Msk);
 643              		.loc 1 1015 5 is_stmt 0 view .LVU160
 644 0004 0B4A     		ldr	r2, .L61+4
1007:Drivers/STM32H7xx_HAL_Driver/Src/stm32h7xx_hal_pwr_ex.c **** 
 645              		.loc 1 1007 5 view .LVU161
 646 0006 0B69     		ldr	r3, [r1, #16]
 647 0008 43F00103 		orr	r3, r3, #1
 648 000c 0B61     		str	r3, [r1, #16]
 649              		.loc 1 1015 5 is_stmt 1 view .LVU162
 650 000e 1369     		ldr	r3, [r2, #16]
 651 0010 43F00403 		orr	r3, r3, #4
 652 0014 1361     		str	r3, [r2, #16]
1016:Drivers/STM32H7xx_HAL_Driver/Src/stm32h7xx_hal_pwr_ex.c **** 
1017:Drivers/STM32H7xx_HAL_Driver/Src/stm32h7xx_hal_pwr_ex.c ****     /* This option is used to ensure that store operations are completed */
1018:Drivers/STM32H7xx_HAL_Driver/Src/stm32h7xx_hal_pwr_ex.c **** #if defined (__CC_ARM)
1019:Drivers/STM32H7xx_HAL_Driver/Src/stm32h7xx_hal_pwr_ex.c ****     __force_stores ();
1020:Drivers/STM32H7xx_HAL_Driver/Src/stm32h7xx_hal_pwr_ex.c **** #endif /* defined (__CC_ARM) */
1021:Drivers/STM32H7xx_HAL_Driver/Src/stm32h7xx_hal_pwr_ex.c **** 
1022:Drivers/STM32H7xx_HAL_Driver/Src/stm32h7xx_hal_pwr_ex.c ****     /* Request Wait For Interrupt */
1023:Drivers/STM32H7xx_HAL_Driver/Src/stm32h7xx_hal_pwr_ex.c ****     __WFI ();
 653              		.loc 1 1023 5 view .LVU163
 654              		.syntax unified
ARM GAS  /tmp/cc68FHKf.s 			page 48


 655              	@ 1023 "Drivers/STM32H7xx_HAL_Driver/Src/stm32h7xx_hal_pwr_ex.c" 1
 656 0016 30BF     		wfi
 657              	@ 0 "" 2
 658              		.thumb
 659              		.syntax unified
 660 0018 7047     		bx	lr
 661              	.L58:
1024:Drivers/STM32H7xx_HAL_Driver/Src/stm32h7xx_hal_pwr_ex.c ****   }
1025:Drivers/STM32H7xx_HAL_Driver/Src/stm32h7xx_hal_pwr_ex.c **** #if defined (PWR_CPUCR_PDDS_D2)
1026:Drivers/STM32H7xx_HAL_Driver/Src/stm32h7xx_hal_pwr_ex.c ****   else if (Domain == PWR_D2_DOMAIN)
 662              		.loc 1 1026 8 view .LVU164
1027:Drivers/STM32H7xx_HAL_Driver/Src/stm32h7xx_hal_pwr_ex.c ****   {
1028:Drivers/STM32H7xx_HAL_Driver/Src/stm32h7xx_hal_pwr_ex.c ****     /* Allow DSTANDBY mode when D2 domain enters Deepsleep */
1029:Drivers/STM32H7xx_HAL_Driver/Src/stm32h7xx_hal_pwr_ex.c ****     SET_BIT (PWR-> CPUCR, PWR_CPUCR_PDDS_D2);
 663              		.loc 1 1029 5 is_stmt 0 view .LVU165
 664 001a 054A     		ldr	r2, .L61
1026:Drivers/STM32H7xx_HAL_Driver/Src/stm32h7xx_hal_pwr_ex.c ****   {
 665              		.loc 1 1026 11 view .LVU166
 666 001c 0128     		cmp	r0, #1
 667              		.loc 1 1029 5 is_stmt 1 view .LVU167
 668 001e 1369     		ldr	r3, [r2, #16]
 669 0020 0CBF     		ite	eq
 670 0022 43F00203 		orreq	r3, r3, #2
1030:Drivers/STM32H7xx_HAL_Driver/Src/stm32h7xx_hal_pwr_ex.c **** 
1031:Drivers/STM32H7xx_HAL_Driver/Src/stm32h7xx_hal_pwr_ex.c **** #if defined (DUAL_CORE)
1032:Drivers/STM32H7xx_HAL_Driver/Src/stm32h7xx_hal_pwr_ex.c ****     /* Check current core */
1033:Drivers/STM32H7xx_HAL_Driver/Src/stm32h7xx_hal_pwr_ex.c ****     if (HAL_GetCurrentCPUID () != CM4_CPUID)
1034:Drivers/STM32H7xx_HAL_Driver/Src/stm32h7xx_hal_pwr_ex.c ****     {
1035:Drivers/STM32H7xx_HAL_Driver/Src/stm32h7xx_hal_pwr_ex.c ****       /*
1036:Drivers/STM32H7xx_HAL_Driver/Src/stm32h7xx_hal_pwr_ex.c ****          When the domain selected and the cortex-mx don't match, entering
1037:Drivers/STM32H7xx_HAL_Driver/Src/stm32h7xx_hal_pwr_ex.c ****          standby mode will not be performed
1038:Drivers/STM32H7xx_HAL_Driver/Src/stm32h7xx_hal_pwr_ex.c ****       */
1039:Drivers/STM32H7xx_HAL_Driver/Src/stm32h7xx_hal_pwr_ex.c ****       return;
1040:Drivers/STM32H7xx_HAL_Driver/Src/stm32h7xx_hal_pwr_ex.c ****     }
1041:Drivers/STM32H7xx_HAL_Driver/Src/stm32h7xx_hal_pwr_ex.c **** 
1042:Drivers/STM32H7xx_HAL_Driver/Src/stm32h7xx_hal_pwr_ex.c ****     /* Allow DSTANDBY mode when D2 domain enters Deepsleep */
1043:Drivers/STM32H7xx_HAL_Driver/Src/stm32h7xx_hal_pwr_ex.c ****     SET_BIT (PWR-> CPU2CR, PWR_CPU2CR_PDDS_D2);
1044:Drivers/STM32H7xx_HAL_Driver/Src/stm32h7xx_hal_pwr_ex.c **** 
1045:Drivers/STM32H7xx_HAL_Driver/Src/stm32h7xx_hal_pwr_ex.c ****     /* Set SLEEPDEEP bit of Cortex System Control Register */
1046:Drivers/STM32H7xx_HAL_Driver/Src/stm32h7xx_hal_pwr_ex.c ****     SET_BIT (SCB->SCR, SCB_SCR_SLEEPDEEP_Msk);
1047:Drivers/STM32H7xx_HAL_Driver/Src/stm32h7xx_hal_pwr_ex.c **** 
1048:Drivers/STM32H7xx_HAL_Driver/Src/stm32h7xx_hal_pwr_ex.c ****     /* This option is used to ensure that store operations are completed */
1049:Drivers/STM32H7xx_HAL_Driver/Src/stm32h7xx_hal_pwr_ex.c **** #if defined (__CC_ARM)
1050:Drivers/STM32H7xx_HAL_Driver/Src/stm32h7xx_hal_pwr_ex.c ****     __force_stores ();
1051:Drivers/STM32H7xx_HAL_Driver/Src/stm32h7xx_hal_pwr_ex.c **** #endif /* defined (__CC_ARM) */
1052:Drivers/STM32H7xx_HAL_Driver/Src/stm32h7xx_hal_pwr_ex.c **** 
1053:Drivers/STM32H7xx_HAL_Driver/Src/stm32h7xx_hal_pwr_ex.c ****     /* Request Wait For Interrupt */
1054:Drivers/STM32H7xx_HAL_Driver/Src/stm32h7xx_hal_pwr_ex.c ****     __WFI ();
1055:Drivers/STM32H7xx_HAL_Driver/Src/stm32h7xx_hal_pwr_ex.c **** #endif /* defined (DUAL_CORE) */
1056:Drivers/STM32H7xx_HAL_Driver/Src/stm32h7xx_hal_pwr_ex.c ****   }
1057:Drivers/STM32H7xx_HAL_Driver/Src/stm32h7xx_hal_pwr_ex.c **** #endif /* defined (PWR_CPUCR_PDDS_D2) */
1058:Drivers/STM32H7xx_HAL_Driver/Src/stm32h7xx_hal_pwr_ex.c ****   else
1059:Drivers/STM32H7xx_HAL_Driver/Src/stm32h7xx_hal_pwr_ex.c ****   {
1060:Drivers/STM32H7xx_HAL_Driver/Src/stm32h7xx_hal_pwr_ex.c ****     /* Allow DSTANDBY mode when D3/SRD domain enters Deepsleep */
1061:Drivers/STM32H7xx_HAL_Driver/Src/stm32h7xx_hal_pwr_ex.c ****     SET_BIT (PWR->CPUCR, PWR_CPUCR_PDDS_D3);
 671              		.loc 1 1061 5 view .LVU168
 672 0026 43F00403 		orrne	r3, r3, #4
ARM GAS  /tmp/cc68FHKf.s 			page 49


 673 002a 1361     		str	r3, [r2, #16]
1062:Drivers/STM32H7xx_HAL_Driver/Src/stm32h7xx_hal_pwr_ex.c **** 
1063:Drivers/STM32H7xx_HAL_Driver/Src/stm32h7xx_hal_pwr_ex.c **** #if defined (DUAL_CORE)
1064:Drivers/STM32H7xx_HAL_Driver/Src/stm32h7xx_hal_pwr_ex.c ****     /* Allow DSTANDBY mode when D3/SRD domain enters Deepsleep */
1065:Drivers/STM32H7xx_HAL_Driver/Src/stm32h7xx_hal_pwr_ex.c ****     SET_BIT (PWR->CPU2CR, PWR_CPU2CR_PDDS_D3);
1066:Drivers/STM32H7xx_HAL_Driver/Src/stm32h7xx_hal_pwr_ex.c **** #endif /* defined (DUAL_CORE) */
1067:Drivers/STM32H7xx_HAL_Driver/Src/stm32h7xx_hal_pwr_ex.c ****   }
1068:Drivers/STM32H7xx_HAL_Driver/Src/stm32h7xx_hal_pwr_ex.c **** }
 674              		.loc 1 1068 1 is_stmt 0 view .LVU169
 675 002c 7047     		bx	lr
 676              	.L62:
 677 002e 00BF     		.align	2
 678              	.L61:
 679 0030 00480258 		.word	1476544512
 680 0034 00ED00E0 		.word	-536810240
 681              		.cfi_endproc
 682              	.LFE152:
 684              		.section	.text.HAL_PWREx_ConfigD3Domain,"ax",%progbits
 685              		.align	1
 686              		.p2align 2,,3
 687              		.global	HAL_PWREx_ConfigD3Domain
 688              		.syntax unified
 689              		.thumb
 690              		.thumb_func
 691              		.fpu fpv5-d16
 693              	HAL_PWREx_ConfigD3Domain:
 694              	.LVL38:
 695              	.LFB153:
1069:Drivers/STM32H7xx_HAL_Driver/Src/stm32h7xx_hal_pwr_ex.c **** 
1070:Drivers/STM32H7xx_HAL_Driver/Src/stm32h7xx_hal_pwr_ex.c **** /**
1071:Drivers/STM32H7xx_HAL_Driver/Src/stm32h7xx_hal_pwr_ex.c ****   * @brief Configure the D3/SRD Domain state when the System in low power mode.
1072:Drivers/STM32H7xx_HAL_Driver/Src/stm32h7xx_hal_pwr_ex.c ****   * @param  D3State : Specifies the D3/SRD state.
1073:Drivers/STM32H7xx_HAL_Driver/Src/stm32h7xx_hal_pwr_ex.c ****   *          This parameter can be one of the following values :
1074:Drivers/STM32H7xx_HAL_Driver/Src/stm32h7xx_hal_pwr_ex.c ****   *            @arg PWR_D3_DOMAIN_STOP : D3/SRD domain will follow the most deep
1075:Drivers/STM32H7xx_HAL_Driver/Src/stm32h7xx_hal_pwr_ex.c ****   *                                      CPU sub-system low power mode.
1076:Drivers/STM32H7xx_HAL_Driver/Src/stm32h7xx_hal_pwr_ex.c ****   *            @arg PWR_D3_DOMAIN_RUN : D3/SRD domain will stay in RUN mode
1077:Drivers/STM32H7xx_HAL_Driver/Src/stm32h7xx_hal_pwr_ex.c ****   *                                     regardless of the CPU sub-system low
1078:Drivers/STM32H7xx_HAL_Driver/Src/stm32h7xx_hal_pwr_ex.c ****   *                                     power mode.
1079:Drivers/STM32H7xx_HAL_Driver/Src/stm32h7xx_hal_pwr_ex.c ****   * @retval None
1080:Drivers/STM32H7xx_HAL_Driver/Src/stm32h7xx_hal_pwr_ex.c ****   */
1081:Drivers/STM32H7xx_HAL_Driver/Src/stm32h7xx_hal_pwr_ex.c **** void HAL_PWREx_ConfigD3Domain (uint32_t D3State)
1082:Drivers/STM32H7xx_HAL_Driver/Src/stm32h7xx_hal_pwr_ex.c **** {
 696              		.loc 1 1082 1 is_stmt 1 view -0
 697              		.cfi_startproc
 698              		@ args = 0, pretend = 0, frame = 0
 699              		@ frame_needed = 0, uses_anonymous_args = 0
 700              		@ link register save eliminated.
1083:Drivers/STM32H7xx_HAL_Driver/Src/stm32h7xx_hal_pwr_ex.c ****   /* Check the parameter */
1084:Drivers/STM32H7xx_HAL_Driver/Src/stm32h7xx_hal_pwr_ex.c ****   assert_param (IS_D3_STATE (D3State));
 701              		.loc 1 1084 3 view .LVU171
1085:Drivers/STM32H7xx_HAL_Driver/Src/stm32h7xx_hal_pwr_ex.c **** 
1086:Drivers/STM32H7xx_HAL_Driver/Src/stm32h7xx_hal_pwr_ex.c ****   /* Keep D3/SRD in run mode */
1087:Drivers/STM32H7xx_HAL_Driver/Src/stm32h7xx_hal_pwr_ex.c ****   MODIFY_REG (PWR->CPUCR, PWR_CPUCR_RUN_D3, D3State);
 702              		.loc 1 1087 3 view .LVU172
 703 0000 034A     		ldr	r2, .L64
 704 0002 1369     		ldr	r3, [r2, #16]
 705 0004 23F40063 		bic	r3, r3, #2048
ARM GAS  /tmp/cc68FHKf.s 			page 50


 706 0008 1843     		orrs	r0, r0, r3
 707              	.LVL39:
 708              		.loc 1 1087 3 is_stmt 0 view .LVU173
 709 000a 1061     		str	r0, [r2, #16]
1088:Drivers/STM32H7xx_HAL_Driver/Src/stm32h7xx_hal_pwr_ex.c **** }
 710              		.loc 1 1088 1 view .LVU174
 711 000c 7047     		bx	lr
 712              	.L65:
 713 000e 00BF     		.align	2
 714              	.L64:
 715 0010 00480258 		.word	1476544512
 716              		.cfi_endproc
 717              	.LFE153:
 719              		.section	.text.HAL_PWREx_EnableFlashPowerDown,"ax",%progbits
 720              		.align	1
 721              		.p2align 2,,3
 722              		.global	HAL_PWREx_EnableFlashPowerDown
 723              		.syntax unified
 724              		.thumb
 725              		.thumb_func
 726              		.fpu fpv5-d16
 728              	HAL_PWREx_EnableFlashPowerDown:
 729              	.LFB154:
1089:Drivers/STM32H7xx_HAL_Driver/Src/stm32h7xx_hal_pwr_ex.c **** 
1090:Drivers/STM32H7xx_HAL_Driver/Src/stm32h7xx_hal_pwr_ex.c **** #if defined (DUAL_CORE)
1091:Drivers/STM32H7xx_HAL_Driver/Src/stm32h7xx_hal_pwr_ex.c **** /**
1092:Drivers/STM32H7xx_HAL_Driver/Src/stm32h7xx_hal_pwr_ex.c ****   * @brief Clear HOLD2F, HOLD1F, STOPF, SBF, SBF_D1, and SBF_D2 flags for a
1093:Drivers/STM32H7xx_HAL_Driver/Src/stm32h7xx_hal_pwr_ex.c ****   *        given domain.
1094:Drivers/STM32H7xx_HAL_Driver/Src/stm32h7xx_hal_pwr_ex.c ****   * @param  DomainFlags : Specifies the Domain flags to be cleared.
1095:Drivers/STM32H7xx_HAL_Driver/Src/stm32h7xx_hal_pwr_ex.c ****   *          This parameter can be one of the following values:
1096:Drivers/STM32H7xx_HAL_Driver/Src/stm32h7xx_hal_pwr_ex.c ****   *            @arg PWR_D1_DOMAIN_FLAGS : Clear D1 Domain flags.
1097:Drivers/STM32H7xx_HAL_Driver/Src/stm32h7xx_hal_pwr_ex.c ****   *            @arg PWR_D2_DOMAIN_FLAGS : Clear D2 Domain flags.
1098:Drivers/STM32H7xx_HAL_Driver/Src/stm32h7xx_hal_pwr_ex.c ****   *            @arg PWR_ALL_DOMAIN_FLAGS : Clear D1 and D2 Domain flags.
1099:Drivers/STM32H7xx_HAL_Driver/Src/stm32h7xx_hal_pwr_ex.c ****   * @retval None.
1100:Drivers/STM32H7xx_HAL_Driver/Src/stm32h7xx_hal_pwr_ex.c ****   */
1101:Drivers/STM32H7xx_HAL_Driver/Src/stm32h7xx_hal_pwr_ex.c **** void HAL_PWREx_ClearDomainFlags (uint32_t DomainFlags)
1102:Drivers/STM32H7xx_HAL_Driver/Src/stm32h7xx_hal_pwr_ex.c **** {
1103:Drivers/STM32H7xx_HAL_Driver/Src/stm32h7xx_hal_pwr_ex.c ****   /* Check the parameter */
1104:Drivers/STM32H7xx_HAL_Driver/Src/stm32h7xx_hal_pwr_ex.c ****   assert_param (IS_PWR_DOMAIN_FLAG (DomainFlags));
1105:Drivers/STM32H7xx_HAL_Driver/Src/stm32h7xx_hal_pwr_ex.c **** 
1106:Drivers/STM32H7xx_HAL_Driver/Src/stm32h7xx_hal_pwr_ex.c ****   /* D1 CPU flags */
1107:Drivers/STM32H7xx_HAL_Driver/Src/stm32h7xx_hal_pwr_ex.c ****   if (DomainFlags == PWR_D1_DOMAIN_FLAGS)
1108:Drivers/STM32H7xx_HAL_Driver/Src/stm32h7xx_hal_pwr_ex.c ****   {
1109:Drivers/STM32H7xx_HAL_Driver/Src/stm32h7xx_hal_pwr_ex.c ****     /* Clear D1 domain flags (HOLD2F, STOPF, SBF, SBF_D1, and SBF_D2) */
1110:Drivers/STM32H7xx_HAL_Driver/Src/stm32h7xx_hal_pwr_ex.c ****     SET_BIT (PWR->CPUCR, PWR_CPUCR_CSSF);
1111:Drivers/STM32H7xx_HAL_Driver/Src/stm32h7xx_hal_pwr_ex.c ****   }
1112:Drivers/STM32H7xx_HAL_Driver/Src/stm32h7xx_hal_pwr_ex.c ****   /* D2 CPU flags */
1113:Drivers/STM32H7xx_HAL_Driver/Src/stm32h7xx_hal_pwr_ex.c ****   else if (DomainFlags == PWR_D2_DOMAIN_FLAGS)
1114:Drivers/STM32H7xx_HAL_Driver/Src/stm32h7xx_hal_pwr_ex.c ****   {
1115:Drivers/STM32H7xx_HAL_Driver/Src/stm32h7xx_hal_pwr_ex.c ****     /* Clear D2 domain flags (HOLD1F, STOPF, SBF, SBF_D1, and SBF_D2) */
1116:Drivers/STM32H7xx_HAL_Driver/Src/stm32h7xx_hal_pwr_ex.c ****     SET_BIT (PWR->CPU2CR, PWR_CPU2CR_CSSF);
1117:Drivers/STM32H7xx_HAL_Driver/Src/stm32h7xx_hal_pwr_ex.c ****   }
1118:Drivers/STM32H7xx_HAL_Driver/Src/stm32h7xx_hal_pwr_ex.c ****   else
1119:Drivers/STM32H7xx_HAL_Driver/Src/stm32h7xx_hal_pwr_ex.c ****   {
1120:Drivers/STM32H7xx_HAL_Driver/Src/stm32h7xx_hal_pwr_ex.c ****     /* Clear D1 domain flags (HOLD2F, STOPF, SBF, SBF_D1, and SBF_D2) */
1121:Drivers/STM32H7xx_HAL_Driver/Src/stm32h7xx_hal_pwr_ex.c ****     SET_BIT (PWR->CPUCR, PWR_CPUCR_CSSF);
1122:Drivers/STM32H7xx_HAL_Driver/Src/stm32h7xx_hal_pwr_ex.c ****     /* Clear D2 domain flags (HOLD1F, STOPF, SBF, SBF_D1, and SBF_D2) */
ARM GAS  /tmp/cc68FHKf.s 			page 51


1123:Drivers/STM32H7xx_HAL_Driver/Src/stm32h7xx_hal_pwr_ex.c ****     SET_BIT (PWR->CPU2CR, PWR_CPU2CR_CSSF);
1124:Drivers/STM32H7xx_HAL_Driver/Src/stm32h7xx_hal_pwr_ex.c ****   }
1125:Drivers/STM32H7xx_HAL_Driver/Src/stm32h7xx_hal_pwr_ex.c **** }
1126:Drivers/STM32H7xx_HAL_Driver/Src/stm32h7xx_hal_pwr_ex.c **** 
1127:Drivers/STM32H7xx_HAL_Driver/Src/stm32h7xx_hal_pwr_ex.c **** /**
1128:Drivers/STM32H7xx_HAL_Driver/Src/stm32h7xx_hal_pwr_ex.c ****   * @brief Hold the CPU and their domain peripherals when exiting STOP mode.
1129:Drivers/STM32H7xx_HAL_Driver/Src/stm32h7xx_hal_pwr_ex.c ****   * @param  CPU : Specifies the core to be held.
1130:Drivers/STM32H7xx_HAL_Driver/Src/stm32h7xx_hal_pwr_ex.c ****   *         This parameter can be one of the following values:
1131:Drivers/STM32H7xx_HAL_Driver/Src/stm32h7xx_hal_pwr_ex.c ****   *             @arg PWR_CORE_CPU1: Hold CPU1 and set CPU2 as master.
1132:Drivers/STM32H7xx_HAL_Driver/Src/stm32h7xx_hal_pwr_ex.c ****   *             @arg PWR_CORE_CPU2: Hold CPU2 and set CPU1 as master.
1133:Drivers/STM32H7xx_HAL_Driver/Src/stm32h7xx_hal_pwr_ex.c ****   * @retval HAL status
1134:Drivers/STM32H7xx_HAL_Driver/Src/stm32h7xx_hal_pwr_ex.c ****   */
1135:Drivers/STM32H7xx_HAL_Driver/Src/stm32h7xx_hal_pwr_ex.c **** HAL_StatusTypeDef HAL_PWREx_HoldCore (uint32_t CPU)
1136:Drivers/STM32H7xx_HAL_Driver/Src/stm32h7xx_hal_pwr_ex.c **** {
1137:Drivers/STM32H7xx_HAL_Driver/Src/stm32h7xx_hal_pwr_ex.c ****   HAL_StatusTypeDef status = HAL_OK;
1138:Drivers/STM32H7xx_HAL_Driver/Src/stm32h7xx_hal_pwr_ex.c **** 
1139:Drivers/STM32H7xx_HAL_Driver/Src/stm32h7xx_hal_pwr_ex.c ****   /* Check the parameters */
1140:Drivers/STM32H7xx_HAL_Driver/Src/stm32h7xx_hal_pwr_ex.c ****   assert_param (IS_PWR_CORE (CPU));
1141:Drivers/STM32H7xx_HAL_Driver/Src/stm32h7xx_hal_pwr_ex.c **** 
1142:Drivers/STM32H7xx_HAL_Driver/Src/stm32h7xx_hal_pwr_ex.c ****   /* Check CPU index */
1143:Drivers/STM32H7xx_HAL_Driver/Src/stm32h7xx_hal_pwr_ex.c ****   if (CPU == PWR_CORE_CPU2)
1144:Drivers/STM32H7xx_HAL_Driver/Src/stm32h7xx_hal_pwr_ex.c ****   {
1145:Drivers/STM32H7xx_HAL_Driver/Src/stm32h7xx_hal_pwr_ex.c ****     /* If CPU1 is not held */
1146:Drivers/STM32H7xx_HAL_Driver/Src/stm32h7xx_hal_pwr_ex.c ****     if ((PWR->CPU2CR & PWR_CPU2CR_HOLD1) != PWR_CPU2CR_HOLD1)
1147:Drivers/STM32H7xx_HAL_Driver/Src/stm32h7xx_hal_pwr_ex.c ****     {
1148:Drivers/STM32H7xx_HAL_Driver/Src/stm32h7xx_hal_pwr_ex.c ****       /* Set HOLD2 bit */
1149:Drivers/STM32H7xx_HAL_Driver/Src/stm32h7xx_hal_pwr_ex.c ****       SET_BIT (PWR->CPUCR, PWR_CPUCR_HOLD2);
1150:Drivers/STM32H7xx_HAL_Driver/Src/stm32h7xx_hal_pwr_ex.c ****     }
1151:Drivers/STM32H7xx_HAL_Driver/Src/stm32h7xx_hal_pwr_ex.c ****     else
1152:Drivers/STM32H7xx_HAL_Driver/Src/stm32h7xx_hal_pwr_ex.c ****     {
1153:Drivers/STM32H7xx_HAL_Driver/Src/stm32h7xx_hal_pwr_ex.c ****       status = HAL_ERROR;
1154:Drivers/STM32H7xx_HAL_Driver/Src/stm32h7xx_hal_pwr_ex.c ****     }
1155:Drivers/STM32H7xx_HAL_Driver/Src/stm32h7xx_hal_pwr_ex.c ****   }
1156:Drivers/STM32H7xx_HAL_Driver/Src/stm32h7xx_hal_pwr_ex.c ****   else
1157:Drivers/STM32H7xx_HAL_Driver/Src/stm32h7xx_hal_pwr_ex.c ****   {
1158:Drivers/STM32H7xx_HAL_Driver/Src/stm32h7xx_hal_pwr_ex.c ****     /* If CPU2 is not held */
1159:Drivers/STM32H7xx_HAL_Driver/Src/stm32h7xx_hal_pwr_ex.c ****     if ((PWR->CPUCR & PWR_CPUCR_HOLD2) != PWR_CPUCR_HOLD2)
1160:Drivers/STM32H7xx_HAL_Driver/Src/stm32h7xx_hal_pwr_ex.c ****     {
1161:Drivers/STM32H7xx_HAL_Driver/Src/stm32h7xx_hal_pwr_ex.c ****       /* Set HOLD1 bit */
1162:Drivers/STM32H7xx_HAL_Driver/Src/stm32h7xx_hal_pwr_ex.c ****       SET_BIT (PWR->CPU2CR, PWR_CPU2CR_HOLD1);
1163:Drivers/STM32H7xx_HAL_Driver/Src/stm32h7xx_hal_pwr_ex.c ****     }
1164:Drivers/STM32H7xx_HAL_Driver/Src/stm32h7xx_hal_pwr_ex.c ****     else
1165:Drivers/STM32H7xx_HAL_Driver/Src/stm32h7xx_hal_pwr_ex.c ****     {
1166:Drivers/STM32H7xx_HAL_Driver/Src/stm32h7xx_hal_pwr_ex.c ****       status = HAL_ERROR;
1167:Drivers/STM32H7xx_HAL_Driver/Src/stm32h7xx_hal_pwr_ex.c ****     }
1168:Drivers/STM32H7xx_HAL_Driver/Src/stm32h7xx_hal_pwr_ex.c ****   }
1169:Drivers/STM32H7xx_HAL_Driver/Src/stm32h7xx_hal_pwr_ex.c **** 
1170:Drivers/STM32H7xx_HAL_Driver/Src/stm32h7xx_hal_pwr_ex.c ****   return status;
1171:Drivers/STM32H7xx_HAL_Driver/Src/stm32h7xx_hal_pwr_ex.c **** }
1172:Drivers/STM32H7xx_HAL_Driver/Src/stm32h7xx_hal_pwr_ex.c **** 
1173:Drivers/STM32H7xx_HAL_Driver/Src/stm32h7xx_hal_pwr_ex.c **** /**
1174:Drivers/STM32H7xx_HAL_Driver/Src/stm32h7xx_hal_pwr_ex.c ****   * @brief Release the CPU and their domain peripherals after a wake-up from
1175:Drivers/STM32H7xx_HAL_Driver/Src/stm32h7xx_hal_pwr_ex.c ****   *        STOP mode.
1176:Drivers/STM32H7xx_HAL_Driver/Src/stm32h7xx_hal_pwr_ex.c ****   * @param  CPU: Specifies the core to be released.
1177:Drivers/STM32H7xx_HAL_Driver/Src/stm32h7xx_hal_pwr_ex.c ****   *         This parameter can be one of the following values:
1178:Drivers/STM32H7xx_HAL_Driver/Src/stm32h7xx_hal_pwr_ex.c ****   *             @arg  PWR_CORE_CPU1: Release the CPU1 and their domain
1179:Drivers/STM32H7xx_HAL_Driver/Src/stm32h7xx_hal_pwr_ex.c ****   *                   peripherals from holding.
ARM GAS  /tmp/cc68FHKf.s 			page 52


1180:Drivers/STM32H7xx_HAL_Driver/Src/stm32h7xx_hal_pwr_ex.c ****   *             @arg  PWR_CORE_CPU2: Release the CPU2 and their domain
1181:Drivers/STM32H7xx_HAL_Driver/Src/stm32h7xx_hal_pwr_ex.c ****   *                   peripherals from holding.
1182:Drivers/STM32H7xx_HAL_Driver/Src/stm32h7xx_hal_pwr_ex.c ****   * @retval None
1183:Drivers/STM32H7xx_HAL_Driver/Src/stm32h7xx_hal_pwr_ex.c ****   */
1184:Drivers/STM32H7xx_HAL_Driver/Src/stm32h7xx_hal_pwr_ex.c **** void HAL_PWREx_ReleaseCore (uint32_t CPU)
1185:Drivers/STM32H7xx_HAL_Driver/Src/stm32h7xx_hal_pwr_ex.c **** {
1186:Drivers/STM32H7xx_HAL_Driver/Src/stm32h7xx_hal_pwr_ex.c ****   /* Check the parameters */
1187:Drivers/STM32H7xx_HAL_Driver/Src/stm32h7xx_hal_pwr_ex.c ****   assert_param (IS_PWR_CORE (CPU));
1188:Drivers/STM32H7xx_HAL_Driver/Src/stm32h7xx_hal_pwr_ex.c **** 
1189:Drivers/STM32H7xx_HAL_Driver/Src/stm32h7xx_hal_pwr_ex.c ****   /* Check CPU index */
1190:Drivers/STM32H7xx_HAL_Driver/Src/stm32h7xx_hal_pwr_ex.c ****   if (CPU == PWR_CORE_CPU2)
1191:Drivers/STM32H7xx_HAL_Driver/Src/stm32h7xx_hal_pwr_ex.c ****   {
1192:Drivers/STM32H7xx_HAL_Driver/Src/stm32h7xx_hal_pwr_ex.c ****     /* Reset HOLD2 bit */
1193:Drivers/STM32H7xx_HAL_Driver/Src/stm32h7xx_hal_pwr_ex.c ****     CLEAR_BIT (PWR->CPUCR, PWR_CPUCR_HOLD2);
1194:Drivers/STM32H7xx_HAL_Driver/Src/stm32h7xx_hal_pwr_ex.c ****   }
1195:Drivers/STM32H7xx_HAL_Driver/Src/stm32h7xx_hal_pwr_ex.c ****   else
1196:Drivers/STM32H7xx_HAL_Driver/Src/stm32h7xx_hal_pwr_ex.c ****   {
1197:Drivers/STM32H7xx_HAL_Driver/Src/stm32h7xx_hal_pwr_ex.c ****     /* Reset HOLD1 bit */
1198:Drivers/STM32H7xx_HAL_Driver/Src/stm32h7xx_hal_pwr_ex.c ****     CLEAR_BIT (PWR->CPU2CR, PWR_CPU2CR_HOLD1);
1199:Drivers/STM32H7xx_HAL_Driver/Src/stm32h7xx_hal_pwr_ex.c ****   }
1200:Drivers/STM32H7xx_HAL_Driver/Src/stm32h7xx_hal_pwr_ex.c **** }
1201:Drivers/STM32H7xx_HAL_Driver/Src/stm32h7xx_hal_pwr_ex.c **** #endif /* defined (DUAL_CORE) */
1202:Drivers/STM32H7xx_HAL_Driver/Src/stm32h7xx_hal_pwr_ex.c **** 
1203:Drivers/STM32H7xx_HAL_Driver/Src/stm32h7xx_hal_pwr_ex.c **** 
1204:Drivers/STM32H7xx_HAL_Driver/Src/stm32h7xx_hal_pwr_ex.c **** /**
1205:Drivers/STM32H7xx_HAL_Driver/Src/stm32h7xx_hal_pwr_ex.c ****   * @brief Enable the Flash Power Down in Stop mode.
1206:Drivers/STM32H7xx_HAL_Driver/Src/stm32h7xx_hal_pwr_ex.c ****   * @note   When Flash Power Down is enabled  the Flash memory enters low-power
1207:Drivers/STM32H7xx_HAL_Driver/Src/stm32h7xx_hal_pwr_ex.c ****   *         mode when D1/SRD domain is in DStop mode. This feature allows to
1208:Drivers/STM32H7xx_HAL_Driver/Src/stm32h7xx_hal_pwr_ex.c ****   *         obtain the best trade-off between low-power consumption and restart
1209:Drivers/STM32H7xx_HAL_Driver/Src/stm32h7xx_hal_pwr_ex.c ****   *         time when exiting from DStop mode.
1210:Drivers/STM32H7xx_HAL_Driver/Src/stm32h7xx_hal_pwr_ex.c ****   * @retval None.
1211:Drivers/STM32H7xx_HAL_Driver/Src/stm32h7xx_hal_pwr_ex.c ****   */
1212:Drivers/STM32H7xx_HAL_Driver/Src/stm32h7xx_hal_pwr_ex.c **** void HAL_PWREx_EnableFlashPowerDown (void)
1213:Drivers/STM32H7xx_HAL_Driver/Src/stm32h7xx_hal_pwr_ex.c **** {
 730              		.loc 1 1213 1 is_stmt 1 view -0
 731              		.cfi_startproc
 732              		@ args = 0, pretend = 0, frame = 0
 733              		@ frame_needed = 0, uses_anonymous_args = 0
 734              		@ link register save eliminated.
1214:Drivers/STM32H7xx_HAL_Driver/Src/stm32h7xx_hal_pwr_ex.c ****   /* Enable the Flash Power Down */
1215:Drivers/STM32H7xx_HAL_Driver/Src/stm32h7xx_hal_pwr_ex.c ****   SET_BIT (PWR->CR1, PWR_CR1_FLPS);
 735              		.loc 1 1215 3 view .LVU176
 736 0000 024A     		ldr	r2, .L67
 737 0002 1368     		ldr	r3, [r2]
 738 0004 43F40073 		orr	r3, r3, #512
 739 0008 1360     		str	r3, [r2]
1216:Drivers/STM32H7xx_HAL_Driver/Src/stm32h7xx_hal_pwr_ex.c **** }
 740              		.loc 1 1216 1 is_stmt 0 view .LVU177
 741 000a 7047     		bx	lr
 742              	.L68:
 743              		.align	2
 744              	.L67:
 745 000c 00480258 		.word	1476544512
 746              		.cfi_endproc
 747              	.LFE154:
 749              		.section	.text.HAL_PWREx_DisableFlashPowerDown,"ax",%progbits
 750              		.align	1
ARM GAS  /tmp/cc68FHKf.s 			page 53


 751              		.p2align 2,,3
 752              		.global	HAL_PWREx_DisableFlashPowerDown
 753              		.syntax unified
 754              		.thumb
 755              		.thumb_func
 756              		.fpu fpv5-d16
 758              	HAL_PWREx_DisableFlashPowerDown:
 759              	.LFB155:
1217:Drivers/STM32H7xx_HAL_Driver/Src/stm32h7xx_hal_pwr_ex.c **** 
1218:Drivers/STM32H7xx_HAL_Driver/Src/stm32h7xx_hal_pwr_ex.c **** /**
1219:Drivers/STM32H7xx_HAL_Driver/Src/stm32h7xx_hal_pwr_ex.c ****   * @brief Disable the Flash Power Down in Stop mode.
1220:Drivers/STM32H7xx_HAL_Driver/Src/stm32h7xx_hal_pwr_ex.c ****   * @note   When Flash Power Down is disabled  the Flash memory is kept on
1221:Drivers/STM32H7xx_HAL_Driver/Src/stm32h7xx_hal_pwr_ex.c ****   *         normal mode when D1/SRD domain is in DStop mode. This feature allows
1222:Drivers/STM32H7xx_HAL_Driver/Src/stm32h7xx_hal_pwr_ex.c ****   *         to obtain the best trade-off between low-power consumption and
1223:Drivers/STM32H7xx_HAL_Driver/Src/stm32h7xx_hal_pwr_ex.c ****   *         restart time when exiting from DStop mode.
1224:Drivers/STM32H7xx_HAL_Driver/Src/stm32h7xx_hal_pwr_ex.c ****   * @retval None.
1225:Drivers/STM32H7xx_HAL_Driver/Src/stm32h7xx_hal_pwr_ex.c ****   */
1226:Drivers/STM32H7xx_HAL_Driver/Src/stm32h7xx_hal_pwr_ex.c **** void HAL_PWREx_DisableFlashPowerDown (void)
1227:Drivers/STM32H7xx_HAL_Driver/Src/stm32h7xx_hal_pwr_ex.c **** {
 760              		.loc 1 1227 1 is_stmt 1 view -0
 761              		.cfi_startproc
 762              		@ args = 0, pretend = 0, frame = 0
 763              		@ frame_needed = 0, uses_anonymous_args = 0
 764              		@ link register save eliminated.
1228:Drivers/STM32H7xx_HAL_Driver/Src/stm32h7xx_hal_pwr_ex.c ****   /* Disable the Flash Power Down */
1229:Drivers/STM32H7xx_HAL_Driver/Src/stm32h7xx_hal_pwr_ex.c ****   CLEAR_BIT (PWR->CR1, PWR_CR1_FLPS);
 765              		.loc 1 1229 3 view .LVU179
 766 0000 024A     		ldr	r2, .L70
 767 0002 1368     		ldr	r3, [r2]
 768 0004 23F40073 		bic	r3, r3, #512
 769 0008 1360     		str	r3, [r2]
1230:Drivers/STM32H7xx_HAL_Driver/Src/stm32h7xx_hal_pwr_ex.c **** }
 770              		.loc 1 1230 1 is_stmt 0 view .LVU180
 771 000a 7047     		bx	lr
 772              	.L71:
 773              		.align	2
 774              	.L70:
 775 000c 00480258 		.word	1476544512
 776              		.cfi_endproc
 777              	.LFE155:
 779              		.section	.text.HAL_PWREx_EnableWakeUpPin,"ax",%progbits
 780              		.align	1
 781              		.p2align 2,,3
 782              		.global	HAL_PWREx_EnableWakeUpPin
 783              		.syntax unified
 784              		.thumb
 785              		.thumb_func
 786              		.fpu fpv5-d16
 788              	HAL_PWREx_EnableWakeUpPin:
 789              	.LVL40:
 790              	.LFB156:
1231:Drivers/STM32H7xx_HAL_Driver/Src/stm32h7xx_hal_pwr_ex.c **** 
1232:Drivers/STM32H7xx_HAL_Driver/Src/stm32h7xx_hal_pwr_ex.c **** #if defined (PWR_CR1_SRDRAMSO)
1233:Drivers/STM32H7xx_HAL_Driver/Src/stm32h7xx_hal_pwr_ex.c **** /**
1234:Drivers/STM32H7xx_HAL_Driver/Src/stm32h7xx_hal_pwr_ex.c ****   * @brief Enable memory block shut-off in DStop or DStop2 modes
1235:Drivers/STM32H7xx_HAL_Driver/Src/stm32h7xx_hal_pwr_ex.c ****   * @note   In DStop or DStop2 mode, the content of the memory blocks is
1236:Drivers/STM32H7xx_HAL_Driver/Src/stm32h7xx_hal_pwr_ex.c ****   *         maintained. Further power optimization can be obtained by switching
ARM GAS  /tmp/cc68FHKf.s 			page 54


1237:Drivers/STM32H7xx_HAL_Driver/Src/stm32h7xx_hal_pwr_ex.c ****   *         off some memory blocks. This optimization implies loss of the memory
1238:Drivers/STM32H7xx_HAL_Driver/Src/stm32h7xx_hal_pwr_ex.c ****   *         content. The user can select which memory is discarded during STOP
1239:Drivers/STM32H7xx_HAL_Driver/Src/stm32h7xx_hal_pwr_ex.c ****   *         mode by means of xxSO bits.
1240:Drivers/STM32H7xx_HAL_Driver/Src/stm32h7xx_hal_pwr_ex.c ****   * @param  MemoryBlock : Specifies the memory block to shut-off during DStop or
1241:Drivers/STM32H7xx_HAL_Driver/Src/stm32h7xx_hal_pwr_ex.c ****   *                       DStop2 mode.
1242:Drivers/STM32H7xx_HAL_Driver/Src/stm32h7xx_hal_pwr_ex.c ****   *          This parameter can be one of the following values:
1243:Drivers/STM32H7xx_HAL_Driver/Src/stm32h7xx_hal_pwr_ex.c ****   *            @arg PWR_SRD_AHB_MEMORY_BLOCK : SmartRun domain AHB memory.
1244:Drivers/STM32H7xx_HAL_Driver/Src/stm32h7xx_hal_pwr_ex.c ****   *            @arg PWR_USB_FDCAN_MEMORY_BLOCK : High-speed interfaces USB and
1245:Drivers/STM32H7xx_HAL_Driver/Src/stm32h7xx_hal_pwr_ex.c ****   *                                              FDCAN memories.
1246:Drivers/STM32H7xx_HAL_Driver/Src/stm32h7xx_hal_pwr_ex.c ****   *            @arg PWR_GFXMMU_JPEG_MEMORY_BLOCK : GFXMMU and JPEG memories.
1247:Drivers/STM32H7xx_HAL_Driver/Src/stm32h7xx_hal_pwr_ex.c ****   *            @arg PWR_TCM_ECM_MEMORY_BLOCK : Instruction TCM and ETM memories.
1248:Drivers/STM32H7xx_HAL_Driver/Src/stm32h7xx_hal_pwr_ex.c ****   *            @arg PWR_RAM1_AHB_MEMORY_BLOCK : AHB RAM1 memory.
1249:Drivers/STM32H7xx_HAL_Driver/Src/stm32h7xx_hal_pwr_ex.c ****   *            @arg PWR_RAM2_AHB_MEMORY_BLOCK : AHB RAM2 memory.
1250:Drivers/STM32H7xx_HAL_Driver/Src/stm32h7xx_hal_pwr_ex.c ****   *            @arg PWR_RAM1_AXI_MEMORY_BLOCK : AXI RAM1 memory.
1251:Drivers/STM32H7xx_HAL_Driver/Src/stm32h7xx_hal_pwr_ex.c ****   *            @arg PWR_RAM2_AXI_MEMORY_BLOCK : AXI RAM2 memory.
1252:Drivers/STM32H7xx_HAL_Driver/Src/stm32h7xx_hal_pwr_ex.c ****   *            @arg PWR_RAM3_AXI_MEMORY_BLOCK : AXI RAM3 memory.
1253:Drivers/STM32H7xx_HAL_Driver/Src/stm32h7xx_hal_pwr_ex.c ****   * @retval None.
1254:Drivers/STM32H7xx_HAL_Driver/Src/stm32h7xx_hal_pwr_ex.c ****   */
1255:Drivers/STM32H7xx_HAL_Driver/Src/stm32h7xx_hal_pwr_ex.c **** void HAL_PWREx_EnableMemoryShutOff (uint32_t MemoryBlock)
1256:Drivers/STM32H7xx_HAL_Driver/Src/stm32h7xx_hal_pwr_ex.c **** {
1257:Drivers/STM32H7xx_HAL_Driver/Src/stm32h7xx_hal_pwr_ex.c ****   /* Check the parameter */
1258:Drivers/STM32H7xx_HAL_Driver/Src/stm32h7xx_hal_pwr_ex.c ****   assert_param (IS_PWR_MEMORY_BLOCK (MemoryBlock));
1259:Drivers/STM32H7xx_HAL_Driver/Src/stm32h7xx_hal_pwr_ex.c **** 
1260:Drivers/STM32H7xx_HAL_Driver/Src/stm32h7xx_hal_pwr_ex.c ****   /* Enable memory block shut-off */
1261:Drivers/STM32H7xx_HAL_Driver/Src/stm32h7xx_hal_pwr_ex.c ****   SET_BIT (PWR->CR1, MemoryBlock);
1262:Drivers/STM32H7xx_HAL_Driver/Src/stm32h7xx_hal_pwr_ex.c **** }
1263:Drivers/STM32H7xx_HAL_Driver/Src/stm32h7xx_hal_pwr_ex.c **** 
1264:Drivers/STM32H7xx_HAL_Driver/Src/stm32h7xx_hal_pwr_ex.c **** /**
1265:Drivers/STM32H7xx_HAL_Driver/Src/stm32h7xx_hal_pwr_ex.c ****   * @brief Disable memory block shut-off in DStop or DStop2 modes
1266:Drivers/STM32H7xx_HAL_Driver/Src/stm32h7xx_hal_pwr_ex.c ****   * @param  MemoryBlock : Specifies the memory block to keep content during
1267:Drivers/STM32H7xx_HAL_Driver/Src/stm32h7xx_hal_pwr_ex.c ****   *                       DStop or DStop2 mode.
1268:Drivers/STM32H7xx_HAL_Driver/Src/stm32h7xx_hal_pwr_ex.c ****   *          This parameter can be one of the following values:
1269:Drivers/STM32H7xx_HAL_Driver/Src/stm32h7xx_hal_pwr_ex.c ****   *            @arg PWR_SRD_AHB_MEMORY_BLOCK : SmartRun domain AHB memory.
1270:Drivers/STM32H7xx_HAL_Driver/Src/stm32h7xx_hal_pwr_ex.c ****   *            @arg PWR_USB_FDCAN_MEMORY_BLOCK : High-speed interfaces USB and
1271:Drivers/STM32H7xx_HAL_Driver/Src/stm32h7xx_hal_pwr_ex.c ****   *                                              FDCAN memories.
1272:Drivers/STM32H7xx_HAL_Driver/Src/stm32h7xx_hal_pwr_ex.c ****   *            @arg PWR_GFXMMU_JPEG_MEMORY_BLOCK : GFXMMU and JPEG memories.
1273:Drivers/STM32H7xx_HAL_Driver/Src/stm32h7xx_hal_pwr_ex.c ****   *            @arg PWR_TCM_ECM_MEMORY_BLOCK : Instruction TCM and ETM memories.
1274:Drivers/STM32H7xx_HAL_Driver/Src/stm32h7xx_hal_pwr_ex.c ****   *            @arg PWR_RAM1_AHB_MEMORY_BLOCK : AHB RAM1 memory.
1275:Drivers/STM32H7xx_HAL_Driver/Src/stm32h7xx_hal_pwr_ex.c ****   *            @arg PWR_RAM2_AHB_MEMORY_BLOCK : AHB RAM2 memory.
1276:Drivers/STM32H7xx_HAL_Driver/Src/stm32h7xx_hal_pwr_ex.c ****   *            @arg PWR_RAM1_AXI_MEMORY_BLOCK : AXI RAM1 memory.
1277:Drivers/STM32H7xx_HAL_Driver/Src/stm32h7xx_hal_pwr_ex.c ****   *            @arg PWR_RAM2_AXI_MEMORY_BLOCK : AXI RAM2 memory.
1278:Drivers/STM32H7xx_HAL_Driver/Src/stm32h7xx_hal_pwr_ex.c ****   *            @arg PWR_RAM3_AXI_MEMORY_BLOCK : AXI RAM3 memory.
1279:Drivers/STM32H7xx_HAL_Driver/Src/stm32h7xx_hal_pwr_ex.c ****   * @retval None.
1280:Drivers/STM32H7xx_HAL_Driver/Src/stm32h7xx_hal_pwr_ex.c ****   */
1281:Drivers/STM32H7xx_HAL_Driver/Src/stm32h7xx_hal_pwr_ex.c **** void HAL_PWREx_DisableMemoryShutOff (uint32_t MemoryBlock)
1282:Drivers/STM32H7xx_HAL_Driver/Src/stm32h7xx_hal_pwr_ex.c **** {
1283:Drivers/STM32H7xx_HAL_Driver/Src/stm32h7xx_hal_pwr_ex.c ****   /* Check the parameter */
1284:Drivers/STM32H7xx_HAL_Driver/Src/stm32h7xx_hal_pwr_ex.c ****   assert_param (IS_PWR_MEMORY_BLOCK (MemoryBlock));
1285:Drivers/STM32H7xx_HAL_Driver/Src/stm32h7xx_hal_pwr_ex.c **** 
1286:Drivers/STM32H7xx_HAL_Driver/Src/stm32h7xx_hal_pwr_ex.c ****   /* Disable memory block shut-off */
1287:Drivers/STM32H7xx_HAL_Driver/Src/stm32h7xx_hal_pwr_ex.c ****   CLEAR_BIT (PWR->CR1, MemoryBlock);
1288:Drivers/STM32H7xx_HAL_Driver/Src/stm32h7xx_hal_pwr_ex.c **** }
1289:Drivers/STM32H7xx_HAL_Driver/Src/stm32h7xx_hal_pwr_ex.c **** #endif /* defined (PWR_CR1_SRDRAMSO) */
1290:Drivers/STM32H7xx_HAL_Driver/Src/stm32h7xx_hal_pwr_ex.c **** 
1291:Drivers/STM32H7xx_HAL_Driver/Src/stm32h7xx_hal_pwr_ex.c **** /**
1292:Drivers/STM32H7xx_HAL_Driver/Src/stm32h7xx_hal_pwr_ex.c ****   * @brief Enable the Wake-up PINx functionality.
1293:Drivers/STM32H7xx_HAL_Driver/Src/stm32h7xx_hal_pwr_ex.c ****   * @param  sPinParams : Pointer to a PWREx_WakeupPinTypeDef structure that
ARM GAS  /tmp/cc68FHKf.s 			page 55


1294:Drivers/STM32H7xx_HAL_Driver/Src/stm32h7xx_hal_pwr_ex.c ****   *                      contains the configuration information for the wake-up
1295:Drivers/STM32H7xx_HAL_Driver/Src/stm32h7xx_hal_pwr_ex.c ****   *                      Pin.
1296:Drivers/STM32H7xx_HAL_Driver/Src/stm32h7xx_hal_pwr_ex.c ****   * @note   For dual core devices, please ensure to configure the EXTI lines for
1297:Drivers/STM32H7xx_HAL_Driver/Src/stm32h7xx_hal_pwr_ex.c ****   *         the different Cortex-Mx. All combination are allowed: wake up only
1298:Drivers/STM32H7xx_HAL_Driver/Src/stm32h7xx_hal_pwr_ex.c ****   *         Cortex-M7, wake up only Cortex-M4 and wake up Cortex-M7 and
1299:Drivers/STM32H7xx_HAL_Driver/Src/stm32h7xx_hal_pwr_ex.c ****   *         Cortex-M4.
1300:Drivers/STM32H7xx_HAL_Driver/Src/stm32h7xx_hal_pwr_ex.c ****   * @retval None.
1301:Drivers/STM32H7xx_HAL_Driver/Src/stm32h7xx_hal_pwr_ex.c ****   */
1302:Drivers/STM32H7xx_HAL_Driver/Src/stm32h7xx_hal_pwr_ex.c **** void HAL_PWREx_EnableWakeUpPin (PWREx_WakeupPinTypeDef *sPinParams)
1303:Drivers/STM32H7xx_HAL_Driver/Src/stm32h7xx_hal_pwr_ex.c **** {
 791              		.loc 1 1303 1 is_stmt 1 view -0
 792              		.cfi_startproc
 793              		@ args = 0, pretend = 0, frame = 0
 794              		@ frame_needed = 0, uses_anonymous_args = 0
 795              		@ link register save eliminated.
1304:Drivers/STM32H7xx_HAL_Driver/Src/stm32h7xx_hal_pwr_ex.c ****   uint32_t pinConfig;
 796              		.loc 1 1304 3 view .LVU182
1305:Drivers/STM32H7xx_HAL_Driver/Src/stm32h7xx_hal_pwr_ex.c ****   uint32_t regMask;
 797              		.loc 1 1305 3 view .LVU183
1306:Drivers/STM32H7xx_HAL_Driver/Src/stm32h7xx_hal_pwr_ex.c ****   const uint32_t pullMask = PWR_WKUPEPR_WKUPPUPD1;
 798              		.loc 1 1306 3 view .LVU184
1307:Drivers/STM32H7xx_HAL_Driver/Src/stm32h7xx_hal_pwr_ex.c **** 
1308:Drivers/STM32H7xx_HAL_Driver/Src/stm32h7xx_hal_pwr_ex.c ****   /* Check the parameters */
1309:Drivers/STM32H7xx_HAL_Driver/Src/stm32h7xx_hal_pwr_ex.c ****   assert_param (IS_PWR_WAKEUP_PIN (sPinParams->WakeUpPin));
 799              		.loc 1 1309 3 view .LVU185
1310:Drivers/STM32H7xx_HAL_Driver/Src/stm32h7xx_hal_pwr_ex.c ****   assert_param (IS_PWR_WAKEUP_PIN_POLARITY (sPinParams->PinPolarity));
 800              		.loc 1 1310 3 view .LVU186
1311:Drivers/STM32H7xx_HAL_Driver/Src/stm32h7xx_hal_pwr_ex.c ****   assert_param (IS_PWR_WAKEUP_PIN_PULL (sPinParams->PinPull));
 801              		.loc 1 1311 3 view .LVU187
1312:Drivers/STM32H7xx_HAL_Driver/Src/stm32h7xx_hal_pwr_ex.c **** 
1313:Drivers/STM32H7xx_HAL_Driver/Src/stm32h7xx_hal_pwr_ex.c ****   pinConfig = sPinParams->WakeUpPin | \
 802              		.loc 1 1313 3 view .LVU188
1314:Drivers/STM32H7xx_HAL_Driver/Src/stm32h7xx_hal_pwr_ex.c ****               (sPinParams->PinPolarity << ((POSITION_VAL(sPinParams->WakeUpPin) + PWR_WKUPEPR_WKUPP
 803              		.loc 1 1314 26 is_stmt 0 view .LVU189
 804 0000 D0E90021 		ldrd	r2, r1, [r0]
 805              	.LVL41:
 806              	.LBB26:
 807              	.LBI26:
 947:Drivers/CMSIS/Include/cmsis_gcc.h **** }
 948:Drivers/CMSIS/Include/cmsis_gcc.h **** 
 949:Drivers/CMSIS/Include/cmsis_gcc.h **** 
 950:Drivers/CMSIS/Include/cmsis_gcc.h **** /**
 951:Drivers/CMSIS/Include/cmsis_gcc.h ****   \brief   Data Memory Barrier
 952:Drivers/CMSIS/Include/cmsis_gcc.h ****   \details Ensures the apparent order of the explicit memory operations before
 953:Drivers/CMSIS/Include/cmsis_gcc.h ****            and after the instruction, without ensuring their completion.
 954:Drivers/CMSIS/Include/cmsis_gcc.h ****  */
 955:Drivers/CMSIS/Include/cmsis_gcc.h **** __STATIC_FORCEINLINE void __DMB(void)
 956:Drivers/CMSIS/Include/cmsis_gcc.h **** {
 957:Drivers/CMSIS/Include/cmsis_gcc.h ****   __ASM volatile ("dmb 0xF":::"memory");
 958:Drivers/CMSIS/Include/cmsis_gcc.h **** }
 959:Drivers/CMSIS/Include/cmsis_gcc.h **** 
 960:Drivers/CMSIS/Include/cmsis_gcc.h **** 
 961:Drivers/CMSIS/Include/cmsis_gcc.h **** /**
 962:Drivers/CMSIS/Include/cmsis_gcc.h ****   \brief   Reverse byte order (32 bit)
 963:Drivers/CMSIS/Include/cmsis_gcc.h ****   \details Reverses the byte order in unsigned integer value. For example, 0x12345678 becomes 0x785
 964:Drivers/CMSIS/Include/cmsis_gcc.h ****   \param [in]    value  Value to reverse
 965:Drivers/CMSIS/Include/cmsis_gcc.h ****   \return               Reversed value
ARM GAS  /tmp/cc68FHKf.s 			page 56


 966:Drivers/CMSIS/Include/cmsis_gcc.h ****  */
 967:Drivers/CMSIS/Include/cmsis_gcc.h **** __STATIC_FORCEINLINE uint32_t __REV(uint32_t value)
 968:Drivers/CMSIS/Include/cmsis_gcc.h **** {
 969:Drivers/CMSIS/Include/cmsis_gcc.h **** #if (__GNUC__ > 4) || (__GNUC__ == 4 && __GNUC_MINOR__ >= 5)
 970:Drivers/CMSIS/Include/cmsis_gcc.h ****   return __builtin_bswap32(value);
 971:Drivers/CMSIS/Include/cmsis_gcc.h **** #else
 972:Drivers/CMSIS/Include/cmsis_gcc.h ****   uint32_t result;
 973:Drivers/CMSIS/Include/cmsis_gcc.h **** 
 974:Drivers/CMSIS/Include/cmsis_gcc.h ****   __ASM volatile ("rev %0, %1" : __CMSIS_GCC_OUT_REG (result) : __CMSIS_GCC_USE_REG (value) );
 975:Drivers/CMSIS/Include/cmsis_gcc.h ****   return result;
 976:Drivers/CMSIS/Include/cmsis_gcc.h **** #endif
 977:Drivers/CMSIS/Include/cmsis_gcc.h **** }
 978:Drivers/CMSIS/Include/cmsis_gcc.h **** 
 979:Drivers/CMSIS/Include/cmsis_gcc.h **** 
 980:Drivers/CMSIS/Include/cmsis_gcc.h **** /**
 981:Drivers/CMSIS/Include/cmsis_gcc.h ****   \brief   Reverse byte order (16 bit)
 982:Drivers/CMSIS/Include/cmsis_gcc.h ****   \details Reverses the byte order within each halfword of a word. For example, 0x12345678 becomes 
 983:Drivers/CMSIS/Include/cmsis_gcc.h ****   \param [in]    value  Value to reverse
 984:Drivers/CMSIS/Include/cmsis_gcc.h ****   \return               Reversed value
 985:Drivers/CMSIS/Include/cmsis_gcc.h ****  */
 986:Drivers/CMSIS/Include/cmsis_gcc.h **** __STATIC_FORCEINLINE uint32_t __REV16(uint32_t value)
 987:Drivers/CMSIS/Include/cmsis_gcc.h **** {
 988:Drivers/CMSIS/Include/cmsis_gcc.h ****   uint32_t result;
 989:Drivers/CMSIS/Include/cmsis_gcc.h **** 
 990:Drivers/CMSIS/Include/cmsis_gcc.h ****   __ASM volatile ("rev16 %0, %1" : __CMSIS_GCC_OUT_REG (result) : __CMSIS_GCC_USE_REG (value) );
 991:Drivers/CMSIS/Include/cmsis_gcc.h ****   return result;
 992:Drivers/CMSIS/Include/cmsis_gcc.h **** }
 993:Drivers/CMSIS/Include/cmsis_gcc.h **** 
 994:Drivers/CMSIS/Include/cmsis_gcc.h **** 
