ARM GAS  /tmp/ccnuvyK9.s 			page 1


   1              		.cpu cortex-m7
   2              		.eabi_attribute 28, 1
   3              		.eabi_attribute 20, 1
   4              		.eabi_attribute 21, 1
   5              		.eabi_attribute 23, 3
   6              		.eabi_attribute 24, 1
   7              		.eabi_attribute 25, 1
   8              		.eabi_attribute 26, 1
   9              		.eabi_attribute 30, 2
  10              		.eabi_attribute 34, 1
  11              		.eabi_attribute 18, 4
  12              		.file	"stm32h7xx_hal_dma_ex.c"
  13              		.text
  14              	.Ltext0:
  15              		.cfi_sections	.debug_frame
  16              		.section	.text.DMA_MultiBufferSetConfig,"ax",%progbits
  17              		.align	1
  18              		.p2align 2,,3
  19              		.arch armv7e-m
  20              		.syntax unified
  21              		.thumb
  22              		.thumb_func
  23              		.fpu fpv5-d16
  25              	DMA_MultiBufferSetConfig:
  26              	.LVL0:
  27              	.LFB152:
  28              		.file 1 "Drivers/STM32H7xx_HAL_Driver/Src/stm32h7xx_hal_dma_ex.c"
   1:Drivers/STM32H7xx_HAL_Driver/Src/stm32h7xx_hal_dma_ex.c **** /**
   2:Drivers/STM32H7xx_HAL_Driver/Src/stm32h7xx_hal_dma_ex.c ****   ******************************************************************************
   3:Drivers/STM32H7xx_HAL_Driver/Src/stm32h7xx_hal_dma_ex.c ****   * @file    stm32h7xx_hal_dma_ex.c
   4:Drivers/STM32H7xx_HAL_Driver/Src/stm32h7xx_hal_dma_ex.c ****   * @author  MCD Application Team
   5:Drivers/STM32H7xx_HAL_Driver/Src/stm32h7xx_hal_dma_ex.c ****   * @brief   DMA Extension HAL module driver
   6:Drivers/STM32H7xx_HAL_Driver/Src/stm32h7xx_hal_dma_ex.c ****   *          This file provides firmware functions to manage the following
   7:Drivers/STM32H7xx_HAL_Driver/Src/stm32h7xx_hal_dma_ex.c ****   *          functionalities of the DMA Extension peripheral:
   8:Drivers/STM32H7xx_HAL_Driver/Src/stm32h7xx_hal_dma_ex.c ****   *           + Extended features functions
   9:Drivers/STM32H7xx_HAL_Driver/Src/stm32h7xx_hal_dma_ex.c ****   *
  10:Drivers/STM32H7xx_HAL_Driver/Src/stm32h7xx_hal_dma_ex.c ****   @verbatim
  11:Drivers/STM32H7xx_HAL_Driver/Src/stm32h7xx_hal_dma_ex.c ****   ==============================================================================
  12:Drivers/STM32H7xx_HAL_Driver/Src/stm32h7xx_hal_dma_ex.c ****                         ##### How to use this driver #####
  13:Drivers/STM32H7xx_HAL_Driver/Src/stm32h7xx_hal_dma_ex.c ****   ==============================================================================
  14:Drivers/STM32H7xx_HAL_Driver/Src/stm32h7xx_hal_dma_ex.c ****   [..]
  15:Drivers/STM32H7xx_HAL_Driver/Src/stm32h7xx_hal_dma_ex.c ****   The DMA Extension HAL driver can be used as follows:
  16:Drivers/STM32H7xx_HAL_Driver/Src/stm32h7xx_hal_dma_ex.c ****    (+) Start a multi buffer transfer using the HAL_DMA_MultiBufferStart() function
  17:Drivers/STM32H7xx_HAL_Driver/Src/stm32h7xx_hal_dma_ex.c ****        for polling mode or HAL_DMA_MultiBufferStart_IT() for interrupt mode.
  18:Drivers/STM32H7xx_HAL_Driver/Src/stm32h7xx_hal_dma_ex.c **** 
  19:Drivers/STM32H7xx_HAL_Driver/Src/stm32h7xx_hal_dma_ex.c ****    (+) Configure the DMA_MUX Synchronization Block using HAL_DMAEx_ConfigMuxSync function.
  20:Drivers/STM32H7xx_HAL_Driver/Src/stm32h7xx_hal_dma_ex.c ****    (+) Configure the DMA_MUX Request Generator Block using HAL_DMAEx_ConfigMuxRequestGenerator func
  21:Drivers/STM32H7xx_HAL_Driver/Src/stm32h7xx_hal_dma_ex.c ****        Functions HAL_DMAEx_EnableMuxRequestGenerator and HAL_DMAEx_DisableMuxRequestGenerator can t
  22:Drivers/STM32H7xx_HAL_Driver/Src/stm32h7xx_hal_dma_ex.c ****        to respectively enable/disable the request generator.
  23:Drivers/STM32H7xx_HAL_Driver/Src/stm32h7xx_hal_dma_ex.c **** 
  24:Drivers/STM32H7xx_HAL_Driver/Src/stm32h7xx_hal_dma_ex.c ****    (+) To handle the DMAMUX Interrupts, the function  HAL_DMAEx_MUX_IRQHandler should be called fro
  25:Drivers/STM32H7xx_HAL_Driver/Src/stm32h7xx_hal_dma_ex.c ****        the DMAMUX IRQ handler i.e DMAMUX1_OVR_IRQHandler or DMAMUX2_OVR_IRQHandler .
  26:Drivers/STM32H7xx_HAL_Driver/Src/stm32h7xx_hal_dma_ex.c ****        As only one interrupt line is available for all DMAMUX channels and request generators , HAL
  27:Drivers/STM32H7xx_HAL_Driver/Src/stm32h7xx_hal_dma_ex.c ****        called with, as parameter, the appropriate DMA handle as many as used DMAs in the user proje
  28:Drivers/STM32H7xx_HAL_Driver/Src/stm32h7xx_hal_dma_ex.c ****       (exception done if a given DMA is not using the DMAMUX SYNC block neither a request generator
  29:Drivers/STM32H7xx_HAL_Driver/Src/stm32h7xx_hal_dma_ex.c **** 
  30:Drivers/STM32H7xx_HAL_Driver/Src/stm32h7xx_hal_dma_ex.c ****      -@-  In Memory-to-Memory transfer mode, Multi (Double) Buffer mode is not allowed.
ARM GAS  /tmp/ccnuvyK9.s 			page 2


  31:Drivers/STM32H7xx_HAL_Driver/Src/stm32h7xx_hal_dma_ex.c ****      -@-  When Multi (Double) Buffer mode is enabled, the transfer is circular by default.
  32:Drivers/STM32H7xx_HAL_Driver/Src/stm32h7xx_hal_dma_ex.c ****      -@-  In Multi (Double) buffer mode, it is possible to update the base address for
  33:Drivers/STM32H7xx_HAL_Driver/Src/stm32h7xx_hal_dma_ex.c ****           the AHB memory port on the fly (DMA_SxM0AR or DMA_SxM1AR) when the stream is enabled.
  34:Drivers/STM32H7xx_HAL_Driver/Src/stm32h7xx_hal_dma_ex.c ****      -@-  Multi (Double) buffer mode is possible with DMA and BDMA instances.
  35:Drivers/STM32H7xx_HAL_Driver/Src/stm32h7xx_hal_dma_ex.c **** 
  36:Drivers/STM32H7xx_HAL_Driver/Src/stm32h7xx_hal_dma_ex.c ****   @endverbatim
  37:Drivers/STM32H7xx_HAL_Driver/Src/stm32h7xx_hal_dma_ex.c ****   ******************************************************************************
  38:Drivers/STM32H7xx_HAL_Driver/Src/stm32h7xx_hal_dma_ex.c ****   * @attention
  39:Drivers/STM32H7xx_HAL_Driver/Src/stm32h7xx_hal_dma_ex.c ****   *
  40:Drivers/STM32H7xx_HAL_Driver/Src/stm32h7xx_hal_dma_ex.c ****   * Copyright (c) 2017 STMicroelectronics.
  41:Drivers/STM32H7xx_HAL_Driver/Src/stm32h7xx_hal_dma_ex.c ****   * All rights reserved.
  42:Drivers/STM32H7xx_HAL_Driver/Src/stm32h7xx_hal_dma_ex.c ****   *
  43:Drivers/STM32H7xx_HAL_Driver/Src/stm32h7xx_hal_dma_ex.c ****   * This software is licensed under terms that can be found in the LICENSE file
  44:Drivers/STM32H7xx_HAL_Driver/Src/stm32h7xx_hal_dma_ex.c ****   * in the root directory of this software component.
  45:Drivers/STM32H7xx_HAL_Driver/Src/stm32h7xx_hal_dma_ex.c ****   * If no LICENSE file comes with this software, it is provided AS-IS.
  46:Drivers/STM32H7xx_HAL_Driver/Src/stm32h7xx_hal_dma_ex.c ****   *
  47:Drivers/STM32H7xx_HAL_Driver/Src/stm32h7xx_hal_dma_ex.c ****   ******************************************************************************
  48:Drivers/STM32H7xx_HAL_Driver/Src/stm32h7xx_hal_dma_ex.c ****   */
  49:Drivers/STM32H7xx_HAL_Driver/Src/stm32h7xx_hal_dma_ex.c **** 
  50:Drivers/STM32H7xx_HAL_Driver/Src/stm32h7xx_hal_dma_ex.c **** /* Includes ------------------------------------------------------------------*/
  51:Drivers/STM32H7xx_HAL_Driver/Src/stm32h7xx_hal_dma_ex.c **** #include "stm32h7xx_hal.h"
  52:Drivers/STM32H7xx_HAL_Driver/Src/stm32h7xx_hal_dma_ex.c **** 
  53:Drivers/STM32H7xx_HAL_Driver/Src/stm32h7xx_hal_dma_ex.c **** /** @addtogroup STM32H7xx_HAL_Driver
  54:Drivers/STM32H7xx_HAL_Driver/Src/stm32h7xx_hal_dma_ex.c ****   * @{
  55:Drivers/STM32H7xx_HAL_Driver/Src/stm32h7xx_hal_dma_ex.c ****   */
  56:Drivers/STM32H7xx_HAL_Driver/Src/stm32h7xx_hal_dma_ex.c **** 
  57:Drivers/STM32H7xx_HAL_Driver/Src/stm32h7xx_hal_dma_ex.c **** /** @defgroup DMAEx DMAEx
  58:Drivers/STM32H7xx_HAL_Driver/Src/stm32h7xx_hal_dma_ex.c ****   * @brief DMA Extended HAL module driver
  59:Drivers/STM32H7xx_HAL_Driver/Src/stm32h7xx_hal_dma_ex.c ****   * @{
  60:Drivers/STM32H7xx_HAL_Driver/Src/stm32h7xx_hal_dma_ex.c ****   */
  61:Drivers/STM32H7xx_HAL_Driver/Src/stm32h7xx_hal_dma_ex.c **** 
  62:Drivers/STM32H7xx_HAL_Driver/Src/stm32h7xx_hal_dma_ex.c **** #ifdef HAL_DMA_MODULE_ENABLED
  63:Drivers/STM32H7xx_HAL_Driver/Src/stm32h7xx_hal_dma_ex.c **** 
  64:Drivers/STM32H7xx_HAL_Driver/Src/stm32h7xx_hal_dma_ex.c **** /* Private types -------------------------------------------------------------*/
  65:Drivers/STM32H7xx_HAL_Driver/Src/stm32h7xx_hal_dma_ex.c **** /* Private variables ---------------------------------------------------------*/
  66:Drivers/STM32H7xx_HAL_Driver/Src/stm32h7xx_hal_dma_ex.c **** /* Private Constants ---------------------------------------------------------*/
  67:Drivers/STM32H7xx_HAL_Driver/Src/stm32h7xx_hal_dma_ex.c **** /* Private macros ------------------------------------------------------------*/
  68:Drivers/STM32H7xx_HAL_Driver/Src/stm32h7xx_hal_dma_ex.c **** /* Private functions ---------------------------------------------------------*/
  69:Drivers/STM32H7xx_HAL_Driver/Src/stm32h7xx_hal_dma_ex.c **** /** @addtogroup DMAEx_Private_Functions
  70:Drivers/STM32H7xx_HAL_Driver/Src/stm32h7xx_hal_dma_ex.c ****   * @{
  71:Drivers/STM32H7xx_HAL_Driver/Src/stm32h7xx_hal_dma_ex.c ****   */
  72:Drivers/STM32H7xx_HAL_Driver/Src/stm32h7xx_hal_dma_ex.c **** 
  73:Drivers/STM32H7xx_HAL_Driver/Src/stm32h7xx_hal_dma_ex.c **** static void DMA_MultiBufferSetConfig(DMA_HandleTypeDef *hdma, uint32_t SrcAddress, uint32_t DstAddr
  74:Drivers/STM32H7xx_HAL_Driver/Src/stm32h7xx_hal_dma_ex.c **** 
  75:Drivers/STM32H7xx_HAL_Driver/Src/stm32h7xx_hal_dma_ex.c **** /**
  76:Drivers/STM32H7xx_HAL_Driver/Src/stm32h7xx_hal_dma_ex.c ****   * @}
  77:Drivers/STM32H7xx_HAL_Driver/Src/stm32h7xx_hal_dma_ex.c ****   */
  78:Drivers/STM32H7xx_HAL_Driver/Src/stm32h7xx_hal_dma_ex.c **** 
  79:Drivers/STM32H7xx_HAL_Driver/Src/stm32h7xx_hal_dma_ex.c **** /* Exported functions ---------------------------------------------------------*/
  80:Drivers/STM32H7xx_HAL_Driver/Src/stm32h7xx_hal_dma_ex.c **** 
  81:Drivers/STM32H7xx_HAL_Driver/Src/stm32h7xx_hal_dma_ex.c **** /** @addtogroup DMAEx_Exported_Functions
  82:Drivers/STM32H7xx_HAL_Driver/Src/stm32h7xx_hal_dma_ex.c ****   * @{
  83:Drivers/STM32H7xx_HAL_Driver/Src/stm32h7xx_hal_dma_ex.c ****   */
  84:Drivers/STM32H7xx_HAL_Driver/Src/stm32h7xx_hal_dma_ex.c **** 
  85:Drivers/STM32H7xx_HAL_Driver/Src/stm32h7xx_hal_dma_ex.c **** 
  86:Drivers/STM32H7xx_HAL_Driver/Src/stm32h7xx_hal_dma_ex.c **** /** @addtogroup DMAEx_Exported_Functions_Group1
  87:Drivers/STM32H7xx_HAL_Driver/Src/stm32h7xx_hal_dma_ex.c ****   *
ARM GAS  /tmp/ccnuvyK9.s 			page 3


  88:Drivers/STM32H7xx_HAL_Driver/Src/stm32h7xx_hal_dma_ex.c **** @verbatim
  89:Drivers/STM32H7xx_HAL_Driver/Src/stm32h7xx_hal_dma_ex.c ****  ===============================================================================
  90:Drivers/STM32H7xx_HAL_Driver/Src/stm32h7xx_hal_dma_ex.c ****                 #####  Extended features functions  #####
  91:Drivers/STM32H7xx_HAL_Driver/Src/stm32h7xx_hal_dma_ex.c ****  ===============================================================================
  92:Drivers/STM32H7xx_HAL_Driver/Src/stm32h7xx_hal_dma_ex.c ****     [..]  This section provides functions allowing to:
  93:Drivers/STM32H7xx_HAL_Driver/Src/stm32h7xx_hal_dma_ex.c ****       (+) Configure the source, destination address and data length and
  94:Drivers/STM32H7xx_HAL_Driver/Src/stm32h7xx_hal_dma_ex.c ****           Start MultiBuffer DMA transfer
  95:Drivers/STM32H7xx_HAL_Driver/Src/stm32h7xx_hal_dma_ex.c ****       (+) Configure the source, destination address and data length and
  96:Drivers/STM32H7xx_HAL_Driver/Src/stm32h7xx_hal_dma_ex.c ****           Start MultiBuffer DMA transfer with interrupt
  97:Drivers/STM32H7xx_HAL_Driver/Src/stm32h7xx_hal_dma_ex.c ****       (+) Change on the fly the memory0 or memory1 address.
  98:Drivers/STM32H7xx_HAL_Driver/Src/stm32h7xx_hal_dma_ex.c ****       (+) Configure the DMA_MUX Synchronization Block using HAL_DMAEx_ConfigMuxSync function.
  99:Drivers/STM32H7xx_HAL_Driver/Src/stm32h7xx_hal_dma_ex.c ****       (+) Configure the DMA_MUX Request Generator Block using HAL_DMAEx_ConfigMuxRequestGenerator f
 100:Drivers/STM32H7xx_HAL_Driver/Src/stm32h7xx_hal_dma_ex.c ****       (+) Functions HAL_DMAEx_EnableMuxRequestGenerator and HAL_DMAEx_DisableMuxRequestGenerator ca
 101:Drivers/STM32H7xx_HAL_Driver/Src/stm32h7xx_hal_dma_ex.c ****           to respectively enable/disable the request generator.
 102:Drivers/STM32H7xx_HAL_Driver/Src/stm32h7xx_hal_dma_ex.c ****       (+) Handle DMAMUX interrupts using HAL_DMAEx_MUX_IRQHandler : should be called from
 103:Drivers/STM32H7xx_HAL_Driver/Src/stm32h7xx_hal_dma_ex.c ****           the DMAMUX IRQ handler i.e DMAMUX1_OVR_IRQHandler or DMAMUX2_OVR_IRQHandler
 104:Drivers/STM32H7xx_HAL_Driver/Src/stm32h7xx_hal_dma_ex.c **** 
 105:Drivers/STM32H7xx_HAL_Driver/Src/stm32h7xx_hal_dma_ex.c **** @endverbatim
 106:Drivers/STM32H7xx_HAL_Driver/Src/stm32h7xx_hal_dma_ex.c ****   * @{
 107:Drivers/STM32H7xx_HAL_Driver/Src/stm32h7xx_hal_dma_ex.c ****   */
 108:Drivers/STM32H7xx_HAL_Driver/Src/stm32h7xx_hal_dma_ex.c **** 
 109:Drivers/STM32H7xx_HAL_Driver/Src/stm32h7xx_hal_dma_ex.c **** 
 110:Drivers/STM32H7xx_HAL_Driver/Src/stm32h7xx_hal_dma_ex.c **** /**
 111:Drivers/STM32H7xx_HAL_Driver/Src/stm32h7xx_hal_dma_ex.c ****   * @brief  Starts the multi_buffer DMA Transfer.
 112:Drivers/STM32H7xx_HAL_Driver/Src/stm32h7xx_hal_dma_ex.c ****   * @param  hdma      : pointer to a DMA_HandleTypeDef structure that contains
 113:Drivers/STM32H7xx_HAL_Driver/Src/stm32h7xx_hal_dma_ex.c ****   *                     the configuration information for the specified DMA Stream.
 114:Drivers/STM32H7xx_HAL_Driver/Src/stm32h7xx_hal_dma_ex.c ****   * @param  SrcAddress: The source memory Buffer address
 115:Drivers/STM32H7xx_HAL_Driver/Src/stm32h7xx_hal_dma_ex.c ****   * @param  DstAddress: The destination memory Buffer address
 116:Drivers/STM32H7xx_HAL_Driver/Src/stm32h7xx_hal_dma_ex.c ****   * @param  SecondMemAddress: The second memory Buffer address in case of multi buffer Transfer
 117:Drivers/STM32H7xx_HAL_Driver/Src/stm32h7xx_hal_dma_ex.c ****   * @param  DataLength: The length of data to be transferred from source to destination
 118:Drivers/STM32H7xx_HAL_Driver/Src/stm32h7xx_hal_dma_ex.c ****   * @retval HAL status
 119:Drivers/STM32H7xx_HAL_Driver/Src/stm32h7xx_hal_dma_ex.c ****   */
 120:Drivers/STM32H7xx_HAL_Driver/Src/stm32h7xx_hal_dma_ex.c **** HAL_StatusTypeDef HAL_DMAEx_MultiBufferStart(DMA_HandleTypeDef *hdma, uint32_t SrcAddress, uint32_t
 121:Drivers/STM32H7xx_HAL_Driver/Src/stm32h7xx_hal_dma_ex.c **** {
 122:Drivers/STM32H7xx_HAL_Driver/Src/stm32h7xx_hal_dma_ex.c ****   HAL_StatusTypeDef status = HAL_OK;
 123:Drivers/STM32H7xx_HAL_Driver/Src/stm32h7xx_hal_dma_ex.c ****   __IO uint32_t *ifcRegister_Base; /* DMA Stream Interrupt Clear register */
 124:Drivers/STM32H7xx_HAL_Driver/Src/stm32h7xx_hal_dma_ex.c **** 
 125:Drivers/STM32H7xx_HAL_Driver/Src/stm32h7xx_hal_dma_ex.c ****   /* Check the parameters */
 126:Drivers/STM32H7xx_HAL_Driver/Src/stm32h7xx_hal_dma_ex.c ****   assert_param(IS_DMA_BUFFER_SIZE(DataLength));
 127:Drivers/STM32H7xx_HAL_Driver/Src/stm32h7xx_hal_dma_ex.c ****   assert_param(IS_DMA_ALL_INSTANCE(hdma->Instance));
 128:Drivers/STM32H7xx_HAL_Driver/Src/stm32h7xx_hal_dma_ex.c **** 
 129:Drivers/STM32H7xx_HAL_Driver/Src/stm32h7xx_hal_dma_ex.c ****   /* Memory-to-memory transfer not supported in double buffering mode */
 130:Drivers/STM32H7xx_HAL_Driver/Src/stm32h7xx_hal_dma_ex.c ****   if (hdma->Init.Direction == DMA_MEMORY_TO_MEMORY)
 131:Drivers/STM32H7xx_HAL_Driver/Src/stm32h7xx_hal_dma_ex.c ****   {
 132:Drivers/STM32H7xx_HAL_Driver/Src/stm32h7xx_hal_dma_ex.c ****     hdma->ErrorCode = HAL_DMA_ERROR_NOT_SUPPORTED;
 133:Drivers/STM32H7xx_HAL_Driver/Src/stm32h7xx_hal_dma_ex.c ****     status = HAL_ERROR;
 134:Drivers/STM32H7xx_HAL_Driver/Src/stm32h7xx_hal_dma_ex.c ****   }
 135:Drivers/STM32H7xx_HAL_Driver/Src/stm32h7xx_hal_dma_ex.c ****   else
 136:Drivers/STM32H7xx_HAL_Driver/Src/stm32h7xx_hal_dma_ex.c ****   {
 137:Drivers/STM32H7xx_HAL_Driver/Src/stm32h7xx_hal_dma_ex.c ****     /* Process Locked */
 138:Drivers/STM32H7xx_HAL_Driver/Src/stm32h7xx_hal_dma_ex.c ****     __HAL_LOCK(hdma);
 139:Drivers/STM32H7xx_HAL_Driver/Src/stm32h7xx_hal_dma_ex.c **** 
 140:Drivers/STM32H7xx_HAL_Driver/Src/stm32h7xx_hal_dma_ex.c ****     if(HAL_DMA_STATE_READY == hdma->State)
 141:Drivers/STM32H7xx_HAL_Driver/Src/stm32h7xx_hal_dma_ex.c ****     {
 142:Drivers/STM32H7xx_HAL_Driver/Src/stm32h7xx_hal_dma_ex.c ****       /* Change DMA peripheral state */
 143:Drivers/STM32H7xx_HAL_Driver/Src/stm32h7xx_hal_dma_ex.c ****       hdma->State = HAL_DMA_STATE_BUSY;
 144:Drivers/STM32H7xx_HAL_Driver/Src/stm32h7xx_hal_dma_ex.c **** 
ARM GAS  /tmp/ccnuvyK9.s 			page 4


 145:Drivers/STM32H7xx_HAL_Driver/Src/stm32h7xx_hal_dma_ex.c ****       /* Initialize the error code */
 146:Drivers/STM32H7xx_HAL_Driver/Src/stm32h7xx_hal_dma_ex.c ****       hdma->ErrorCode = HAL_DMA_ERROR_NONE;
 147:Drivers/STM32H7xx_HAL_Driver/Src/stm32h7xx_hal_dma_ex.c **** 
 148:Drivers/STM32H7xx_HAL_Driver/Src/stm32h7xx_hal_dma_ex.c ****       if(IS_DMA_STREAM_INSTANCE(hdma->Instance) != 0U) /* DMA1 or DMA2 instance */
 149:Drivers/STM32H7xx_HAL_Driver/Src/stm32h7xx_hal_dma_ex.c ****       {
 150:Drivers/STM32H7xx_HAL_Driver/Src/stm32h7xx_hal_dma_ex.c ****         /* Enable the Double buffer mode */
 151:Drivers/STM32H7xx_HAL_Driver/Src/stm32h7xx_hal_dma_ex.c ****         ((DMA_Stream_TypeDef   *)hdma->Instance)->CR |= DMA_SxCR_DBM;
 152:Drivers/STM32H7xx_HAL_Driver/Src/stm32h7xx_hal_dma_ex.c **** 
 153:Drivers/STM32H7xx_HAL_Driver/Src/stm32h7xx_hal_dma_ex.c ****         /* Configure DMA Stream destination address */
 154:Drivers/STM32H7xx_HAL_Driver/Src/stm32h7xx_hal_dma_ex.c ****         ((DMA_Stream_TypeDef   *)hdma->Instance)->M1AR = SecondMemAddress;
 155:Drivers/STM32H7xx_HAL_Driver/Src/stm32h7xx_hal_dma_ex.c **** 
 156:Drivers/STM32H7xx_HAL_Driver/Src/stm32h7xx_hal_dma_ex.c ****         /* Calculate the interrupt clear flag register (IFCR) base address  */
 157:Drivers/STM32H7xx_HAL_Driver/Src/stm32h7xx_hal_dma_ex.c ****         ifcRegister_Base = (uint32_t *)((uint32_t)(hdma->StreamBaseAddress + 8U));
 158:Drivers/STM32H7xx_HAL_Driver/Src/stm32h7xx_hal_dma_ex.c **** 
 159:Drivers/STM32H7xx_HAL_Driver/Src/stm32h7xx_hal_dma_ex.c ****         /* Clear all flags */
 160:Drivers/STM32H7xx_HAL_Driver/Src/stm32h7xx_hal_dma_ex.c ****         *ifcRegister_Base = 0x3FUL << (hdma->StreamIndex & 0x1FU);
 161:Drivers/STM32H7xx_HAL_Driver/Src/stm32h7xx_hal_dma_ex.c ****       }
 162:Drivers/STM32H7xx_HAL_Driver/Src/stm32h7xx_hal_dma_ex.c ****       else /* BDMA instance(s) */
 163:Drivers/STM32H7xx_HAL_Driver/Src/stm32h7xx_hal_dma_ex.c ****       {
 164:Drivers/STM32H7xx_HAL_Driver/Src/stm32h7xx_hal_dma_ex.c ****         /* Enable the Double buffer mode */
 165:Drivers/STM32H7xx_HAL_Driver/Src/stm32h7xx_hal_dma_ex.c ****         ((BDMA_Channel_TypeDef   *)hdma->Instance)->CCR |= (BDMA_CCR_DBM | BDMA_CCR_CIRC);
 166:Drivers/STM32H7xx_HAL_Driver/Src/stm32h7xx_hal_dma_ex.c **** 
 167:Drivers/STM32H7xx_HAL_Driver/Src/stm32h7xx_hal_dma_ex.c ****         /* Configure DMA Stream destination address */
 168:Drivers/STM32H7xx_HAL_Driver/Src/stm32h7xx_hal_dma_ex.c ****         ((BDMA_Channel_TypeDef   *)hdma->Instance)->CM1AR = SecondMemAddress;
 169:Drivers/STM32H7xx_HAL_Driver/Src/stm32h7xx_hal_dma_ex.c **** 
 170:Drivers/STM32H7xx_HAL_Driver/Src/stm32h7xx_hal_dma_ex.c ****         /* Calculate the interrupt clear flag register (IFCR) base address  */
 171:Drivers/STM32H7xx_HAL_Driver/Src/stm32h7xx_hal_dma_ex.c ****         ifcRegister_Base = (uint32_t *)((uint32_t)(hdma->StreamBaseAddress + 4U));
 172:Drivers/STM32H7xx_HAL_Driver/Src/stm32h7xx_hal_dma_ex.c **** 
 173:Drivers/STM32H7xx_HAL_Driver/Src/stm32h7xx_hal_dma_ex.c ****         /* Clear all flags */
 174:Drivers/STM32H7xx_HAL_Driver/Src/stm32h7xx_hal_dma_ex.c ****         *ifcRegister_Base = (BDMA_ISR_GIF0) << (hdma->StreamIndex & 0x1FU);
 175:Drivers/STM32H7xx_HAL_Driver/Src/stm32h7xx_hal_dma_ex.c ****       }
 176:Drivers/STM32H7xx_HAL_Driver/Src/stm32h7xx_hal_dma_ex.c **** 
 177:Drivers/STM32H7xx_HAL_Driver/Src/stm32h7xx_hal_dma_ex.c ****       if(IS_DMA_DMAMUX_ALL_INSTANCE(hdma->Instance) != 0U) /* No DMAMUX available for BDMA1 */
 178:Drivers/STM32H7xx_HAL_Driver/Src/stm32h7xx_hal_dma_ex.c ****       {
 179:Drivers/STM32H7xx_HAL_Driver/Src/stm32h7xx_hal_dma_ex.c ****         /* Configure the source, destination address and the data length */
 180:Drivers/STM32H7xx_HAL_Driver/Src/stm32h7xx_hal_dma_ex.c ****         DMA_MultiBufferSetConfig(hdma, SrcAddress, DstAddress, DataLength);
 181:Drivers/STM32H7xx_HAL_Driver/Src/stm32h7xx_hal_dma_ex.c **** 
 182:Drivers/STM32H7xx_HAL_Driver/Src/stm32h7xx_hal_dma_ex.c ****         /* Clear the DMAMUX synchro overrun flag */
 183:Drivers/STM32H7xx_HAL_Driver/Src/stm32h7xx_hal_dma_ex.c ****         hdma->DMAmuxChannelStatus->CFR = hdma->DMAmuxChannelStatusMask;
 184:Drivers/STM32H7xx_HAL_Driver/Src/stm32h7xx_hal_dma_ex.c **** 
 185:Drivers/STM32H7xx_HAL_Driver/Src/stm32h7xx_hal_dma_ex.c ****         if(hdma->DMAmuxRequestGen != 0U)
 186:Drivers/STM32H7xx_HAL_Driver/Src/stm32h7xx_hal_dma_ex.c ****         {
 187:Drivers/STM32H7xx_HAL_Driver/Src/stm32h7xx_hal_dma_ex.c ****           /* Clear the DMAMUX request generator overrun flag */
 188:Drivers/STM32H7xx_HAL_Driver/Src/stm32h7xx_hal_dma_ex.c ****           hdma->DMAmuxRequestGenStatus->RGCFR = hdma->DMAmuxRequestGenStatusMask;
 189:Drivers/STM32H7xx_HAL_Driver/Src/stm32h7xx_hal_dma_ex.c ****         }
 190:Drivers/STM32H7xx_HAL_Driver/Src/stm32h7xx_hal_dma_ex.c ****       }
 191:Drivers/STM32H7xx_HAL_Driver/Src/stm32h7xx_hal_dma_ex.c **** 
 192:Drivers/STM32H7xx_HAL_Driver/Src/stm32h7xx_hal_dma_ex.c ****       /* Enable the peripheral */
 193:Drivers/STM32H7xx_HAL_Driver/Src/stm32h7xx_hal_dma_ex.c ****       __HAL_DMA_ENABLE(hdma);
 194:Drivers/STM32H7xx_HAL_Driver/Src/stm32h7xx_hal_dma_ex.c ****     }
 195:Drivers/STM32H7xx_HAL_Driver/Src/stm32h7xx_hal_dma_ex.c ****     else
 196:Drivers/STM32H7xx_HAL_Driver/Src/stm32h7xx_hal_dma_ex.c ****     {
 197:Drivers/STM32H7xx_HAL_Driver/Src/stm32h7xx_hal_dma_ex.c ****       /* Set the error code to busy */
 198:Drivers/STM32H7xx_HAL_Driver/Src/stm32h7xx_hal_dma_ex.c ****       hdma->ErrorCode = HAL_DMA_ERROR_BUSY;
 199:Drivers/STM32H7xx_HAL_Driver/Src/stm32h7xx_hal_dma_ex.c **** 
 200:Drivers/STM32H7xx_HAL_Driver/Src/stm32h7xx_hal_dma_ex.c ****       /* Return error status */
 201:Drivers/STM32H7xx_HAL_Driver/Src/stm32h7xx_hal_dma_ex.c ****       status = HAL_ERROR;
ARM GAS  /tmp/ccnuvyK9.s 			page 5


 202:Drivers/STM32H7xx_HAL_Driver/Src/stm32h7xx_hal_dma_ex.c ****     }
 203:Drivers/STM32H7xx_HAL_Driver/Src/stm32h7xx_hal_dma_ex.c ****   }
 204:Drivers/STM32H7xx_HAL_Driver/Src/stm32h7xx_hal_dma_ex.c ****   return status;
 205:Drivers/STM32H7xx_HAL_Driver/Src/stm32h7xx_hal_dma_ex.c **** }
 206:Drivers/STM32H7xx_HAL_Driver/Src/stm32h7xx_hal_dma_ex.c **** 
 207:Drivers/STM32H7xx_HAL_Driver/Src/stm32h7xx_hal_dma_ex.c **** /**
 208:Drivers/STM32H7xx_HAL_Driver/Src/stm32h7xx_hal_dma_ex.c ****   * @brief  Starts the multi_buffer DMA Transfer with interrupt enabled.
 209:Drivers/STM32H7xx_HAL_Driver/Src/stm32h7xx_hal_dma_ex.c ****   * @param  hdma:       pointer to a DMA_HandleTypeDef structure that contains
 210:Drivers/STM32H7xx_HAL_Driver/Src/stm32h7xx_hal_dma_ex.c ****   *                     the configuration information for the specified DMA Stream.
 211:Drivers/STM32H7xx_HAL_Driver/Src/stm32h7xx_hal_dma_ex.c ****   * @param  SrcAddress: The source memory Buffer address
 212:Drivers/STM32H7xx_HAL_Driver/Src/stm32h7xx_hal_dma_ex.c ****   * @param  DstAddress: The destination memory Buffer address
 213:Drivers/STM32H7xx_HAL_Driver/Src/stm32h7xx_hal_dma_ex.c ****   * @param  SecondMemAddress: The second memory Buffer address in case of multi buffer Transfer
 214:Drivers/STM32H7xx_HAL_Driver/Src/stm32h7xx_hal_dma_ex.c ****   * @param  DataLength: The length of data to be transferred from source to destination
 215:Drivers/STM32H7xx_HAL_Driver/Src/stm32h7xx_hal_dma_ex.c ****   * @retval HAL status
 216:Drivers/STM32H7xx_HAL_Driver/Src/stm32h7xx_hal_dma_ex.c ****   */
 217:Drivers/STM32H7xx_HAL_Driver/Src/stm32h7xx_hal_dma_ex.c **** HAL_StatusTypeDef HAL_DMAEx_MultiBufferStart_IT(DMA_HandleTypeDef *hdma, uint32_t SrcAddress, uint3
 218:Drivers/STM32H7xx_HAL_Driver/Src/stm32h7xx_hal_dma_ex.c **** {
 219:Drivers/STM32H7xx_HAL_Driver/Src/stm32h7xx_hal_dma_ex.c ****   HAL_StatusTypeDef status = HAL_OK;
 220:Drivers/STM32H7xx_HAL_Driver/Src/stm32h7xx_hal_dma_ex.c ****   __IO uint32_t *ifcRegister_Base; /* DMA Stream Interrupt Clear register */
 221:Drivers/STM32H7xx_HAL_Driver/Src/stm32h7xx_hal_dma_ex.c **** 
 222:Drivers/STM32H7xx_HAL_Driver/Src/stm32h7xx_hal_dma_ex.c ****   /* Check the parameters */
 223:Drivers/STM32H7xx_HAL_Driver/Src/stm32h7xx_hal_dma_ex.c ****   assert_param(IS_DMA_BUFFER_SIZE(DataLength));
 224:Drivers/STM32H7xx_HAL_Driver/Src/stm32h7xx_hal_dma_ex.c ****   assert_param(IS_DMA_ALL_INSTANCE(hdma->Instance));
 225:Drivers/STM32H7xx_HAL_Driver/Src/stm32h7xx_hal_dma_ex.c **** 
 226:Drivers/STM32H7xx_HAL_Driver/Src/stm32h7xx_hal_dma_ex.c ****   /* Memory-to-memory transfer not supported in double buffering mode */
 227:Drivers/STM32H7xx_HAL_Driver/Src/stm32h7xx_hal_dma_ex.c ****   if(hdma->Init.Direction == DMA_MEMORY_TO_MEMORY)
 228:Drivers/STM32H7xx_HAL_Driver/Src/stm32h7xx_hal_dma_ex.c ****   {
 229:Drivers/STM32H7xx_HAL_Driver/Src/stm32h7xx_hal_dma_ex.c ****     hdma->ErrorCode = HAL_DMA_ERROR_NOT_SUPPORTED;
 230:Drivers/STM32H7xx_HAL_Driver/Src/stm32h7xx_hal_dma_ex.c ****     return HAL_ERROR;
 231:Drivers/STM32H7xx_HAL_Driver/Src/stm32h7xx_hal_dma_ex.c ****   }
 232:Drivers/STM32H7xx_HAL_Driver/Src/stm32h7xx_hal_dma_ex.c **** 
 233:Drivers/STM32H7xx_HAL_Driver/Src/stm32h7xx_hal_dma_ex.c ****   /* Process locked */
 234:Drivers/STM32H7xx_HAL_Driver/Src/stm32h7xx_hal_dma_ex.c ****   __HAL_LOCK(hdma);
 235:Drivers/STM32H7xx_HAL_Driver/Src/stm32h7xx_hal_dma_ex.c **** 
 236:Drivers/STM32H7xx_HAL_Driver/Src/stm32h7xx_hal_dma_ex.c ****   if(HAL_DMA_STATE_READY == hdma->State)
 237:Drivers/STM32H7xx_HAL_Driver/Src/stm32h7xx_hal_dma_ex.c ****   {
 238:Drivers/STM32H7xx_HAL_Driver/Src/stm32h7xx_hal_dma_ex.c ****     /* Change DMA peripheral state */
 239:Drivers/STM32H7xx_HAL_Driver/Src/stm32h7xx_hal_dma_ex.c ****     hdma->State = HAL_DMA_STATE_BUSY;
 240:Drivers/STM32H7xx_HAL_Driver/Src/stm32h7xx_hal_dma_ex.c **** 
 241:Drivers/STM32H7xx_HAL_Driver/Src/stm32h7xx_hal_dma_ex.c ****     /* Initialize the error code */
 242:Drivers/STM32H7xx_HAL_Driver/Src/stm32h7xx_hal_dma_ex.c ****     hdma->ErrorCode = HAL_DMA_ERROR_NONE;
 243:Drivers/STM32H7xx_HAL_Driver/Src/stm32h7xx_hal_dma_ex.c **** 
 244:Drivers/STM32H7xx_HAL_Driver/Src/stm32h7xx_hal_dma_ex.c ****     if(IS_DMA_STREAM_INSTANCE(hdma->Instance) != 0U) /* DMA1 or DMA2 instance */
 245:Drivers/STM32H7xx_HAL_Driver/Src/stm32h7xx_hal_dma_ex.c ****     {
 246:Drivers/STM32H7xx_HAL_Driver/Src/stm32h7xx_hal_dma_ex.c ****       /* Enable the Double buffer mode */
 247:Drivers/STM32H7xx_HAL_Driver/Src/stm32h7xx_hal_dma_ex.c ****       ((DMA_Stream_TypeDef   *)hdma->Instance)->CR |= DMA_SxCR_DBM;
 248:Drivers/STM32H7xx_HAL_Driver/Src/stm32h7xx_hal_dma_ex.c **** 
 249:Drivers/STM32H7xx_HAL_Driver/Src/stm32h7xx_hal_dma_ex.c ****       /* Configure DMA Stream destination address */
 250:Drivers/STM32H7xx_HAL_Driver/Src/stm32h7xx_hal_dma_ex.c ****       ((DMA_Stream_TypeDef   *)hdma->Instance)->M1AR = SecondMemAddress;
 251:Drivers/STM32H7xx_HAL_Driver/Src/stm32h7xx_hal_dma_ex.c **** 
 252:Drivers/STM32H7xx_HAL_Driver/Src/stm32h7xx_hal_dma_ex.c ****       /* Calculate the interrupt clear flag register (IFCR) base address  */
 253:Drivers/STM32H7xx_HAL_Driver/Src/stm32h7xx_hal_dma_ex.c ****       ifcRegister_Base = (uint32_t *)((uint32_t)(hdma->StreamBaseAddress + 8U));
 254:Drivers/STM32H7xx_HAL_Driver/Src/stm32h7xx_hal_dma_ex.c **** 
 255:Drivers/STM32H7xx_HAL_Driver/Src/stm32h7xx_hal_dma_ex.c ****       /* Clear all flags */
 256:Drivers/STM32H7xx_HAL_Driver/Src/stm32h7xx_hal_dma_ex.c ****       *ifcRegister_Base = 0x3FUL << (hdma->StreamIndex & 0x1FU);
 257:Drivers/STM32H7xx_HAL_Driver/Src/stm32h7xx_hal_dma_ex.c ****     }
 258:Drivers/STM32H7xx_HAL_Driver/Src/stm32h7xx_hal_dma_ex.c ****     else /* BDMA instance(s) */
ARM GAS  /tmp/ccnuvyK9.s 			page 6


 259:Drivers/STM32H7xx_HAL_Driver/Src/stm32h7xx_hal_dma_ex.c ****     {
 260:Drivers/STM32H7xx_HAL_Driver/Src/stm32h7xx_hal_dma_ex.c ****       /* Enable the Double buffer mode */
 261:Drivers/STM32H7xx_HAL_Driver/Src/stm32h7xx_hal_dma_ex.c ****       ((BDMA_Channel_TypeDef   *)hdma->Instance)->CCR |= (BDMA_CCR_DBM | BDMA_CCR_CIRC);
 262:Drivers/STM32H7xx_HAL_Driver/Src/stm32h7xx_hal_dma_ex.c **** 
 263:Drivers/STM32H7xx_HAL_Driver/Src/stm32h7xx_hal_dma_ex.c ****       /* Configure DMA Stream destination address */
 264:Drivers/STM32H7xx_HAL_Driver/Src/stm32h7xx_hal_dma_ex.c ****       ((BDMA_Channel_TypeDef   *)hdma->Instance)->CM1AR = SecondMemAddress;
 265:Drivers/STM32H7xx_HAL_Driver/Src/stm32h7xx_hal_dma_ex.c **** 
 266:Drivers/STM32H7xx_HAL_Driver/Src/stm32h7xx_hal_dma_ex.c ****       /* Calculate the interrupt clear flag register (IFCR) base address  */
 267:Drivers/STM32H7xx_HAL_Driver/Src/stm32h7xx_hal_dma_ex.c ****       ifcRegister_Base = (uint32_t *)((uint32_t)(hdma->StreamBaseAddress + 4U));
 268:Drivers/STM32H7xx_HAL_Driver/Src/stm32h7xx_hal_dma_ex.c **** 
 269:Drivers/STM32H7xx_HAL_Driver/Src/stm32h7xx_hal_dma_ex.c ****       /* Clear all flags */
 270:Drivers/STM32H7xx_HAL_Driver/Src/stm32h7xx_hal_dma_ex.c ****       *ifcRegister_Base = (BDMA_ISR_GIF0) << (hdma->StreamIndex & 0x1FU);
 271:Drivers/STM32H7xx_HAL_Driver/Src/stm32h7xx_hal_dma_ex.c ****     }
 272:Drivers/STM32H7xx_HAL_Driver/Src/stm32h7xx_hal_dma_ex.c **** 
 273:Drivers/STM32H7xx_HAL_Driver/Src/stm32h7xx_hal_dma_ex.c ****     /* Configure the source, destination address and the data length */
 274:Drivers/STM32H7xx_HAL_Driver/Src/stm32h7xx_hal_dma_ex.c ****     DMA_MultiBufferSetConfig(hdma, SrcAddress, DstAddress, DataLength);
 275:Drivers/STM32H7xx_HAL_Driver/Src/stm32h7xx_hal_dma_ex.c **** 
 276:Drivers/STM32H7xx_HAL_Driver/Src/stm32h7xx_hal_dma_ex.c ****     if(IS_DMA_DMAMUX_ALL_INSTANCE(hdma->Instance) != 0U) /* No DMAMUX available for BDMA1 */
 277:Drivers/STM32H7xx_HAL_Driver/Src/stm32h7xx_hal_dma_ex.c ****     {
 278:Drivers/STM32H7xx_HAL_Driver/Src/stm32h7xx_hal_dma_ex.c ****       /* Clear the DMAMUX synchro overrun flag */
 279:Drivers/STM32H7xx_HAL_Driver/Src/stm32h7xx_hal_dma_ex.c ****       hdma->DMAmuxChannelStatus->CFR = hdma->DMAmuxChannelStatusMask;
 280:Drivers/STM32H7xx_HAL_Driver/Src/stm32h7xx_hal_dma_ex.c **** 
 281:Drivers/STM32H7xx_HAL_Driver/Src/stm32h7xx_hal_dma_ex.c ****       if(hdma->DMAmuxRequestGen != 0U)
 282:Drivers/STM32H7xx_HAL_Driver/Src/stm32h7xx_hal_dma_ex.c ****       {
 283:Drivers/STM32H7xx_HAL_Driver/Src/stm32h7xx_hal_dma_ex.c ****         /* Clear the DMAMUX request generator overrun flag */
 284:Drivers/STM32H7xx_HAL_Driver/Src/stm32h7xx_hal_dma_ex.c ****         hdma->DMAmuxRequestGenStatus->RGCFR = hdma->DMAmuxRequestGenStatusMask;
 285:Drivers/STM32H7xx_HAL_Driver/Src/stm32h7xx_hal_dma_ex.c ****       }
 286:Drivers/STM32H7xx_HAL_Driver/Src/stm32h7xx_hal_dma_ex.c ****     }
 287:Drivers/STM32H7xx_HAL_Driver/Src/stm32h7xx_hal_dma_ex.c **** 
 288:Drivers/STM32H7xx_HAL_Driver/Src/stm32h7xx_hal_dma_ex.c ****     if(IS_DMA_STREAM_INSTANCE(hdma->Instance) != 0U) /* DMA1 or DMA2 instance */
 289:Drivers/STM32H7xx_HAL_Driver/Src/stm32h7xx_hal_dma_ex.c ****     {
 290:Drivers/STM32H7xx_HAL_Driver/Src/stm32h7xx_hal_dma_ex.c ****       /* Enable Common interrupts*/
 291:Drivers/STM32H7xx_HAL_Driver/Src/stm32h7xx_hal_dma_ex.c ****       MODIFY_REG(((DMA_Stream_TypeDef   *)hdma->Instance)->CR, (DMA_IT_TC | DMA_IT_TE | DMA_IT_DME 
 292:Drivers/STM32H7xx_HAL_Driver/Src/stm32h7xx_hal_dma_ex.c ****       ((DMA_Stream_TypeDef   *)hdma->Instance)->FCR |= DMA_IT_FE;
 293:Drivers/STM32H7xx_HAL_Driver/Src/stm32h7xx_hal_dma_ex.c **** 
 294:Drivers/STM32H7xx_HAL_Driver/Src/stm32h7xx_hal_dma_ex.c ****       if((hdma->XferHalfCpltCallback != NULL) || (hdma->XferM1HalfCpltCallback != NULL))
 295:Drivers/STM32H7xx_HAL_Driver/Src/stm32h7xx_hal_dma_ex.c ****       {
 296:Drivers/STM32H7xx_HAL_Driver/Src/stm32h7xx_hal_dma_ex.c ****         /*Enable Half Transfer IT if corresponding Callback is set*/
 297:Drivers/STM32H7xx_HAL_Driver/Src/stm32h7xx_hal_dma_ex.c ****         ((DMA_Stream_TypeDef   *)hdma->Instance)->CR  |= DMA_IT_HT;
 298:Drivers/STM32H7xx_HAL_Driver/Src/stm32h7xx_hal_dma_ex.c ****       }
 299:Drivers/STM32H7xx_HAL_Driver/Src/stm32h7xx_hal_dma_ex.c ****     }
 300:Drivers/STM32H7xx_HAL_Driver/Src/stm32h7xx_hal_dma_ex.c ****     else /* BDMA instance(s) */
 301:Drivers/STM32H7xx_HAL_Driver/Src/stm32h7xx_hal_dma_ex.c ****     {
 302:Drivers/STM32H7xx_HAL_Driver/Src/stm32h7xx_hal_dma_ex.c ****       /* Enable Common interrupts*/
 303:Drivers/STM32H7xx_HAL_Driver/Src/stm32h7xx_hal_dma_ex.c ****       MODIFY_REG(((BDMA_Channel_TypeDef   *)hdma->Instance)->CCR, (BDMA_CCR_TCIE | BDMA_CCR_HTIE | 
 304:Drivers/STM32H7xx_HAL_Driver/Src/stm32h7xx_hal_dma_ex.c **** 
 305:Drivers/STM32H7xx_HAL_Driver/Src/stm32h7xx_hal_dma_ex.c ****       if((hdma->XferHalfCpltCallback != NULL) || (hdma->XferM1HalfCpltCallback != NULL))
 306:Drivers/STM32H7xx_HAL_Driver/Src/stm32h7xx_hal_dma_ex.c ****       {
 307:Drivers/STM32H7xx_HAL_Driver/Src/stm32h7xx_hal_dma_ex.c ****         /*Enable Half Transfer IT if corresponding Callback is set*/
 308:Drivers/STM32H7xx_HAL_Driver/Src/stm32h7xx_hal_dma_ex.c ****         ((BDMA_Channel_TypeDef   *)hdma->Instance)->CCR  |= BDMA_CCR_HTIE;
 309:Drivers/STM32H7xx_HAL_Driver/Src/stm32h7xx_hal_dma_ex.c ****       }
 310:Drivers/STM32H7xx_HAL_Driver/Src/stm32h7xx_hal_dma_ex.c ****     }
 311:Drivers/STM32H7xx_HAL_Driver/Src/stm32h7xx_hal_dma_ex.c **** 
 312:Drivers/STM32H7xx_HAL_Driver/Src/stm32h7xx_hal_dma_ex.c ****     if(IS_DMA_DMAMUX_ALL_INSTANCE(hdma->Instance) != 0U) /* No DMAMUX available for BDMA1 */
 313:Drivers/STM32H7xx_HAL_Driver/Src/stm32h7xx_hal_dma_ex.c ****     {
 314:Drivers/STM32H7xx_HAL_Driver/Src/stm32h7xx_hal_dma_ex.c ****       /* Check if DMAMUX Synchronization is enabled*/
 315:Drivers/STM32H7xx_HAL_Driver/Src/stm32h7xx_hal_dma_ex.c ****       if((hdma->DMAmuxChannel->CCR & DMAMUX_CxCR_SE) != 0U)
ARM GAS  /tmp/ccnuvyK9.s 			page 7


 316:Drivers/STM32H7xx_HAL_Driver/Src/stm32h7xx_hal_dma_ex.c ****       {
 317:Drivers/STM32H7xx_HAL_Driver/Src/stm32h7xx_hal_dma_ex.c ****         /* Enable DMAMUX sync overrun IT*/
 318:Drivers/STM32H7xx_HAL_Driver/Src/stm32h7xx_hal_dma_ex.c ****         hdma->DMAmuxChannel->CCR |= DMAMUX_CxCR_SOIE;
 319:Drivers/STM32H7xx_HAL_Driver/Src/stm32h7xx_hal_dma_ex.c ****       }
 320:Drivers/STM32H7xx_HAL_Driver/Src/stm32h7xx_hal_dma_ex.c **** 
 321:Drivers/STM32H7xx_HAL_Driver/Src/stm32h7xx_hal_dma_ex.c ****       if(hdma->DMAmuxRequestGen != 0U)
 322:Drivers/STM32H7xx_HAL_Driver/Src/stm32h7xx_hal_dma_ex.c ****       {
 323:Drivers/STM32H7xx_HAL_Driver/Src/stm32h7xx_hal_dma_ex.c ****         /* if using DMAMUX request generator, enable the DMAMUX request generator overrun IT*/
 324:Drivers/STM32H7xx_HAL_Driver/Src/stm32h7xx_hal_dma_ex.c ****         /* enable the request gen overrun IT*/
 325:Drivers/STM32H7xx_HAL_Driver/Src/stm32h7xx_hal_dma_ex.c ****         hdma->DMAmuxRequestGen->RGCR |= DMAMUX_RGxCR_OIE;
 326:Drivers/STM32H7xx_HAL_Driver/Src/stm32h7xx_hal_dma_ex.c ****       }
 327:Drivers/STM32H7xx_HAL_Driver/Src/stm32h7xx_hal_dma_ex.c ****     }
 328:Drivers/STM32H7xx_HAL_Driver/Src/stm32h7xx_hal_dma_ex.c **** 
 329:Drivers/STM32H7xx_HAL_Driver/Src/stm32h7xx_hal_dma_ex.c ****     /* Enable the peripheral */
 330:Drivers/STM32H7xx_HAL_Driver/Src/stm32h7xx_hal_dma_ex.c ****     __HAL_DMA_ENABLE(hdma);
 331:Drivers/STM32H7xx_HAL_Driver/Src/stm32h7xx_hal_dma_ex.c ****   }
 332:Drivers/STM32H7xx_HAL_Driver/Src/stm32h7xx_hal_dma_ex.c ****   else
 333:Drivers/STM32H7xx_HAL_Driver/Src/stm32h7xx_hal_dma_ex.c ****   {
 334:Drivers/STM32H7xx_HAL_Driver/Src/stm32h7xx_hal_dma_ex.c ****     /* Set the error code to busy */
 335:Drivers/STM32H7xx_HAL_Driver/Src/stm32h7xx_hal_dma_ex.c ****     hdma->ErrorCode = HAL_DMA_ERROR_BUSY;
 336:Drivers/STM32H7xx_HAL_Driver/Src/stm32h7xx_hal_dma_ex.c **** 
 337:Drivers/STM32H7xx_HAL_Driver/Src/stm32h7xx_hal_dma_ex.c ****     /* Return error status */
 338:Drivers/STM32H7xx_HAL_Driver/Src/stm32h7xx_hal_dma_ex.c ****     status = HAL_ERROR;
 339:Drivers/STM32H7xx_HAL_Driver/Src/stm32h7xx_hal_dma_ex.c ****   }
 340:Drivers/STM32H7xx_HAL_Driver/Src/stm32h7xx_hal_dma_ex.c ****   return status;
 341:Drivers/STM32H7xx_HAL_Driver/Src/stm32h7xx_hal_dma_ex.c **** }
 342:Drivers/STM32H7xx_HAL_Driver/Src/stm32h7xx_hal_dma_ex.c **** 
 343:Drivers/STM32H7xx_HAL_Driver/Src/stm32h7xx_hal_dma_ex.c **** /**
 344:Drivers/STM32H7xx_HAL_Driver/Src/stm32h7xx_hal_dma_ex.c ****   * @brief  Change the memory0 or memory1 address on the fly.
 345:Drivers/STM32H7xx_HAL_Driver/Src/stm32h7xx_hal_dma_ex.c ****   * @param  hdma:       pointer to a DMA_HandleTypeDef structure that contains
 346:Drivers/STM32H7xx_HAL_Driver/Src/stm32h7xx_hal_dma_ex.c ****   *                     the configuration information for the specified DMA Stream.
 347:Drivers/STM32H7xx_HAL_Driver/Src/stm32h7xx_hal_dma_ex.c ****   * @param  Address:    The new address
 348:Drivers/STM32H7xx_HAL_Driver/Src/stm32h7xx_hal_dma_ex.c ****   * @param  memory:     the memory to be changed, This parameter can be one of
 349:Drivers/STM32H7xx_HAL_Driver/Src/stm32h7xx_hal_dma_ex.c ****   *                     the following values:
 350:Drivers/STM32H7xx_HAL_Driver/Src/stm32h7xx_hal_dma_ex.c ****   *                      MEMORY0 /
 351:Drivers/STM32H7xx_HAL_Driver/Src/stm32h7xx_hal_dma_ex.c ****   *                      MEMORY1
 352:Drivers/STM32H7xx_HAL_Driver/Src/stm32h7xx_hal_dma_ex.c ****   * @note   The MEMORY0 address can be changed only when the current transfer use
 353:Drivers/STM32H7xx_HAL_Driver/Src/stm32h7xx_hal_dma_ex.c ****   *         MEMORY1 and the MEMORY1 address can be changed only when the current
 354:Drivers/STM32H7xx_HAL_Driver/Src/stm32h7xx_hal_dma_ex.c ****   *         transfer use MEMORY0.
 355:Drivers/STM32H7xx_HAL_Driver/Src/stm32h7xx_hal_dma_ex.c ****   * @retval HAL status
 356:Drivers/STM32H7xx_HAL_Driver/Src/stm32h7xx_hal_dma_ex.c ****   */
 357:Drivers/STM32H7xx_HAL_Driver/Src/stm32h7xx_hal_dma_ex.c **** HAL_StatusTypeDef HAL_DMAEx_ChangeMemory(DMA_HandleTypeDef *hdma, uint32_t Address, HAL_DMA_MemoryT
 358:Drivers/STM32H7xx_HAL_Driver/Src/stm32h7xx_hal_dma_ex.c **** {
 359:Drivers/STM32H7xx_HAL_Driver/Src/stm32h7xx_hal_dma_ex.c ****   if(IS_DMA_STREAM_INSTANCE(hdma->Instance) != 0U) /* DMA1 or DMA2 instance */
 360:Drivers/STM32H7xx_HAL_Driver/Src/stm32h7xx_hal_dma_ex.c ****   {
 361:Drivers/STM32H7xx_HAL_Driver/Src/stm32h7xx_hal_dma_ex.c ****     if(memory == MEMORY0)
 362:Drivers/STM32H7xx_HAL_Driver/Src/stm32h7xx_hal_dma_ex.c ****     {
 363:Drivers/STM32H7xx_HAL_Driver/Src/stm32h7xx_hal_dma_ex.c ****       /* change the memory0 address */
 364:Drivers/STM32H7xx_HAL_Driver/Src/stm32h7xx_hal_dma_ex.c ****       ((DMA_Stream_TypeDef   *)hdma->Instance)->M0AR = Address;
 365:Drivers/STM32H7xx_HAL_Driver/Src/stm32h7xx_hal_dma_ex.c ****     }
 366:Drivers/STM32H7xx_HAL_Driver/Src/stm32h7xx_hal_dma_ex.c ****     else
 367:Drivers/STM32H7xx_HAL_Driver/Src/stm32h7xx_hal_dma_ex.c ****     {
 368:Drivers/STM32H7xx_HAL_Driver/Src/stm32h7xx_hal_dma_ex.c ****       /* change the memory1 address */
 369:Drivers/STM32H7xx_HAL_Driver/Src/stm32h7xx_hal_dma_ex.c ****       ((DMA_Stream_TypeDef   *)hdma->Instance)->M1AR = Address;
 370:Drivers/STM32H7xx_HAL_Driver/Src/stm32h7xx_hal_dma_ex.c ****     }
 371:Drivers/STM32H7xx_HAL_Driver/Src/stm32h7xx_hal_dma_ex.c ****   }
 372:Drivers/STM32H7xx_HAL_Driver/Src/stm32h7xx_hal_dma_ex.c ****   else /* BDMA instance(s) */
ARM GAS  /tmp/ccnuvyK9.s 			page 8


 373:Drivers/STM32H7xx_HAL_Driver/Src/stm32h7xx_hal_dma_ex.c ****   {
 374:Drivers/STM32H7xx_HAL_Driver/Src/stm32h7xx_hal_dma_ex.c ****     if(memory == MEMORY0)
 375:Drivers/STM32H7xx_HAL_Driver/Src/stm32h7xx_hal_dma_ex.c ****     {
 376:Drivers/STM32H7xx_HAL_Driver/Src/stm32h7xx_hal_dma_ex.c ****       /* change the memory0 address */
 377:Drivers/STM32H7xx_HAL_Driver/Src/stm32h7xx_hal_dma_ex.c ****       ((BDMA_Channel_TypeDef   *)hdma->Instance)->CM0AR = Address;
 378:Drivers/STM32H7xx_HAL_Driver/Src/stm32h7xx_hal_dma_ex.c ****     }
 379:Drivers/STM32H7xx_HAL_Driver/Src/stm32h7xx_hal_dma_ex.c ****     else
 380:Drivers/STM32H7xx_HAL_Driver/Src/stm32h7xx_hal_dma_ex.c ****     {
 381:Drivers/STM32H7xx_HAL_Driver/Src/stm32h7xx_hal_dma_ex.c ****       /* change the memory1 address */
 382:Drivers/STM32H7xx_HAL_Driver/Src/stm32h7xx_hal_dma_ex.c ****       ((BDMA_Channel_TypeDef   *)hdma->Instance)->CM1AR = Address;
 383:Drivers/STM32H7xx_HAL_Driver/Src/stm32h7xx_hal_dma_ex.c ****     }
 384:Drivers/STM32H7xx_HAL_Driver/Src/stm32h7xx_hal_dma_ex.c ****   }
 385:Drivers/STM32H7xx_HAL_Driver/Src/stm32h7xx_hal_dma_ex.c **** 
 386:Drivers/STM32H7xx_HAL_Driver/Src/stm32h7xx_hal_dma_ex.c ****   return HAL_OK;
 387:Drivers/STM32H7xx_HAL_Driver/Src/stm32h7xx_hal_dma_ex.c **** }
 388:Drivers/STM32H7xx_HAL_Driver/Src/stm32h7xx_hal_dma_ex.c **** 
 389:Drivers/STM32H7xx_HAL_Driver/Src/stm32h7xx_hal_dma_ex.c **** /**
 390:Drivers/STM32H7xx_HAL_Driver/Src/stm32h7xx_hal_dma_ex.c ****   * @brief  Configure the DMAMUX synchronization parameters for a given DMA stream (instance).
 391:Drivers/STM32H7xx_HAL_Driver/Src/stm32h7xx_hal_dma_ex.c ****   * @param  hdma:       pointer to a DMA_HandleTypeDef structure that contains
 392:Drivers/STM32H7xx_HAL_Driver/Src/stm32h7xx_hal_dma_ex.c ****   *                     the configuration information for the specified DMA Stream.
 393:Drivers/STM32H7xx_HAL_Driver/Src/stm32h7xx_hal_dma_ex.c ****   * @param  pSyncConfig : pointer to HAL_DMA_MuxSyncConfigTypeDef : contains the DMAMUX synchroniza
 394:Drivers/STM32H7xx_HAL_Driver/Src/stm32h7xx_hal_dma_ex.c ****   * @retval HAL status
 395:Drivers/STM32H7xx_HAL_Driver/Src/stm32h7xx_hal_dma_ex.c ****   */
 396:Drivers/STM32H7xx_HAL_Driver/Src/stm32h7xx_hal_dma_ex.c **** HAL_StatusTypeDef HAL_DMAEx_ConfigMuxSync(DMA_HandleTypeDef *hdma, HAL_DMA_MuxSyncConfigTypeDef *pS
 397:Drivers/STM32H7xx_HAL_Driver/Src/stm32h7xx_hal_dma_ex.c **** {
 398:Drivers/STM32H7xx_HAL_Driver/Src/stm32h7xx_hal_dma_ex.c ****   uint32_t syncSignalID = 0;
 399:Drivers/STM32H7xx_HAL_Driver/Src/stm32h7xx_hal_dma_ex.c ****   uint32_t syncPolarity = 0;
 400:Drivers/STM32H7xx_HAL_Driver/Src/stm32h7xx_hal_dma_ex.c **** 
 401:Drivers/STM32H7xx_HAL_Driver/Src/stm32h7xx_hal_dma_ex.c ****   /* Check the parameters */
 402:Drivers/STM32H7xx_HAL_Driver/Src/stm32h7xx_hal_dma_ex.c ****   assert_param(IS_DMA_DMAMUX_ALL_INSTANCE(hdma->Instance));
 403:Drivers/STM32H7xx_HAL_Driver/Src/stm32h7xx_hal_dma_ex.c ****   assert_param(IS_DMAMUX_SYNC_STATE(pSyncConfig->SyncEnable));
 404:Drivers/STM32H7xx_HAL_Driver/Src/stm32h7xx_hal_dma_ex.c ****   assert_param(IS_DMAMUX_SYNC_EVENT(pSyncConfig->EventEnable));
 405:Drivers/STM32H7xx_HAL_Driver/Src/stm32h7xx_hal_dma_ex.c ****   assert_param(IS_DMAMUX_SYNC_REQUEST_NUMBER(pSyncConfig->RequestNumber));
 406:Drivers/STM32H7xx_HAL_Driver/Src/stm32h7xx_hal_dma_ex.c **** 
 407:Drivers/STM32H7xx_HAL_Driver/Src/stm32h7xx_hal_dma_ex.c ****   if(pSyncConfig->SyncEnable == ENABLE)
 408:Drivers/STM32H7xx_HAL_Driver/Src/stm32h7xx_hal_dma_ex.c ****   {
 409:Drivers/STM32H7xx_HAL_Driver/Src/stm32h7xx_hal_dma_ex.c ****     assert_param(IS_DMAMUX_SYNC_POLARITY(pSyncConfig->SyncPolarity));
 410:Drivers/STM32H7xx_HAL_Driver/Src/stm32h7xx_hal_dma_ex.c **** 
 411:Drivers/STM32H7xx_HAL_Driver/Src/stm32h7xx_hal_dma_ex.c ****     if(IS_DMA_STREAM_INSTANCE(hdma->Instance) != 0U) /* DMA1 or DMA2 instance */
 412:Drivers/STM32H7xx_HAL_Driver/Src/stm32h7xx_hal_dma_ex.c ****     {
 413:Drivers/STM32H7xx_HAL_Driver/Src/stm32h7xx_hal_dma_ex.c ****       assert_param(IS_DMA_DMAMUX_SYNC_SIGNAL_ID(pSyncConfig->SyncSignalID));
 414:Drivers/STM32H7xx_HAL_Driver/Src/stm32h7xx_hal_dma_ex.c ****     }
 415:Drivers/STM32H7xx_HAL_Driver/Src/stm32h7xx_hal_dma_ex.c ****     else
 416:Drivers/STM32H7xx_HAL_Driver/Src/stm32h7xx_hal_dma_ex.c ****     {
 417:Drivers/STM32H7xx_HAL_Driver/Src/stm32h7xx_hal_dma_ex.c ****       assert_param(IS_BDMA_DMAMUX_SYNC_SIGNAL_ID(pSyncConfig->SyncSignalID));
 418:Drivers/STM32H7xx_HAL_Driver/Src/stm32h7xx_hal_dma_ex.c ****     }
 419:Drivers/STM32H7xx_HAL_Driver/Src/stm32h7xx_hal_dma_ex.c ****     syncSignalID = pSyncConfig->SyncSignalID;
 420:Drivers/STM32H7xx_HAL_Driver/Src/stm32h7xx_hal_dma_ex.c ****     syncPolarity = pSyncConfig->SyncPolarity;
 421:Drivers/STM32H7xx_HAL_Driver/Src/stm32h7xx_hal_dma_ex.c ****   }
 422:Drivers/STM32H7xx_HAL_Driver/Src/stm32h7xx_hal_dma_ex.c **** 
 423:Drivers/STM32H7xx_HAL_Driver/Src/stm32h7xx_hal_dma_ex.c ****   /*Check if the DMA state is ready */
 424:Drivers/STM32H7xx_HAL_Driver/Src/stm32h7xx_hal_dma_ex.c ****   if(hdma->State == HAL_DMA_STATE_READY)
 425:Drivers/STM32H7xx_HAL_Driver/Src/stm32h7xx_hal_dma_ex.c ****   {
 426:Drivers/STM32H7xx_HAL_Driver/Src/stm32h7xx_hal_dma_ex.c ****     /* Process Locked */
 427:Drivers/STM32H7xx_HAL_Driver/Src/stm32h7xx_hal_dma_ex.c ****     __HAL_LOCK(hdma);
 428:Drivers/STM32H7xx_HAL_Driver/Src/stm32h7xx_hal_dma_ex.c **** 
 429:Drivers/STM32H7xx_HAL_Driver/Src/stm32h7xx_hal_dma_ex.c ****     /* Disable the synchronization and event generation before applying a new config */
ARM GAS  /tmp/ccnuvyK9.s 			page 9


 430:Drivers/STM32H7xx_HAL_Driver/Src/stm32h7xx_hal_dma_ex.c ****     CLEAR_BIT(hdma->DMAmuxChannel->CCR,(DMAMUX_CxCR_SE | DMAMUX_CxCR_EGE));
 431:Drivers/STM32H7xx_HAL_Driver/Src/stm32h7xx_hal_dma_ex.c **** 
 432:Drivers/STM32H7xx_HAL_Driver/Src/stm32h7xx_hal_dma_ex.c ****     /* Set the new synchronization parameters (and keep the request ID filled during the Init)*/
 433:Drivers/STM32H7xx_HAL_Driver/Src/stm32h7xx_hal_dma_ex.c ****     MODIFY_REG( hdma->DMAmuxChannel->CCR, \
 434:Drivers/STM32H7xx_HAL_Driver/Src/stm32h7xx_hal_dma_ex.c ****                (~DMAMUX_CxCR_DMAREQ_ID) , \
 435:Drivers/STM32H7xx_HAL_Driver/Src/stm32h7xx_hal_dma_ex.c ****                (syncSignalID << DMAMUX_CxCR_SYNC_ID_Pos)       | \
 436:Drivers/STM32H7xx_HAL_Driver/Src/stm32h7xx_hal_dma_ex.c ****                ((pSyncConfig->RequestNumber - 1U) << DMAMUX_CxCR_NBREQ_Pos) | \
 437:Drivers/STM32H7xx_HAL_Driver/Src/stm32h7xx_hal_dma_ex.c ****                syncPolarity | ((uint32_t)pSyncConfig->SyncEnable << DMAMUX_CxCR_SE_Pos)    | \
 438:Drivers/STM32H7xx_HAL_Driver/Src/stm32h7xx_hal_dma_ex.c ****                ((uint32_t)pSyncConfig->EventEnable << DMAMUX_CxCR_EGE_Pos));
 439:Drivers/STM32H7xx_HAL_Driver/Src/stm32h7xx_hal_dma_ex.c **** 
 440:Drivers/STM32H7xx_HAL_Driver/Src/stm32h7xx_hal_dma_ex.c ****       /* Process Locked */
 441:Drivers/STM32H7xx_HAL_Driver/Src/stm32h7xx_hal_dma_ex.c ****     __HAL_UNLOCK(hdma);
 442:Drivers/STM32H7xx_HAL_Driver/Src/stm32h7xx_hal_dma_ex.c **** 
 443:Drivers/STM32H7xx_HAL_Driver/Src/stm32h7xx_hal_dma_ex.c ****     return HAL_OK;
 444:Drivers/STM32H7xx_HAL_Driver/Src/stm32h7xx_hal_dma_ex.c ****   }
 445:Drivers/STM32H7xx_HAL_Driver/Src/stm32h7xx_hal_dma_ex.c ****   else
 446:Drivers/STM32H7xx_HAL_Driver/Src/stm32h7xx_hal_dma_ex.c ****   {
 447:Drivers/STM32H7xx_HAL_Driver/Src/stm32h7xx_hal_dma_ex.c ****     /* Set the error code to busy */
 448:Drivers/STM32H7xx_HAL_Driver/Src/stm32h7xx_hal_dma_ex.c ****     hdma->ErrorCode = HAL_DMA_ERROR_BUSY;
 449:Drivers/STM32H7xx_HAL_Driver/Src/stm32h7xx_hal_dma_ex.c **** 
 450:Drivers/STM32H7xx_HAL_Driver/Src/stm32h7xx_hal_dma_ex.c ****     /* Return error status */
 451:Drivers/STM32H7xx_HAL_Driver/Src/stm32h7xx_hal_dma_ex.c ****     return HAL_ERROR;
 452:Drivers/STM32H7xx_HAL_Driver/Src/stm32h7xx_hal_dma_ex.c ****   }
 453:Drivers/STM32H7xx_HAL_Driver/Src/stm32h7xx_hal_dma_ex.c **** }
 454:Drivers/STM32H7xx_HAL_Driver/Src/stm32h7xx_hal_dma_ex.c **** 
 455:Drivers/STM32H7xx_HAL_Driver/Src/stm32h7xx_hal_dma_ex.c **** /**
 456:Drivers/STM32H7xx_HAL_Driver/Src/stm32h7xx_hal_dma_ex.c ****   * @brief  Configure the DMAMUX request generator block used by the given DMA stream (instance).
 457:Drivers/STM32H7xx_HAL_Driver/Src/stm32h7xx_hal_dma_ex.c ****   * @param  hdma:       pointer to a DMA_HandleTypeDef structure that contains
 458:Drivers/STM32H7xx_HAL_Driver/Src/stm32h7xx_hal_dma_ex.c ****   *                     the configuration information for the specified DMA Stream.
 459:Drivers/STM32H7xx_HAL_Driver/Src/stm32h7xx_hal_dma_ex.c ****   * @param  pRequestGeneratorConfig : pointer to HAL_DMA_MuxRequestGeneratorConfigTypeDef :
 460:Drivers/STM32H7xx_HAL_Driver/Src/stm32h7xx_hal_dma_ex.c ****   *         contains the request generator parameters.
 461:Drivers/STM32H7xx_HAL_Driver/Src/stm32h7xx_hal_dma_ex.c ****   *
 462:Drivers/STM32H7xx_HAL_Driver/Src/stm32h7xx_hal_dma_ex.c ****   * @retval HAL status
 463:Drivers/STM32H7xx_HAL_Driver/Src/stm32h7xx_hal_dma_ex.c ****   */
 464:Drivers/STM32H7xx_HAL_Driver/Src/stm32h7xx_hal_dma_ex.c **** HAL_StatusTypeDef HAL_DMAEx_ConfigMuxRequestGenerator (DMA_HandleTypeDef *hdma, HAL_DMA_MuxRequestG
 465:Drivers/STM32H7xx_HAL_Driver/Src/stm32h7xx_hal_dma_ex.c **** {
 466:Drivers/STM32H7xx_HAL_Driver/Src/stm32h7xx_hal_dma_ex.c ****   HAL_StatusTypeDef status;
 467:Drivers/STM32H7xx_HAL_Driver/Src/stm32h7xx_hal_dma_ex.c ****   HAL_DMA_StateTypeDef temp_state = hdma->State;
 468:Drivers/STM32H7xx_HAL_Driver/Src/stm32h7xx_hal_dma_ex.c **** 
 469:Drivers/STM32H7xx_HAL_Driver/Src/stm32h7xx_hal_dma_ex.c ****   /* Check the parameters */
 470:Drivers/STM32H7xx_HAL_Driver/Src/stm32h7xx_hal_dma_ex.c ****   assert_param(IS_DMA_DMAMUX_ALL_INSTANCE(hdma->Instance));
 471:Drivers/STM32H7xx_HAL_Driver/Src/stm32h7xx_hal_dma_ex.c **** 
 472:Drivers/STM32H7xx_HAL_Driver/Src/stm32h7xx_hal_dma_ex.c ****   if(IS_DMA_STREAM_INSTANCE(hdma->Instance) != 0U) /* DMA1 or DMA2 instance */
 473:Drivers/STM32H7xx_HAL_Driver/Src/stm32h7xx_hal_dma_ex.c ****   {
 474:Drivers/STM32H7xx_HAL_Driver/Src/stm32h7xx_hal_dma_ex.c ****     assert_param(IS_DMA_DMAMUX_REQUEST_GEN_SIGNAL_ID(pRequestGeneratorConfig->SignalID));
 475:Drivers/STM32H7xx_HAL_Driver/Src/stm32h7xx_hal_dma_ex.c ****   }
 476:Drivers/STM32H7xx_HAL_Driver/Src/stm32h7xx_hal_dma_ex.c ****   else
 477:Drivers/STM32H7xx_HAL_Driver/Src/stm32h7xx_hal_dma_ex.c ****   {
 478:Drivers/STM32H7xx_HAL_Driver/Src/stm32h7xx_hal_dma_ex.c ****     assert_param(IS_BDMA_DMAMUX_REQUEST_GEN_SIGNAL_ID(pRequestGeneratorConfig->SignalID));
 479:Drivers/STM32H7xx_HAL_Driver/Src/stm32h7xx_hal_dma_ex.c ****   }
 480:Drivers/STM32H7xx_HAL_Driver/Src/stm32h7xx_hal_dma_ex.c **** 
 481:Drivers/STM32H7xx_HAL_Driver/Src/stm32h7xx_hal_dma_ex.c **** 
 482:Drivers/STM32H7xx_HAL_Driver/Src/stm32h7xx_hal_dma_ex.c ****   assert_param(IS_DMAMUX_REQUEST_GEN_POLARITY(pRequestGeneratorConfig->Polarity));
 483:Drivers/STM32H7xx_HAL_Driver/Src/stm32h7xx_hal_dma_ex.c ****   assert_param(IS_DMAMUX_REQUEST_GEN_REQUEST_NUMBER(pRequestGeneratorConfig->RequestNumber));
 484:Drivers/STM32H7xx_HAL_Driver/Src/stm32h7xx_hal_dma_ex.c **** 
 485:Drivers/STM32H7xx_HAL_Driver/Src/stm32h7xx_hal_dma_ex.c ****   /* check if the DMA state is ready
 486:Drivers/STM32H7xx_HAL_Driver/Src/stm32h7xx_hal_dma_ex.c ****      and DMA is using a DMAMUX request generator block
ARM GAS  /tmp/ccnuvyK9.s 			page 10


 487:Drivers/STM32H7xx_HAL_Driver/Src/stm32h7xx_hal_dma_ex.c ****   */
 488:Drivers/STM32H7xx_HAL_Driver/Src/stm32h7xx_hal_dma_ex.c ****   if(hdma->DMAmuxRequestGen == 0U)
 489:Drivers/STM32H7xx_HAL_Driver/Src/stm32h7xx_hal_dma_ex.c ****   {
 490:Drivers/STM32H7xx_HAL_Driver/Src/stm32h7xx_hal_dma_ex.c ****     /* Set the error code to busy */
 491:Drivers/STM32H7xx_HAL_Driver/Src/stm32h7xx_hal_dma_ex.c ****     hdma->ErrorCode = HAL_DMA_ERROR_PARAM;
 492:Drivers/STM32H7xx_HAL_Driver/Src/stm32h7xx_hal_dma_ex.c **** 
 493:Drivers/STM32H7xx_HAL_Driver/Src/stm32h7xx_hal_dma_ex.c ****     /* error status */
 494:Drivers/STM32H7xx_HAL_Driver/Src/stm32h7xx_hal_dma_ex.c ****     status = HAL_ERROR;
 495:Drivers/STM32H7xx_HAL_Driver/Src/stm32h7xx_hal_dma_ex.c ****   }
 496:Drivers/STM32H7xx_HAL_Driver/Src/stm32h7xx_hal_dma_ex.c ****   else if(((hdma->DMAmuxRequestGen->RGCR & DMAMUX_RGxCR_GE) == 0U) && (temp_state == HAL_DMA_STATE_
 497:Drivers/STM32H7xx_HAL_Driver/Src/stm32h7xx_hal_dma_ex.c ****   {
 498:Drivers/STM32H7xx_HAL_Driver/Src/stm32h7xx_hal_dma_ex.c ****     /* RequestGenerator must be disable prior to the configuration i.e GE bit is 0 */
 499:Drivers/STM32H7xx_HAL_Driver/Src/stm32h7xx_hal_dma_ex.c **** 
 500:Drivers/STM32H7xx_HAL_Driver/Src/stm32h7xx_hal_dma_ex.c ****     /* Process Locked */
 501:Drivers/STM32H7xx_HAL_Driver/Src/stm32h7xx_hal_dma_ex.c ****     __HAL_LOCK(hdma);
 502:Drivers/STM32H7xx_HAL_Driver/Src/stm32h7xx_hal_dma_ex.c **** 
 503:Drivers/STM32H7xx_HAL_Driver/Src/stm32h7xx_hal_dma_ex.c ****     /* Set the request generator new parameters */
 504:Drivers/STM32H7xx_HAL_Driver/Src/stm32h7xx_hal_dma_ex.c ****     hdma->DMAmuxRequestGen->RGCR = pRequestGeneratorConfig->SignalID | \
 505:Drivers/STM32H7xx_HAL_Driver/Src/stm32h7xx_hal_dma_ex.c ****                                   ((pRequestGeneratorConfig->RequestNumber - 1U) << DMAMUX_RGxCR_GN
 506:Drivers/STM32H7xx_HAL_Driver/Src/stm32h7xx_hal_dma_ex.c ****                                   pRequestGeneratorConfig->Polarity;
 507:Drivers/STM32H7xx_HAL_Driver/Src/stm32h7xx_hal_dma_ex.c ****     /* Process Locked */
 508:Drivers/STM32H7xx_HAL_Driver/Src/stm32h7xx_hal_dma_ex.c ****     __HAL_UNLOCK(hdma);
 509:Drivers/STM32H7xx_HAL_Driver/Src/stm32h7xx_hal_dma_ex.c **** 
 510:Drivers/STM32H7xx_HAL_Driver/Src/stm32h7xx_hal_dma_ex.c ****     return HAL_OK;
 511:Drivers/STM32H7xx_HAL_Driver/Src/stm32h7xx_hal_dma_ex.c ****   }
 512:Drivers/STM32H7xx_HAL_Driver/Src/stm32h7xx_hal_dma_ex.c ****   else
 513:Drivers/STM32H7xx_HAL_Driver/Src/stm32h7xx_hal_dma_ex.c ****   {
 514:Drivers/STM32H7xx_HAL_Driver/Src/stm32h7xx_hal_dma_ex.c ****     /* Set the error code to busy */
 515:Drivers/STM32H7xx_HAL_Driver/Src/stm32h7xx_hal_dma_ex.c ****     hdma->ErrorCode = HAL_DMA_ERROR_BUSY;
 516:Drivers/STM32H7xx_HAL_Driver/Src/stm32h7xx_hal_dma_ex.c **** 
 517:Drivers/STM32H7xx_HAL_Driver/Src/stm32h7xx_hal_dma_ex.c ****     /* error status */
 518:Drivers/STM32H7xx_HAL_Driver/Src/stm32h7xx_hal_dma_ex.c ****     status = HAL_ERROR;
 519:Drivers/STM32H7xx_HAL_Driver/Src/stm32h7xx_hal_dma_ex.c ****   }
 520:Drivers/STM32H7xx_HAL_Driver/Src/stm32h7xx_hal_dma_ex.c **** 
 521:Drivers/STM32H7xx_HAL_Driver/Src/stm32h7xx_hal_dma_ex.c ****   return status;
 522:Drivers/STM32H7xx_HAL_Driver/Src/stm32h7xx_hal_dma_ex.c **** }
 523:Drivers/STM32H7xx_HAL_Driver/Src/stm32h7xx_hal_dma_ex.c **** 
 524:Drivers/STM32H7xx_HAL_Driver/Src/stm32h7xx_hal_dma_ex.c **** /**
 525:Drivers/STM32H7xx_HAL_Driver/Src/stm32h7xx_hal_dma_ex.c ****   * @brief  Enable the DMAMUX request generator block used by the given DMA stream (instance).
 526:Drivers/STM32H7xx_HAL_Driver/Src/stm32h7xx_hal_dma_ex.c ****   * @param  hdma:       pointer to a DMA_HandleTypeDef structure that contains
 527:Drivers/STM32H7xx_HAL_Driver/Src/stm32h7xx_hal_dma_ex.c ****   *                     the configuration information for the specified DMA Stream.
 528:Drivers/STM32H7xx_HAL_Driver/Src/stm32h7xx_hal_dma_ex.c ****   * @retval HAL status
 529:Drivers/STM32H7xx_HAL_Driver/Src/stm32h7xx_hal_dma_ex.c ****   */
 530:Drivers/STM32H7xx_HAL_Driver/Src/stm32h7xx_hal_dma_ex.c **** HAL_StatusTypeDef HAL_DMAEx_EnableMuxRequestGenerator (DMA_HandleTypeDef *hdma)
 531:Drivers/STM32H7xx_HAL_Driver/Src/stm32h7xx_hal_dma_ex.c **** {
 532:Drivers/STM32H7xx_HAL_Driver/Src/stm32h7xx_hal_dma_ex.c ****   /* Check the parameters */
 533:Drivers/STM32H7xx_HAL_Driver/Src/stm32h7xx_hal_dma_ex.c ****   assert_param(IS_DMA_DMAMUX_ALL_INSTANCE(hdma->Instance));
 534:Drivers/STM32H7xx_HAL_Driver/Src/stm32h7xx_hal_dma_ex.c **** 
 535:Drivers/STM32H7xx_HAL_Driver/Src/stm32h7xx_hal_dma_ex.c ****   /* check if the DMA state is ready
 536:Drivers/STM32H7xx_HAL_Driver/Src/stm32h7xx_hal_dma_ex.c ****      and DMA is using a DMAMUX request generator block */
 537:Drivers/STM32H7xx_HAL_Driver/Src/stm32h7xx_hal_dma_ex.c ****   if((hdma->State != HAL_DMA_STATE_RESET) && (hdma->DMAmuxRequestGen != 0U))
 538:Drivers/STM32H7xx_HAL_Driver/Src/stm32h7xx_hal_dma_ex.c ****   {
 539:Drivers/STM32H7xx_HAL_Driver/Src/stm32h7xx_hal_dma_ex.c ****     /* Enable the request generator*/
 540:Drivers/STM32H7xx_HAL_Driver/Src/stm32h7xx_hal_dma_ex.c ****     hdma->DMAmuxRequestGen->RGCR |= DMAMUX_RGxCR_GE;
 541:Drivers/STM32H7xx_HAL_Driver/Src/stm32h7xx_hal_dma_ex.c **** 
 542:Drivers/STM32H7xx_HAL_Driver/Src/stm32h7xx_hal_dma_ex.c ****    return HAL_OK;
 543:Drivers/STM32H7xx_HAL_Driver/Src/stm32h7xx_hal_dma_ex.c ****  }
ARM GAS  /tmp/ccnuvyK9.s 			page 11


 544:Drivers/STM32H7xx_HAL_Driver/Src/stm32h7xx_hal_dma_ex.c ****  else
 545:Drivers/STM32H7xx_HAL_Driver/Src/stm32h7xx_hal_dma_ex.c ****  {
 546:Drivers/STM32H7xx_HAL_Driver/Src/stm32h7xx_hal_dma_ex.c ****    return HAL_ERROR;
 547:Drivers/STM32H7xx_HAL_Driver/Src/stm32h7xx_hal_dma_ex.c ****  }
 548:Drivers/STM32H7xx_HAL_Driver/Src/stm32h7xx_hal_dma_ex.c **** }
 549:Drivers/STM32H7xx_HAL_Driver/Src/stm32h7xx_hal_dma_ex.c **** 
 550:Drivers/STM32H7xx_HAL_Driver/Src/stm32h7xx_hal_dma_ex.c **** /**
 551:Drivers/STM32H7xx_HAL_Driver/Src/stm32h7xx_hal_dma_ex.c ****   * @brief  Disable the DMAMUX request generator block used by the given DMA stream (instance).
 552:Drivers/STM32H7xx_HAL_Driver/Src/stm32h7xx_hal_dma_ex.c ****   * @param  hdma:       pointer to a DMA_HandleTypeDef structure that contains
 553:Drivers/STM32H7xx_HAL_Driver/Src/stm32h7xx_hal_dma_ex.c ****   *                     the configuration information for the specified DMA Stream.
 554:Drivers/STM32H7xx_HAL_Driver/Src/stm32h7xx_hal_dma_ex.c ****   * @retval HAL status
 555:Drivers/STM32H7xx_HAL_Driver/Src/stm32h7xx_hal_dma_ex.c ****   */
 556:Drivers/STM32H7xx_HAL_Driver/Src/stm32h7xx_hal_dma_ex.c **** HAL_StatusTypeDef HAL_DMAEx_DisableMuxRequestGenerator (DMA_HandleTypeDef *hdma)
 557:Drivers/STM32H7xx_HAL_Driver/Src/stm32h7xx_hal_dma_ex.c **** {
 558:Drivers/STM32H7xx_HAL_Driver/Src/stm32h7xx_hal_dma_ex.c ****   /* Check the parameters */
 559:Drivers/STM32H7xx_HAL_Driver/Src/stm32h7xx_hal_dma_ex.c ****   assert_param(IS_DMA_DMAMUX_ALL_INSTANCE(hdma->Instance));
 560:Drivers/STM32H7xx_HAL_Driver/Src/stm32h7xx_hal_dma_ex.c **** 
 561:Drivers/STM32H7xx_HAL_Driver/Src/stm32h7xx_hal_dma_ex.c ****   /* check if the DMA state is ready
 562:Drivers/STM32H7xx_HAL_Driver/Src/stm32h7xx_hal_dma_ex.c ****      and DMA is using a DMAMUX request generator block */
 563:Drivers/STM32H7xx_HAL_Driver/Src/stm32h7xx_hal_dma_ex.c ****   if((hdma->State != HAL_DMA_STATE_RESET) && (hdma->DMAmuxRequestGen != 0U))
 564:Drivers/STM32H7xx_HAL_Driver/Src/stm32h7xx_hal_dma_ex.c ****   {
 565:Drivers/STM32H7xx_HAL_Driver/Src/stm32h7xx_hal_dma_ex.c ****     /* Disable the request generator*/
 566:Drivers/STM32H7xx_HAL_Driver/Src/stm32h7xx_hal_dma_ex.c ****     hdma->DMAmuxRequestGen->RGCR &= ~DMAMUX_RGxCR_GE;
 567:Drivers/STM32H7xx_HAL_Driver/Src/stm32h7xx_hal_dma_ex.c **** 
 568:Drivers/STM32H7xx_HAL_Driver/Src/stm32h7xx_hal_dma_ex.c ****    return HAL_OK;
 569:Drivers/STM32H7xx_HAL_Driver/Src/stm32h7xx_hal_dma_ex.c ****  }
 570:Drivers/STM32H7xx_HAL_Driver/Src/stm32h7xx_hal_dma_ex.c ****  else
 571:Drivers/STM32H7xx_HAL_Driver/Src/stm32h7xx_hal_dma_ex.c ****  {
 572:Drivers/STM32H7xx_HAL_Driver/Src/stm32h7xx_hal_dma_ex.c ****    return HAL_ERROR;
 573:Drivers/STM32H7xx_HAL_Driver/Src/stm32h7xx_hal_dma_ex.c ****  }
 574:Drivers/STM32H7xx_HAL_Driver/Src/stm32h7xx_hal_dma_ex.c **** }
 575:Drivers/STM32H7xx_HAL_Driver/Src/stm32h7xx_hal_dma_ex.c **** 
 576:Drivers/STM32H7xx_HAL_Driver/Src/stm32h7xx_hal_dma_ex.c **** /**
 577:Drivers/STM32H7xx_HAL_Driver/Src/stm32h7xx_hal_dma_ex.c ****   * @brief  Handles DMAMUX interrupt request.
 578:Drivers/STM32H7xx_HAL_Driver/Src/stm32h7xx_hal_dma_ex.c ****   * @param  hdma: pointer to a DMA_HandleTypeDef structure that contains
 579:Drivers/STM32H7xx_HAL_Driver/Src/stm32h7xx_hal_dma_ex.c ****   *               the configuration information for the specified DMA Stream.
 580:Drivers/STM32H7xx_HAL_Driver/Src/stm32h7xx_hal_dma_ex.c ****   * @retval None
 581:Drivers/STM32H7xx_HAL_Driver/Src/stm32h7xx_hal_dma_ex.c ****   */
 582:Drivers/STM32H7xx_HAL_Driver/Src/stm32h7xx_hal_dma_ex.c **** void HAL_DMAEx_MUX_IRQHandler(DMA_HandleTypeDef *hdma)
 583:Drivers/STM32H7xx_HAL_Driver/Src/stm32h7xx_hal_dma_ex.c **** {
 584:Drivers/STM32H7xx_HAL_Driver/Src/stm32h7xx_hal_dma_ex.c ****   /* Check for DMAMUX Synchronization overrun */
 585:Drivers/STM32H7xx_HAL_Driver/Src/stm32h7xx_hal_dma_ex.c ****   if((hdma->DMAmuxChannelStatus->CSR & hdma->DMAmuxChannelStatusMask) != 0U)
 586:Drivers/STM32H7xx_HAL_Driver/Src/stm32h7xx_hal_dma_ex.c ****   {
 587:Drivers/STM32H7xx_HAL_Driver/Src/stm32h7xx_hal_dma_ex.c ****     /* Disable the synchro overrun interrupt */
 588:Drivers/STM32H7xx_HAL_Driver/Src/stm32h7xx_hal_dma_ex.c ****     hdma->DMAmuxChannel->CCR &= ~DMAMUX_CxCR_SOIE;
 589:Drivers/STM32H7xx_HAL_Driver/Src/stm32h7xx_hal_dma_ex.c **** 
 590:Drivers/STM32H7xx_HAL_Driver/Src/stm32h7xx_hal_dma_ex.c ****     /* Clear the DMAMUX synchro overrun flag */
 591:Drivers/STM32H7xx_HAL_Driver/Src/stm32h7xx_hal_dma_ex.c ****     hdma->DMAmuxChannelStatus->CFR = hdma->DMAmuxChannelStatusMask;
 592:Drivers/STM32H7xx_HAL_Driver/Src/stm32h7xx_hal_dma_ex.c **** 
 593:Drivers/STM32H7xx_HAL_Driver/Src/stm32h7xx_hal_dma_ex.c ****     /* Update error code */
 594:Drivers/STM32H7xx_HAL_Driver/Src/stm32h7xx_hal_dma_ex.c ****     hdma->ErrorCode |= HAL_DMA_ERROR_SYNC;
 595:Drivers/STM32H7xx_HAL_Driver/Src/stm32h7xx_hal_dma_ex.c **** 
 596:Drivers/STM32H7xx_HAL_Driver/Src/stm32h7xx_hal_dma_ex.c ****     if(hdma->XferErrorCallback != NULL)
 597:Drivers/STM32H7xx_HAL_Driver/Src/stm32h7xx_hal_dma_ex.c ****     {
 598:Drivers/STM32H7xx_HAL_Driver/Src/stm32h7xx_hal_dma_ex.c ****       /* Transfer error callback */
 599:Drivers/STM32H7xx_HAL_Driver/Src/stm32h7xx_hal_dma_ex.c ****       hdma->XferErrorCallback(hdma);
 600:Drivers/STM32H7xx_HAL_Driver/Src/stm32h7xx_hal_dma_ex.c ****     }
ARM GAS  /tmp/ccnuvyK9.s 			page 12


 601:Drivers/STM32H7xx_HAL_Driver/Src/stm32h7xx_hal_dma_ex.c ****   }
 602:Drivers/STM32H7xx_HAL_Driver/Src/stm32h7xx_hal_dma_ex.c **** 
 603:Drivers/STM32H7xx_HAL_Driver/Src/stm32h7xx_hal_dma_ex.c ****   if(hdma->DMAmuxRequestGen != 0)
 604:Drivers/STM32H7xx_HAL_Driver/Src/stm32h7xx_hal_dma_ex.c ****   {
 605:Drivers/STM32H7xx_HAL_Driver/Src/stm32h7xx_hal_dma_ex.c ****    /* if using a DMAMUX request generator block Check for DMAMUX request generator overrun */
 606:Drivers/STM32H7xx_HAL_Driver/Src/stm32h7xx_hal_dma_ex.c ****     if((hdma->DMAmuxRequestGenStatus->RGSR & hdma->DMAmuxRequestGenStatusMask) != 0U)
 607:Drivers/STM32H7xx_HAL_Driver/Src/stm32h7xx_hal_dma_ex.c ****     {
 608:Drivers/STM32H7xx_HAL_Driver/Src/stm32h7xx_hal_dma_ex.c ****       /* Disable the request gen overrun interrupt */
 609:Drivers/STM32H7xx_HAL_Driver/Src/stm32h7xx_hal_dma_ex.c ****       hdma->DMAmuxRequestGen->RGCR &= ~DMAMUX_RGxCR_OIE;
 610:Drivers/STM32H7xx_HAL_Driver/Src/stm32h7xx_hal_dma_ex.c **** 
 611:Drivers/STM32H7xx_HAL_Driver/Src/stm32h7xx_hal_dma_ex.c ****       /* Clear the DMAMUX request generator overrun flag */
 612:Drivers/STM32H7xx_HAL_Driver/Src/stm32h7xx_hal_dma_ex.c ****       hdma->DMAmuxRequestGenStatus->RGCFR = hdma->DMAmuxRequestGenStatusMask;
 613:Drivers/STM32H7xx_HAL_Driver/Src/stm32h7xx_hal_dma_ex.c **** 
 614:Drivers/STM32H7xx_HAL_Driver/Src/stm32h7xx_hal_dma_ex.c ****       /* Update error code */
 615:Drivers/STM32H7xx_HAL_Driver/Src/stm32h7xx_hal_dma_ex.c ****       hdma->ErrorCode |= HAL_DMA_ERROR_REQGEN;
 616:Drivers/STM32H7xx_HAL_Driver/Src/stm32h7xx_hal_dma_ex.c **** 
 617:Drivers/STM32H7xx_HAL_Driver/Src/stm32h7xx_hal_dma_ex.c ****       if(hdma->XferErrorCallback != NULL)
 618:Drivers/STM32H7xx_HAL_Driver/Src/stm32h7xx_hal_dma_ex.c ****       {
 619:Drivers/STM32H7xx_HAL_Driver/Src/stm32h7xx_hal_dma_ex.c ****         /* Transfer error callback */
 620:Drivers/STM32H7xx_HAL_Driver/Src/stm32h7xx_hal_dma_ex.c ****         hdma->XferErrorCallback(hdma);
 621:Drivers/STM32H7xx_HAL_Driver/Src/stm32h7xx_hal_dma_ex.c ****       }
 622:Drivers/STM32H7xx_HAL_Driver/Src/stm32h7xx_hal_dma_ex.c ****     }
 623:Drivers/STM32H7xx_HAL_Driver/Src/stm32h7xx_hal_dma_ex.c ****   }
 624:Drivers/STM32H7xx_HAL_Driver/Src/stm32h7xx_hal_dma_ex.c **** }
 625:Drivers/STM32H7xx_HAL_Driver/Src/stm32h7xx_hal_dma_ex.c **** 
 626:Drivers/STM32H7xx_HAL_Driver/Src/stm32h7xx_hal_dma_ex.c **** 
 627:Drivers/STM32H7xx_HAL_Driver/Src/stm32h7xx_hal_dma_ex.c **** /**
 628:Drivers/STM32H7xx_HAL_Driver/Src/stm32h7xx_hal_dma_ex.c ****   * @}
 629:Drivers/STM32H7xx_HAL_Driver/Src/stm32h7xx_hal_dma_ex.c ****   */
 630:Drivers/STM32H7xx_HAL_Driver/Src/stm32h7xx_hal_dma_ex.c **** 
 631:Drivers/STM32H7xx_HAL_Driver/Src/stm32h7xx_hal_dma_ex.c **** /**
 632:Drivers/STM32H7xx_HAL_Driver/Src/stm32h7xx_hal_dma_ex.c ****   * @}
 633:Drivers/STM32H7xx_HAL_Driver/Src/stm32h7xx_hal_dma_ex.c ****   */
 634:Drivers/STM32H7xx_HAL_Driver/Src/stm32h7xx_hal_dma_ex.c **** 
 635:Drivers/STM32H7xx_HAL_Driver/Src/stm32h7xx_hal_dma_ex.c **** /** @addtogroup DMAEx_Private_Functions
 636:Drivers/STM32H7xx_HAL_Driver/Src/stm32h7xx_hal_dma_ex.c ****   * @{
 637:Drivers/STM32H7xx_HAL_Driver/Src/stm32h7xx_hal_dma_ex.c ****   */
 638:Drivers/STM32H7xx_HAL_Driver/Src/stm32h7xx_hal_dma_ex.c **** 
 639:Drivers/STM32H7xx_HAL_Driver/Src/stm32h7xx_hal_dma_ex.c **** /**
 640:Drivers/STM32H7xx_HAL_Driver/Src/stm32h7xx_hal_dma_ex.c ****   * @brief  Set the DMA Transfer parameter.
 641:Drivers/STM32H7xx_HAL_Driver/Src/stm32h7xx_hal_dma_ex.c ****   * @param  hdma:       pointer to a DMA_HandleTypeDef structure that contains
 642:Drivers/STM32H7xx_HAL_Driver/Src/stm32h7xx_hal_dma_ex.c ****   *                     the configuration information for the specified DMA Stream.
 643:Drivers/STM32H7xx_HAL_Driver/Src/stm32h7xx_hal_dma_ex.c ****   * @param  SrcAddress: The source memory Buffer address
 644:Drivers/STM32H7xx_HAL_Driver/Src/stm32h7xx_hal_dma_ex.c ****   * @param  DstAddress: The destination memory Buffer address
 645:Drivers/STM32H7xx_HAL_Driver/Src/stm32h7xx_hal_dma_ex.c ****   * @param  DataLength: The length of data to be transferred from source to destination
 646:Drivers/STM32H7xx_HAL_Driver/Src/stm32h7xx_hal_dma_ex.c ****   * @retval HAL status
 647:Drivers/STM32H7xx_HAL_Driver/Src/stm32h7xx_hal_dma_ex.c ****   */
 648:Drivers/STM32H7xx_HAL_Driver/Src/stm32h7xx_hal_dma_ex.c **** static void DMA_MultiBufferSetConfig(DMA_HandleTypeDef *hdma, uint32_t SrcAddress, uint32_t DstAddr
 649:Drivers/STM32H7xx_HAL_Driver/Src/stm32h7xx_hal_dma_ex.c **** {
  29              		.loc 1 649 1 view -0
  30              		.cfi_startproc
  31              		@ args = 0, pretend = 0, frame = 0
  32              		@ frame_needed = 0, uses_anonymous_args = 0
  33              		@ link register save eliminated.
 650:Drivers/STM32H7xx_HAL_Driver/Src/stm32h7xx_hal_dma_ex.c ****   if(IS_DMA_STREAM_INSTANCE(hdma->Instance) != 0U) /* DMA1 or DMA2 instance */
  34              		.loc 1 650 3 view .LVU1
 649:Drivers/STM32H7xx_HAL_Driver/Src/stm32h7xx_hal_dma_ex.c ****   if(IS_DMA_STREAM_INSTANCE(hdma->Instance) != 0U) /* DMA1 or DMA2 instance */
ARM GAS  /tmp/ccnuvyK9.s 			page 13


  35              		.loc 1 649 1 is_stmt 0 view .LVU2
  36 0000 70B4     		push	{r4, r5, r6}
  37              	.LCFI0:
  38              		.cfi_def_cfa_offset 12
  39              		.cfi_offset 4, -12
  40              		.cfi_offset 5, -8
  41              		.cfi_offset 6, -4
  42              		.loc 1 650 6 view .LVU3
  43 0002 0568     		ldr	r5, [r0]
 651:Drivers/STM32H7xx_HAL_Driver/Src/stm32h7xx_hal_dma_ex.c ****   {
 652:Drivers/STM32H7xx_HAL_Driver/Src/stm32h7xx_hal_dma_ex.c ****     /* Configure DMA Stream data length */
 653:Drivers/STM32H7xx_HAL_Driver/Src/stm32h7xx_hal_dma_ex.c ****     ((DMA_Stream_TypeDef   *)hdma->Instance)->NDTR = DataLength;
 654:Drivers/STM32H7xx_HAL_Driver/Src/stm32h7xx_hal_dma_ex.c **** 
 655:Drivers/STM32H7xx_HAL_Driver/Src/stm32h7xx_hal_dma_ex.c ****     /* Peripheral to Memory */
 656:Drivers/STM32H7xx_HAL_Driver/Src/stm32h7xx_hal_dma_ex.c ****     if((hdma->Init.Direction) == DMA_MEMORY_TO_PERIPH)
  44              		.loc 1 656 7 view .LVU4
  45 0004 8068     		ldr	r0, [r0, #8]
  46              	.LVL1:
 653:Drivers/STM32H7xx_HAL_Driver/Src/stm32h7xx_hal_dma_ex.c **** 
  47              		.loc 1 653 52 view .LVU5
  48 0006 6B60     		str	r3, [r5, #4]
 653:Drivers/STM32H7xx_HAL_Driver/Src/stm32h7xx_hal_dma_ex.c **** 
  49              		.loc 1 653 5 is_stmt 1 view .LVU6
  50              		.loc 1 656 5 view .LVU7
  51              		.loc 1 656 7 is_stmt 0 view .LVU8
  52 0008 4028     		cmp	r0, #64
  53 000a 03D0     		beq	.L11
 657:Drivers/STM32H7xx_HAL_Driver/Src/stm32h7xx_hal_dma_ex.c ****     {
 658:Drivers/STM32H7xx_HAL_Driver/Src/stm32h7xx_hal_dma_ex.c ****       /* Configure DMA Stream destination address */
 659:Drivers/STM32H7xx_HAL_Driver/Src/stm32h7xx_hal_dma_ex.c ****       ((DMA_Stream_TypeDef   *)hdma->Instance)->PAR = DstAddress;
 660:Drivers/STM32H7xx_HAL_Driver/Src/stm32h7xx_hal_dma_ex.c **** 
 661:Drivers/STM32H7xx_HAL_Driver/Src/stm32h7xx_hal_dma_ex.c ****       /* Configure DMA Stream source address */
 662:Drivers/STM32H7xx_HAL_Driver/Src/stm32h7xx_hal_dma_ex.c ****       ((DMA_Stream_TypeDef   *)hdma->Instance)->M0AR = SrcAddress;
 663:Drivers/STM32H7xx_HAL_Driver/Src/stm32h7xx_hal_dma_ex.c ****     }
 664:Drivers/STM32H7xx_HAL_Driver/Src/stm32h7xx_hal_dma_ex.c ****     /* Memory to Peripheral */
 665:Drivers/STM32H7xx_HAL_Driver/Src/stm32h7xx_hal_dma_ex.c ****     else
 666:Drivers/STM32H7xx_HAL_Driver/Src/stm32h7xx_hal_dma_ex.c ****     {
 667:Drivers/STM32H7xx_HAL_Driver/Src/stm32h7xx_hal_dma_ex.c ****       /* Configure DMA Stream source address */
 668:Drivers/STM32H7xx_HAL_Driver/Src/stm32h7xx_hal_dma_ex.c ****       ((DMA_Stream_TypeDef   *)hdma->Instance)->PAR = SrcAddress;
 669:Drivers/STM32H7xx_HAL_Driver/Src/stm32h7xx_hal_dma_ex.c **** 
 670:Drivers/STM32H7xx_HAL_Driver/Src/stm32h7xx_hal_dma_ex.c ****       /* Configure DMA Stream destination address */
 671:Drivers/STM32H7xx_HAL_Driver/Src/stm32h7xx_hal_dma_ex.c ****       ((DMA_Stream_TypeDef   *)hdma->Instance)->M0AR = DstAddress;
 672:Drivers/STM32H7xx_HAL_Driver/Src/stm32h7xx_hal_dma_ex.c ****     }
 673:Drivers/STM32H7xx_HAL_Driver/Src/stm32h7xx_hal_dma_ex.c ****   }
 674:Drivers/STM32H7xx_HAL_Driver/Src/stm32h7xx_hal_dma_ex.c ****   else /* BDMA instance(s) */
 675:Drivers/STM32H7xx_HAL_Driver/Src/stm32h7xx_hal_dma_ex.c ****   {
 676:Drivers/STM32H7xx_HAL_Driver/Src/stm32h7xx_hal_dma_ex.c ****     /* Configure DMA Stream data length */
 677:Drivers/STM32H7xx_HAL_Driver/Src/stm32h7xx_hal_dma_ex.c ****     ((BDMA_Channel_TypeDef   *)hdma->Instance)->CNDTR = DataLength;
 678:Drivers/STM32H7xx_HAL_Driver/Src/stm32h7xx_hal_dma_ex.c **** 
 679:Drivers/STM32H7xx_HAL_Driver/Src/stm32h7xx_hal_dma_ex.c ****     /* Peripheral to Memory */
 680:Drivers/STM32H7xx_HAL_Driver/Src/stm32h7xx_hal_dma_ex.c ****     if((hdma->Init.Direction) == DMA_MEMORY_TO_PERIPH)
 681:Drivers/STM32H7xx_HAL_Driver/Src/stm32h7xx_hal_dma_ex.c ****     {
 682:Drivers/STM32H7xx_HAL_Driver/Src/stm32h7xx_hal_dma_ex.c ****       /* Configure DMA Stream destination address */
 683:Drivers/STM32H7xx_HAL_Driver/Src/stm32h7xx_hal_dma_ex.c ****       ((BDMA_Channel_TypeDef   *)hdma->Instance)->CPAR = DstAddress;
 684:Drivers/STM32H7xx_HAL_Driver/Src/stm32h7xx_hal_dma_ex.c **** 
 685:Drivers/STM32H7xx_HAL_Driver/Src/stm32h7xx_hal_dma_ex.c ****       /* Configure DMA Stream source address */
 686:Drivers/STM32H7xx_HAL_Driver/Src/stm32h7xx_hal_dma_ex.c ****       ((BDMA_Channel_TypeDef   *)hdma->Instance)->CM0AR = SrcAddress;
ARM GAS  /tmp/ccnuvyK9.s 			page 14


 687:Drivers/STM32H7xx_HAL_Driver/Src/stm32h7xx_hal_dma_ex.c ****     }
 688:Drivers/STM32H7xx_HAL_Driver/Src/stm32h7xx_hal_dma_ex.c ****     /* Memory to Peripheral */
 689:Drivers/STM32H7xx_HAL_Driver/Src/stm32h7xx_hal_dma_ex.c ****     else
 690:Drivers/STM32H7xx_HAL_Driver/Src/stm32h7xx_hal_dma_ex.c ****     {
 691:Drivers/STM32H7xx_HAL_Driver/Src/stm32h7xx_hal_dma_ex.c ****       /* Configure DMA Stream source address */
 692:Drivers/STM32H7xx_HAL_Driver/Src/stm32h7xx_hal_dma_ex.c ****       ((BDMA_Channel_TypeDef   *)hdma->Instance)->CPAR = SrcAddress;
  54              		.loc 1 692 7 is_stmt 1 view .LVU9
  55              		.loc 1 692 56 is_stmt 0 view .LVU10
  56 000c A960     		str	r1, [r5, #8]
 693:Drivers/STM32H7xx_HAL_Driver/Src/stm32h7xx_hal_dma_ex.c **** 
 694:Drivers/STM32H7xx_HAL_Driver/Src/stm32h7xx_hal_dma_ex.c ****       /* Configure DMA Stream destination address */
 695:Drivers/STM32H7xx_HAL_Driver/Src/stm32h7xx_hal_dma_ex.c ****       ((BDMA_Channel_TypeDef   *)hdma->Instance)->CM0AR = DstAddress;
  57              		.loc 1 695 7 is_stmt 1 view .LVU11
  58              		.loc 1 695 57 is_stmt 0 view .LVU12
  59 000e EA60     		str	r2, [r5, #12]
 696:Drivers/STM32H7xx_HAL_Driver/Src/stm32h7xx_hal_dma_ex.c ****     }
 697:Drivers/STM32H7xx_HAL_Driver/Src/stm32h7xx_hal_dma_ex.c ****   }
 698:Drivers/STM32H7xx_HAL_Driver/Src/stm32h7xx_hal_dma_ex.c **** }
  60              		.loc 1 698 1 view .LVU13
  61 0010 70BC     		pop	{r4, r5, r6}
  62              	.LCFI1:
  63              		.cfi_remember_state
  64              		.cfi_restore 6
  65              		.cfi_restore 5
  66              		.cfi_restore 4
  67              		.cfi_def_cfa_offset 0
  68 0012 7047     		bx	lr
  69              	.L11:
  70              	.LCFI2:
  71              		.cfi_restore_state
 683:Drivers/STM32H7xx_HAL_Driver/Src/stm32h7xx_hal_dma_ex.c **** 
  72              		.loc 1 683 7 is_stmt 1 view .LVU14
 683:Drivers/STM32H7xx_HAL_Driver/Src/stm32h7xx_hal_dma_ex.c **** 
  73              		.loc 1 683 56 is_stmt 0 view .LVU15
  74 0014 AA60     		str	r2, [r5, #8]
 686:Drivers/STM32H7xx_HAL_Driver/Src/stm32h7xx_hal_dma_ex.c ****     }
  75              		.loc 1 686 7 is_stmt 1 view .LVU16
 686:Drivers/STM32H7xx_HAL_Driver/Src/stm32h7xx_hal_dma_ex.c ****     }
  76              		.loc 1 686 57 is_stmt 0 view .LVU17
  77 0016 E960     		str	r1, [r5, #12]
  78              		.loc 1 698 1 view .LVU18
  79 0018 70BC     		pop	{r4, r5, r6}
  80              	.LCFI3:
  81              		.cfi_restore 6
  82              		.cfi_restore 5
  83              		.cfi_restore 4
  84              		.cfi_def_cfa_offset 0
  85 001a 7047     		bx	lr
  86              		.cfi_endproc
  87              	.LFE152:
  89              		.section	.text.HAL_DMAEx_MultiBufferStart,"ax",%progbits
  90              		.align	1
  91              		.p2align 2,,3
  92              		.global	HAL_DMAEx_MultiBufferStart
  93              		.syntax unified
  94              		.thumb
  95              		.thumb_func
ARM GAS  /tmp/ccnuvyK9.s 			page 15


  96              		.fpu fpv5-d16
  98              	HAL_DMAEx_MultiBufferStart:
  99              	.LVL2:
 100              	.LFB144:
 121:Drivers/STM32H7xx_HAL_Driver/Src/stm32h7xx_hal_dma_ex.c ****   HAL_StatusTypeDef status = HAL_OK;
 101              		.loc 1 121 1 is_stmt 1 view -0
 102              		.cfi_startproc
 103              		@ args = 4, pretend = 0, frame = 0
 104              		@ frame_needed = 0, uses_anonymous_args = 0
 122:Drivers/STM32H7xx_HAL_Driver/Src/stm32h7xx_hal_dma_ex.c ****   __IO uint32_t *ifcRegister_Base; /* DMA Stream Interrupt Clear register */
 105              		.loc 1 122 3 view .LVU20
 123:Drivers/STM32H7xx_HAL_Driver/Src/stm32h7xx_hal_dma_ex.c **** 
 106              		.loc 1 123 3 view .LVU21
 126:Drivers/STM32H7xx_HAL_Driver/Src/stm32h7xx_hal_dma_ex.c ****   assert_param(IS_DMA_ALL_INSTANCE(hdma->Instance));
 107              		.loc 1 126 3 view .LVU22
 127:Drivers/STM32H7xx_HAL_Driver/Src/stm32h7xx_hal_dma_ex.c **** 
 108              		.loc 1 127 3 view .LVU23
 130:Drivers/STM32H7xx_HAL_Driver/Src/stm32h7xx_hal_dma_ex.c ****   {
 109              		.loc 1 130 3 view .LVU24
 121:Drivers/STM32H7xx_HAL_Driver/Src/stm32h7xx_hal_dma_ex.c ****   HAL_StatusTypeDef status = HAL_OK;
 110              		.loc 1 121 1 is_stmt 0 view .LVU25
 111 0000 F8B5     		push	{r3, r4, r5, r6, r7, lr}
 112              	.LCFI4:
 113              		.cfi_def_cfa_offset 24
 114              		.cfi_offset 3, -24
 115              		.cfi_offset 4, -20
 116              		.cfi_offset 5, -16
 117              		.cfi_offset 6, -12
 118              		.cfi_offset 7, -8
 119              		.cfi_offset 14, -4
 121:Drivers/STM32H7xx_HAL_Driver/Src/stm32h7xx_hal_dma_ex.c ****   HAL_StatusTypeDef status = HAL_OK;
 120              		.loc 1 121 1 view .LVU26
 121 0002 0446     		mov	r4, r0
 130:Drivers/STM32H7xx_HAL_Driver/Src/stm32h7xx_hal_dma_ex.c ****   {
 122              		.loc 1 130 6 view .LVU27
 123 0004 8068     		ldr	r0, [r0, #8]
 124              	.LVL3:
 130:Drivers/STM32H7xx_HAL_Driver/Src/stm32h7xx_hal_dma_ex.c ****   {
 125              		.loc 1 130 6 view .LVU28
 126 0006 8028     		cmp	r0, #128
 127 0008 11D0     		beq	.L33
 138:Drivers/STM32H7xx_HAL_Driver/Src/stm32h7xx_hal_dma_ex.c **** 
 128              		.loc 1 138 5 is_stmt 1 view .LVU29
 138:Drivers/STM32H7xx_HAL_Driver/Src/stm32h7xx_hal_dma_ex.c **** 
 129              		.loc 1 138 5 view .LVU30
 130 000a 94F83400 		ldrb	r0, [r4, #52]	@ zero_extendqisi2
 131 000e 0128     		cmp	r0, #1
 132 0010 00F08480 		beq	.L22
 138:Drivers/STM32H7xx_HAL_Driver/Src/stm32h7xx_hal_dma_ex.c **** 
 133              		.loc 1 138 5 discriminator 2 view .LVU31
 134 0014 0120     		movs	r0, #1
 140:Drivers/STM32H7xx_HAL_Driver/Src/stm32h7xx_hal_dma_ex.c ****     {
 135              		.loc 1 140 35 is_stmt 0 discriminator 2 view .LVU32
 136 0016 94F83550 		ldrb	r5, [r4, #53]	@ zero_extendqisi2
 140:Drivers/STM32H7xx_HAL_Driver/Src/stm32h7xx_hal_dma_ex.c ****     {
 137              		.loc 1 140 7 discriminator 2 view .LVU33
 138 001a 8542     		cmp	r5, r0
ARM GAS  /tmp/ccnuvyK9.s 			page 16


 140:Drivers/STM32H7xx_HAL_Driver/Src/stm32h7xx_hal_dma_ex.c ****     {
 139              		.loc 1 140 35 discriminator 2 view .LVU34
 140 001c 5FFA85FC 		uxtb	ip, r5
 138:Drivers/STM32H7xx_HAL_Driver/Src/stm32h7xx_hal_dma_ex.c **** 
 141              		.loc 1 138 5 discriminator 2 view .LVU35
 142 0020 84F83400 		strb	r0, [r4, #52]
 138:Drivers/STM32H7xx_HAL_Driver/Src/stm32h7xx_hal_dma_ex.c **** 
 143              		.loc 1 138 5 is_stmt 1 discriminator 2 view .LVU36
 140:Drivers/STM32H7xx_HAL_Driver/Src/stm32h7xx_hal_dma_ex.c ****     {
 144              		.loc 1 140 5 discriminator 2 view .LVU37
 140:Drivers/STM32H7xx_HAL_Driver/Src/stm32h7xx_hal_dma_ex.c ****     {
 145              		.loc 1 140 7 is_stmt 0 discriminator 2 view .LVU38
 146 0024 08D0     		beq	.L34
 198:Drivers/STM32H7xx_HAL_Driver/Src/stm32h7xx_hal_dma_ex.c **** 
 147              		.loc 1 198 7 is_stmt 1 view .LVU39
 198:Drivers/STM32H7xx_HAL_Driver/Src/stm32h7xx_hal_dma_ex.c **** 
 148              		.loc 1 198 23 is_stmt 0 view .LVU40
 149 0026 4FF40063 		mov	r3, #2048
 150              	.LVL4:
 198:Drivers/STM32H7xx_HAL_Driver/Src/stm32h7xx_hal_dma_ex.c **** 
 151              		.loc 1 198 23 view .LVU41
 152 002a 6365     		str	r3, [r4, #84]
 153              	.LVL5:
 201:Drivers/STM32H7xx_HAL_Driver/Src/stm32h7xx_hal_dma_ex.c ****     }
 154              		.loc 1 201 7 is_stmt 1 view .LVU42
 205:Drivers/STM32H7xx_HAL_Driver/Src/stm32h7xx_hal_dma_ex.c **** 
 155              		.loc 1 205 1 is_stmt 0 view .LVU43
 156 002c F8BD     		pop	{r3, r4, r5, r6, r7, pc}
 157              	.LVL6:
 158              	.L33:
 132:Drivers/STM32H7xx_HAL_Driver/Src/stm32h7xx_hal_dma_ex.c ****     status = HAL_ERROR;
 159              		.loc 1 132 5 is_stmt 1 view .LVU44
 132:Drivers/STM32H7xx_HAL_Driver/Src/stm32h7xx_hal_dma_ex.c ****     status = HAL_ERROR;
 160              		.loc 1 132 21 is_stmt 0 view .LVU45
 161 002e 4FF48073 		mov	r3, #256
 162              	.LVL7:
 133:Drivers/STM32H7xx_HAL_Driver/Src/stm32h7xx_hal_dma_ex.c ****   }
 163              		.loc 1 133 12 view .LVU46
 164 0032 0120     		movs	r0, #1
 132:Drivers/STM32H7xx_HAL_Driver/Src/stm32h7xx_hal_dma_ex.c ****     status = HAL_ERROR;
 165              		.loc 1 132 21 view .LVU47
 166 0034 6365     		str	r3, [r4, #84]
 167              	.LVL8:
 133:Drivers/STM32H7xx_HAL_Driver/Src/stm32h7xx_hal_dma_ex.c ****   }
 168              		.loc 1 133 5 is_stmt 1 view .LVU48
 205:Drivers/STM32H7xx_HAL_Driver/Src/stm32h7xx_hal_dma_ex.c **** 
 169              		.loc 1 205 1 is_stmt 0 view .LVU49
 170 0036 F8BD     		pop	{r3, r4, r5, r6, r7, pc}
 171              	.LVL9:
 172              	.L34:
 143:Drivers/STM32H7xx_HAL_Driver/Src/stm32h7xx_hal_dma_ex.c **** 
 173              		.loc 1 143 7 is_stmt 1 view .LVU50
 148:Drivers/STM32H7xx_HAL_Driver/Src/stm32h7xx_hal_dma_ex.c ****       {
 174              		.loc 1 148 10 is_stmt 0 view .LVU51
 175 0038 2568     		ldr	r5, [r4]
 176 003a 5548     		ldr	r0, .L36
 177 003c 554E     		ldr	r6, .L36+4
ARM GAS  /tmp/ccnuvyK9.s 			page 17


 178 003e B542     		cmp	r5, r6
 179 0040 18BF     		it	ne
 180 0042 8542     		cmpne	r5, r0
 181 0044 06F11806 		add	r6, r6, #24
 182 0048 0CBF     		ite	eq
 183 004a 0120     		moveq	r0, #1
 184 004c 0020     		movne	r0, #0
 185 004e B542     		cmp	r5, r6
 186 0050 08BF     		it	eq
 187 0052 40F00100 		orreq	r0, r0, #1
 188 0056 1836     		adds	r6, r6, #24
 189 0058 B542     		cmp	r5, r6
 190 005a 08BF     		it	eq
 191 005c 40F00100 		orreq	r0, r0, #1
 192 0060 1836     		adds	r6, r6, #24
 193 0062 B542     		cmp	r5, r6
 194 0064 08BF     		it	eq
 195 0066 40F00100 		orreq	r0, r0, #1
 196 006a 1836     		adds	r6, r6, #24
 197 006c B542     		cmp	r5, r6
 198 006e 08BF     		it	eq
 199 0070 40F00100 		orreq	r0, r0, #1
 200 0074 06F55676 		add	r6, r6, #856
 201 0078 B542     		cmp	r5, r6
 202 007a 08BF     		it	eq
 203 007c 40F00100 		orreq	r0, r0, #1
 204 0080 1836     		adds	r6, r6, #24
 205 0082 B542     		cmp	r5, r6
 206 0084 08BF     		it	eq
 207 0086 40F00100 		orreq	r0, r0, #1
 208 008a 1836     		adds	r6, r6, #24
 209 008c B542     		cmp	r5, r6
 210 008e 08BF     		it	eq
 211 0090 40F00100 		orreq	r0, r0, #1
 212 0094 1836     		adds	r6, r6, #24
 213 0096 B542     		cmp	r5, r6
 214 0098 08BF     		it	eq
 215 009a 40F00100 		orreq	r0, r0, #1
 216 009e 1836     		adds	r6, r6, #24
 217 00a0 B542     		cmp	r5, r6
 218 00a2 08BF     		it	eq
 219 00a4 40F00100 		orreq	r0, r0, #1
 220 00a8 1836     		adds	r6, r6, #24
 221 00aa B542     		cmp	r5, r6
 222 00ac 08BF     		it	eq
 223 00ae 40F00100 		orreq	r0, r0, #1
 224 00b2 1836     		adds	r6, r6, #24
 225 00b4 B542     		cmp	r5, r6
 226 00b6 08BF     		it	eq
 227 00b8 40F00100 		orreq	r0, r0, #1
 228 00bc 1836     		adds	r6, r6, #24
 229 00be B542     		cmp	r5, r6
 230 00c0 08BF     		it	eq
 231 00c2 40F00100 		orreq	r0, r0, #1
 143:Drivers/STM32H7xx_HAL_Driver/Src/stm32h7xx_hal_dma_ex.c **** 
 232              		.loc 1 143 19 view .LVU52
 233 00c6 0226     		movs	r6, #2
ARM GAS  /tmp/ccnuvyK9.s 			page 18


 234 00c8 84F83560 		strb	r6, [r4, #53]
 146:Drivers/STM32H7xx_HAL_Driver/Src/stm32h7xx_hal_dma_ex.c **** 
 235              		.loc 1 146 7 is_stmt 1 view .LVU53
 146:Drivers/STM32H7xx_HAL_Driver/Src/stm32h7xx_hal_dma_ex.c **** 
 236              		.loc 1 146 23 is_stmt 0 view .LVU54
 237 00cc 0026     		movs	r6, #0
 238 00ce 6665     		str	r6, [r4, #84]
 148:Drivers/STM32H7xx_HAL_Driver/Src/stm32h7xx_hal_dma_ex.c ****       {
 239              		.loc 1 148 7 is_stmt 1 view .LVU55
 148:Drivers/STM32H7xx_HAL_Driver/Src/stm32h7xx_hal_dma_ex.c ****       {
 240              		.loc 1 148 10 is_stmt 0 view .LVU56
 241 00d0 28B9     		cbnz	r0, .L16
 242 00d2 314E     		ldr	r6, .L36+8
 243 00d4 3148     		ldr	r0, .L36+12
 244 00d6 8542     		cmp	r5, r0
 245 00d8 18BF     		it	ne
 246 00da B542     		cmpne	r5, r6
 247 00dc 20D1     		bne	.L35
 248              	.L16:
 151:Drivers/STM32H7xx_HAL_Driver/Src/stm32h7xx_hal_dma_ex.c **** 
 249              		.loc 1 151 9 is_stmt 1 view .LVU57
 151:Drivers/STM32H7xx_HAL_Driver/Src/stm32h7xx_hal_dma_ex.c **** 
 250              		.loc 1 151 54 is_stmt 0 view .LVU58
 251 00de 2E68     		ldr	r6, [r5]
 160:Drivers/STM32H7xx_HAL_Driver/Src/stm32h7xx_hal_dma_ex.c ****       }
 252              		.loc 1 160 58 view .LVU59
 253 00e0 E06D     		ldr	r0, [r4, #92]
 151:Drivers/STM32H7xx_HAL_Driver/Src/stm32h7xx_hal_dma_ex.c **** 
 254              		.loc 1 151 54 view .LVU60
 255 00e2 46F48026 		orr	r6, r6, #262144
 160:Drivers/STM32H7xx_HAL_Driver/Src/stm32h7xx_hal_dma_ex.c ****       }
 256              		.loc 1 160 58 view .LVU61
 257 00e6 00F01F00 		and	r0, r0, #31
 151:Drivers/STM32H7xx_HAL_Driver/Src/stm32h7xx_hal_dma_ex.c **** 
 258              		.loc 1 151 54 view .LVU62
 259 00ea 2E60     		str	r6, [r5]
 154:Drivers/STM32H7xx_HAL_Driver/Src/stm32h7xx_hal_dma_ex.c **** 
 260              		.loc 1 154 9 is_stmt 1 view .LVU63
 154:Drivers/STM32H7xx_HAL_Driver/Src/stm32h7xx_hal_dma_ex.c **** 
 261              		.loc 1 154 56 is_stmt 0 view .LVU64
 262 00ec 2B61     		str	r3, [r5, #16]
 157:Drivers/STM32H7xx_HAL_Driver/Src/stm32h7xx_hal_dma_ex.c **** 
 263              		.loc 1 157 9 is_stmt 1 view .LVU65
 160:Drivers/STM32H7xx_HAL_Driver/Src/stm32h7xx_hal_dma_ex.c ****       }
 264              		.loc 1 160 36 is_stmt 0 view .LVU66
 265 00ee 3F23     		movs	r3, #63
 266              	.LVL10:
 157:Drivers/STM32H7xx_HAL_Driver/Src/stm32h7xx_hal_dma_ex.c **** 
 267              		.loc 1 157 41 view .LVU67
 268 00f0 A56D     		ldr	r5, [r4, #88]
 269              	.LVL11:
 160:Drivers/STM32H7xx_HAL_Driver/Src/stm32h7xx_hal_dma_ex.c ****       }
 270              		.loc 1 160 9 is_stmt 1 view .LVU68
 160:Drivers/STM32H7xx_HAL_Driver/Src/stm32h7xx_hal_dma_ex.c ****       }
 271              		.loc 1 160 36 is_stmt 0 view .LVU69
 272 00f2 8340     		lsls	r3, r3, r0
 160:Drivers/STM32H7xx_HAL_Driver/Src/stm32h7xx_hal_dma_ex.c ****       }
ARM GAS  /tmp/ccnuvyK9.s 			page 19


 273              		.loc 1 160 27 view .LVU70
 274 00f4 AB60     		str	r3, [r5, #8]
 275              	.LVL12:
 177:Drivers/STM32H7xx_HAL_Driver/Src/stm32h7xx_hal_dma_ex.c ****       {
 276              		.loc 1 177 7 is_stmt 1 view .LVU71
 277              	.L17:
 180:Drivers/STM32H7xx_HAL_Driver/Src/stm32h7xx_hal_dma_ex.c **** 
 278              		.loc 1 180 9 view .LVU72
 279 00f6 069B     		ldr	r3, [sp, #24]
 280 00f8 2046     		mov	r0, r4
 281 00fa FFF7FEFF 		bl	DMA_MultiBufferSetConfig
 282              	.LVL13:
 183:Drivers/STM32H7xx_HAL_Driver/Src/stm32h7xx_hal_dma_ex.c **** 
 283              		.loc 1 183 9 view .LVU73
 185:Drivers/STM32H7xx_HAL_Driver/Src/stm32h7xx_hal_dma_ex.c ****         {
 284              		.loc 1 185 11 is_stmt 0 view .LVU74
 285 00fe E36E     		ldr	r3, [r4, #108]
 183:Drivers/STM32H7xx_HAL_Driver/Src/stm32h7xx_hal_dma_ex.c **** 
 286              		.loc 1 183 46 view .LVU75
 287 0100 D4E91921 		ldrd	r2, r1, [r4, #100]
 288              	.LVL14:
 183:Drivers/STM32H7xx_HAL_Driver/Src/stm32h7xx_hal_dma_ex.c **** 
 289              		.loc 1 183 40 view .LVU76
 290 0104 5160     		str	r1, [r2, #4]
 185:Drivers/STM32H7xx_HAL_Driver/Src/stm32h7xx_hal_dma_ex.c ****         {
 291              		.loc 1 185 9 is_stmt 1 view .LVU77
 185:Drivers/STM32H7xx_HAL_Driver/Src/stm32h7xx_hal_dma_ex.c ****         {
 292              		.loc 1 185 11 is_stmt 0 view .LVU78
 293 0106 13B1     		cbz	r3, .L19
 188:Drivers/STM32H7xx_HAL_Driver/Src/stm32h7xx_hal_dma_ex.c ****         }
 294              		.loc 1 188 11 is_stmt 1 view .LVU79
 188:Drivers/STM32H7xx_HAL_Driver/Src/stm32h7xx_hal_dma_ex.c ****         }
 295              		.loc 1 188 53 is_stmt 0 view .LVU80
 296 0108 D4E91C32 		ldrd	r3, r2, [r4, #112]
 188:Drivers/STM32H7xx_HAL_Driver/Src/stm32h7xx_hal_dma_ex.c ****         }
 297              		.loc 1 188 47 view .LVU81
 298 010c 5A60     		str	r2, [r3, #4]
 299              	.L19:
 193:Drivers/STM32H7xx_HAL_Driver/Src/stm32h7xx_hal_dma_ex.c ****     }
 300              		.loc 1 193 7 is_stmt 1 view .LVU82
 301 010e 2568     		ldr	r5, [r4]
 302              	.L20:
 193:Drivers/STM32H7xx_HAL_Driver/Src/stm32h7xx_hal_dma_ex.c ****     }
 303              		.loc 1 193 7 is_stmt 0 discriminator 30 view .LVU83
 304 0110 2A68     		ldr	r2, [r5]
 122:Drivers/STM32H7xx_HAL_Driver/Src/stm32h7xx_hal_dma_ex.c ****   __IO uint32_t *ifcRegister_Base; /* DMA Stream Interrupt Clear register */
 305              		.loc 1 122 21 discriminator 30 view .LVU84
 306 0112 0020     		movs	r0, #0
 193:Drivers/STM32H7xx_HAL_Driver/Src/stm32h7xx_hal_dma_ex.c ****     }
 307              		.loc 1 193 7 discriminator 30 view .LVU85
 308 0114 42F00102 		orr	r2, r2, #1
 309 0118 2A60     		str	r2, [r5]
 310              	.LVL15:
 205:Drivers/STM32H7xx_HAL_Driver/Src/stm32h7xx_hal_dma_ex.c **** 
 311              		.loc 1 205 1 discriminator 30 view .LVU86
 312 011a F8BD     		pop	{r3, r4, r5, r6, r7, pc}
 313              	.LVL16:
ARM GAS  /tmp/ccnuvyK9.s 			page 20


 314              	.L22:
 138:Drivers/STM32H7xx_HAL_Driver/Src/stm32h7xx_hal_dma_ex.c **** 
 315              		.loc 1 138 5 view .LVU87
 316 011c 0220     		movs	r0, #2
 317              	.LVL17:
 205:Drivers/STM32H7xx_HAL_Driver/Src/stm32h7xx_hal_dma_ex.c **** 
 318              		.loc 1 205 1 view .LVU88
 319 011e F8BD     		pop	{r3, r4, r5, r6, r7, pc}
 320              	.LVL18:
 321              	.L35:
 165:Drivers/STM32H7xx_HAL_Driver/Src/stm32h7xx_hal_dma_ex.c **** 
 322              		.loc 1 165 9 is_stmt 1 view .LVU89
 177:Drivers/STM32H7xx_HAL_Driver/Src/stm32h7xx_hal_dma_ex.c ****       {
 323              		.loc 1 177 10 is_stmt 0 view .LVU90
 324 0120 1F4E     		ldr	r6, .L36+16
 325 0122 2048     		ldr	r0, .L36+20
 326 0124 204F     		ldr	r7, .L36+24
 327 0126 8542     		cmp	r5, r0
 328 0128 18BF     		it	ne
 329 012a B542     		cmpne	r5, r6
 330 012c 00F12800 		add	r0, r0, #40
 165:Drivers/STM32H7xx_HAL_Driver/Src/stm32h7xx_hal_dma_ex.c **** 
 331              		.loc 1 165 57 view .LVU91
 332 0130 D5F800E0 		ldr	lr, [r5]
 177:Drivers/STM32H7xx_HAL_Driver/Src/stm32h7xx_hal_dma_ex.c ****       {
 333              		.loc 1 177 10 view .LVU92
 334 0134 0CBF     		ite	eq
 335 0136 0126     		moveq	r6, #1
 336 0138 0026     		movne	r6, #0
 337 013a 8542     		cmp	r5, r0
 338 013c 08BF     		it	eq
 339 013e 46F00106 		orreq	r6, r6, #1
 340 0142 1430     		adds	r0, r0, #20
 341 0144 8542     		cmp	r5, r0
 342 0146 08BF     		it	eq
 343 0148 46F00106 		orreq	r6, r6, #1
 344 014c 1430     		adds	r0, r0, #20
 345 014e 8542     		cmp	r5, r0
 346 0150 08BF     		it	eq
 347 0152 46F00106 		orreq	r6, r6, #1
 174:Drivers/STM32H7xx_HAL_Driver/Src/stm32h7xx_hal_dma_ex.c ****       }
 348              		.loc 1 174 67 view .LVU93
 349 0156 E06D     		ldr	r0, [r4, #92]
 177:Drivers/STM32H7xx_HAL_Driver/Src/stm32h7xx_hal_dma_ex.c ****       {
 350              		.loc 1 177 10 view .LVU94
 351 0158 BD42     		cmp	r5, r7
 352 015a 08BF     		it	eq
 353 015c 46F00106 		orreq	r6, r6, #1
 165:Drivers/STM32H7xx_HAL_Driver/Src/stm32h7xx_hal_dma_ex.c **** 
 354              		.loc 1 165 57 view .LVU95
 355 0160 48F22007 		movw	r7, #32800
 174:Drivers/STM32H7xx_HAL_Driver/Src/stm32h7xx_hal_dma_ex.c ****       }
 356              		.loc 1 174 67 view .LVU96
 357 0164 00F01F00 		and	r0, r0, #31
 165:Drivers/STM32H7xx_HAL_Driver/Src/stm32h7xx_hal_dma_ex.c **** 
 358              		.loc 1 165 57 view .LVU97
 359 0168 4EEA0707 		orr	r7, lr, r7
ARM GAS  /tmp/ccnuvyK9.s 			page 21


 174:Drivers/STM32H7xx_HAL_Driver/Src/stm32h7xx_hal_dma_ex.c ****       }
 360              		.loc 1 174 45 view .LVU98
 361 016c 0CFA00F0 		lsl	r0, ip, r0
 165:Drivers/STM32H7xx_HAL_Driver/Src/stm32h7xx_hal_dma_ex.c **** 
 362              		.loc 1 165 57 view .LVU99
 363 0170 2F60     		str	r7, [r5]
 168:Drivers/STM32H7xx_HAL_Driver/Src/stm32h7xx_hal_dma_ex.c **** 
 364              		.loc 1 168 9 is_stmt 1 view .LVU100
 168:Drivers/STM32H7xx_HAL_Driver/Src/stm32h7xx_hal_dma_ex.c **** 
 365              		.loc 1 168 59 is_stmt 0 view .LVU101
 366 0172 2B61     		str	r3, [r5, #16]
 171:Drivers/STM32H7xx_HAL_Driver/Src/stm32h7xx_hal_dma_ex.c **** 
 367              		.loc 1 171 9 is_stmt 1 view .LVU102
 177:Drivers/STM32H7xx_HAL_Driver/Src/stm32h7xx_hal_dma_ex.c ****       {
 368              		.loc 1 177 10 is_stmt 0 view .LVU103
 369 0174 0D4B     		ldr	r3, .L36+28
 370              	.LVL19:
 177:Drivers/STM32H7xx_HAL_Driver/Src/stm32h7xx_hal_dma_ex.c ****       {
 371              		.loc 1 177 10 view .LVU104
 372 0176 9D42     		cmp	r5, r3
 373 0178 08BF     		it	eq
 374 017a 46F00106 		orreq	r6, r6, #1
 171:Drivers/STM32H7xx_HAL_Driver/Src/stm32h7xx_hal_dma_ex.c **** 
 375              		.loc 1 171 41 view .LVU105
 376 017e A36D     		ldr	r3, [r4, #88]
 377              	.LVL20:
 174:Drivers/STM32H7xx_HAL_Driver/Src/stm32h7xx_hal_dma_ex.c ****       }
 378              		.loc 1 174 9 is_stmt 1 view .LVU106
 174:Drivers/STM32H7xx_HAL_Driver/Src/stm32h7xx_hal_dma_ex.c ****       }
 379              		.loc 1 174 27 is_stmt 0 view .LVU107
 380 0180 5860     		str	r0, [r3, #4]
 381              	.LVL21:
 177:Drivers/STM32H7xx_HAL_Driver/Src/stm32h7xx_hal_dma_ex.c ****       {
 382              		.loc 1 177 7 is_stmt 1 view .LVU108
 177:Drivers/STM32H7xx_HAL_Driver/Src/stm32h7xx_hal_dma_ex.c ****       {
 383              		.loc 1 177 10 is_stmt 0 view .LVU109
 384 0182 002E     		cmp	r6, #0
 385 0184 B7D1     		bne	.L17
 386 0186 0A4B     		ldr	r3, .L36+32
 387              	.LVL22:
 177:Drivers/STM32H7xx_HAL_Driver/Src/stm32h7xx_hal_dma_ex.c ****       {
 388              		.loc 1 177 10 view .LVU110
 389 0188 9D42     		cmp	r5, r3
 390 018a B4D0     		beq	.L17
 391 018c C0E7     		b	.L20
 392              	.L37:
 393 018e 00BF     		.align	2
 394              	.L36:
 395 0190 40000240 		.word	1073872960
 396 0194 58000240 		.word	1073872984
 397 0198 10000240 		.word	1073872912
 398 019c 28000240 		.word	1073872936
 399 01a0 1C540258 		.word	1476547612
 400 01a4 08540258 		.word	1476547592
 401 01a8 6C540258 		.word	1476547692
 402 01ac 80540258 		.word	1476547712
 403 01b0 94540258 		.word	1476547732
ARM GAS  /tmp/ccnuvyK9.s 			page 22


 404              		.cfi_endproc
 405              	.LFE144:
 407              		.section	.text.HAL_DMAEx_MultiBufferStart_IT,"ax",%progbits
 408              		.align	1
 409              		.p2align 2,,3
 410              		.global	HAL_DMAEx_MultiBufferStart_IT
 411              		.syntax unified
 412              		.thumb
 413              		.thumb_func
 414              		.fpu fpv5-d16
 416              	HAL_DMAEx_MultiBufferStart_IT:
 417              	.LVL23:
 418              	.LFB145:
 218:Drivers/STM32H7xx_HAL_Driver/Src/stm32h7xx_hal_dma_ex.c ****   HAL_StatusTypeDef status = HAL_OK;
 419              		.loc 1 218 1 is_stmt 1 view -0
 420              		.cfi_startproc
 421              		@ args = 4, pretend = 0, frame = 0
 422              		@ frame_needed = 0, uses_anonymous_args = 0
 219:Drivers/STM32H7xx_HAL_Driver/Src/stm32h7xx_hal_dma_ex.c ****   __IO uint32_t *ifcRegister_Base; /* DMA Stream Interrupt Clear register */
 423              		.loc 1 219 3 view .LVU112
 220:Drivers/STM32H7xx_HAL_Driver/Src/stm32h7xx_hal_dma_ex.c **** 
 424              		.loc 1 220 3 view .LVU113
 223:Drivers/STM32H7xx_HAL_Driver/Src/stm32h7xx_hal_dma_ex.c ****   assert_param(IS_DMA_ALL_INSTANCE(hdma->Instance));
 425              		.loc 1 223 3 view .LVU114
 224:Drivers/STM32H7xx_HAL_Driver/Src/stm32h7xx_hal_dma_ex.c **** 
 426              		.loc 1 224 3 view .LVU115
 227:Drivers/STM32H7xx_HAL_Driver/Src/stm32h7xx_hal_dma_ex.c ****   {
 427              		.loc 1 227 3 view .LVU116
 218:Drivers/STM32H7xx_HAL_Driver/Src/stm32h7xx_hal_dma_ex.c ****   HAL_StatusTypeDef status = HAL_OK;
 428              		.loc 1 218 1 is_stmt 0 view .LVU117
 429 0000 F8B5     		push	{r3, r4, r5, r6, r7, lr}
 430              	.LCFI5:
 431              		.cfi_def_cfa_offset 24
 432              		.cfi_offset 3, -24
 433              		.cfi_offset 4, -20
 434              		.cfi_offset 5, -16
 435              		.cfi_offset 6, -12
 436              		.cfi_offset 7, -8
 437              		.cfi_offset 14, -4
 218:Drivers/STM32H7xx_HAL_Driver/Src/stm32h7xx_hal_dma_ex.c ****   HAL_StatusTypeDef status = HAL_OK;
 438              		.loc 1 218 1 view .LVU118
 439 0002 0446     		mov	r4, r0
 227:Drivers/STM32H7xx_HAL_Driver/Src/stm32h7xx_hal_dma_ex.c ****   {
 440              		.loc 1 227 5 view .LVU119
 441 0004 8068     		ldr	r0, [r0, #8]
 442              	.LVL24:
 227:Drivers/STM32H7xx_HAL_Driver/Src/stm32h7xx_hal_dma_ex.c ****   {
 443              		.loc 1 227 5 view .LVU120
 444 0006 8028     		cmp	r0, #128
 445 0008 00F08281 		beq	.L88
 234:Drivers/STM32H7xx_HAL_Driver/Src/stm32h7xx_hal_dma_ex.c **** 
 446              		.loc 1 234 3 is_stmt 1 view .LVU121
 234:Drivers/STM32H7xx_HAL_Driver/Src/stm32h7xx_hal_dma_ex.c **** 
 447              		.loc 1 234 3 view .LVU122
 448 000c 94F83400 		ldrb	r0, [r4, #52]	@ zero_extendqisi2
 449 0010 0128     		cmp	r0, #1
 450 0012 00F00982 		beq	.L64
ARM GAS  /tmp/ccnuvyK9.s 			page 23


 234:Drivers/STM32H7xx_HAL_Driver/Src/stm32h7xx_hal_dma_ex.c **** 
 451              		.loc 1 234 3 discriminator 2 view .LVU123
 452 0016 0120     		movs	r0, #1
 236:Drivers/STM32H7xx_HAL_Driver/Src/stm32h7xx_hal_dma_ex.c ****   {
 453              		.loc 1 236 33 is_stmt 0 discriminator 2 view .LVU124
 454 0018 94F83550 		ldrb	r5, [r4, #53]	@ zero_extendqisi2
 236:Drivers/STM32H7xx_HAL_Driver/Src/stm32h7xx_hal_dma_ex.c ****   {
 455              		.loc 1 236 5 discriminator 2 view .LVU125
 456 001c 8542     		cmp	r5, r0
 236:Drivers/STM32H7xx_HAL_Driver/Src/stm32h7xx_hal_dma_ex.c ****   {
 457              		.loc 1 236 33 discriminator 2 view .LVU126
 458 001e 5FFA85FC 		uxtb	ip, r5
 234:Drivers/STM32H7xx_HAL_Driver/Src/stm32h7xx_hal_dma_ex.c **** 
 459              		.loc 1 234 3 discriminator 2 view .LVU127
 460 0022 84F83400 		strb	r0, [r4, #52]
 234:Drivers/STM32H7xx_HAL_Driver/Src/stm32h7xx_hal_dma_ex.c **** 
 461              		.loc 1 234 3 is_stmt 1 discriminator 2 view .LVU128
 236:Drivers/STM32H7xx_HAL_Driver/Src/stm32h7xx_hal_dma_ex.c ****   {
 462              		.loc 1 236 3 discriminator 2 view .LVU129
 236:Drivers/STM32H7xx_HAL_Driver/Src/stm32h7xx_hal_dma_ex.c ****   {
 463              		.loc 1 236 5 is_stmt 0 discriminator 2 view .LVU130
 464 0026 03D0     		beq	.L89
 335:Drivers/STM32H7xx_HAL_Driver/Src/stm32h7xx_hal_dma_ex.c **** 
 465              		.loc 1 335 5 is_stmt 1 view .LVU131
 335:Drivers/STM32H7xx_HAL_Driver/Src/stm32h7xx_hal_dma_ex.c **** 
 466              		.loc 1 335 21 is_stmt 0 view .LVU132
 467 0028 4FF40063 		mov	r3, #2048
 468              	.LVL25:
 335:Drivers/STM32H7xx_HAL_Driver/Src/stm32h7xx_hal_dma_ex.c **** 
 469              		.loc 1 335 21 view .LVU133
 470 002c 6365     		str	r3, [r4, #84]
 471              	.LVL26:
 338:Drivers/STM32H7xx_HAL_Driver/Src/stm32h7xx_hal_dma_ex.c ****   }
 472              		.loc 1 338 5 is_stmt 1 view .LVU134
 341:Drivers/STM32H7xx_HAL_Driver/Src/stm32h7xx_hal_dma_ex.c **** 
 473              		.loc 1 341 1 is_stmt 0 view .LVU135
 474 002e F8BD     		pop	{r3, r4, r5, r6, r7, pc}
 475              	.LVL27:
 476              	.L89:
 239:Drivers/STM32H7xx_HAL_Driver/Src/stm32h7xx_hal_dma_ex.c **** 
 477              		.loc 1 239 5 is_stmt 1 view .LVU136
 244:Drivers/STM32H7xx_HAL_Driver/Src/stm32h7xx_hal_dma_ex.c ****     {
 478              		.loc 1 244 8 is_stmt 0 view .LVU137
 479 0030 2568     		ldr	r5, [r4]
 480 0032 9E48     		ldr	r0, .L95
 481 0034 9E4E     		ldr	r6, .L95+4
 482 0036 B542     		cmp	r5, r6
 483 0038 18BF     		it	ne
 484 003a 8542     		cmpne	r5, r0
 485 003c 06F11806 		add	r6, r6, #24
 486 0040 0CBF     		ite	eq
 487 0042 0120     		moveq	r0, #1
 488 0044 0020     		movne	r0, #0
 489 0046 B542     		cmp	r5, r6
 490 0048 08BF     		it	eq
 491 004a 40F00100 		orreq	r0, r0, #1
 492 004e 1836     		adds	r6, r6, #24
ARM GAS  /tmp/ccnuvyK9.s 			page 24


 493 0050 B542     		cmp	r5, r6
 494 0052 08BF     		it	eq
 495 0054 40F00100 		orreq	r0, r0, #1
 496 0058 1836     		adds	r6, r6, #24
 497 005a B542     		cmp	r5, r6
 498 005c 08BF     		it	eq
 499 005e 40F00100 		orreq	r0, r0, #1
 500 0062 1836     		adds	r6, r6, #24
 501 0064 B542     		cmp	r5, r6
 502 0066 08BF     		it	eq
 503 0068 40F00100 		orreq	r0, r0, #1
 504 006c 1836     		adds	r6, r6, #24
 505 006e B542     		cmp	r5, r6
 506 0070 08BF     		it	eq
 507 0072 40F00100 		orreq	r0, r0, #1
 508 0076 1836     		adds	r6, r6, #24
 509 0078 B542     		cmp	r5, r6
 510 007a 08BF     		it	eq
 511 007c 40F00100 		orreq	r0, r0, #1
 512 0080 06F55676 		add	r6, r6, #856
 513 0084 B542     		cmp	r5, r6
 514 0086 08BF     		it	eq
 515 0088 40F00100 		orreq	r0, r0, #1
 516 008c 1836     		adds	r6, r6, #24
 517 008e B542     		cmp	r5, r6
 518 0090 08BF     		it	eq
 519 0092 40F00100 		orreq	r0, r0, #1
 520 0096 1836     		adds	r6, r6, #24
 521 0098 B542     		cmp	r5, r6
 522 009a 08BF     		it	eq
 523 009c 40F00100 		orreq	r0, r0, #1
 524 00a0 1836     		adds	r6, r6, #24
 525 00a2 B542     		cmp	r5, r6
 526 00a4 08BF     		it	eq
 527 00a6 40F00100 		orreq	r0, r0, #1
 528 00aa 1836     		adds	r6, r6, #24
 529 00ac B542     		cmp	r5, r6
 530 00ae 08BF     		it	eq
 531 00b0 40F00100 		orreq	r0, r0, #1
 532 00b4 1836     		adds	r6, r6, #24
 533 00b6 B542     		cmp	r5, r6
 534 00b8 08BF     		it	eq
 535 00ba 40F00100 		orreq	r0, r0, #1
 536 00be 1836     		adds	r6, r6, #24
 537 00c0 B542     		cmp	r5, r6
 538 00c2 08BF     		it	eq
 539 00c4 40F00100 		orreq	r0, r0, #1
 239:Drivers/STM32H7xx_HAL_Driver/Src/stm32h7xx_hal_dma_ex.c **** 
 540              		.loc 1 239 17 view .LVU138
 541 00c8 0226     		movs	r6, #2
 542 00ca 84F83560 		strb	r6, [r4, #53]
 242:Drivers/STM32H7xx_HAL_Driver/Src/stm32h7xx_hal_dma_ex.c **** 
 543              		.loc 1 242 5 is_stmt 1 view .LVU139
 242:Drivers/STM32H7xx_HAL_Driver/Src/stm32h7xx_hal_dma_ex.c **** 
 544              		.loc 1 242 21 is_stmt 0 view .LVU140
 545 00ce 0026     		movs	r6, #0
 546 00d0 6665     		str	r6, [r4, #84]
ARM GAS  /tmp/ccnuvyK9.s 			page 25


 244:Drivers/STM32H7xx_HAL_Driver/Src/stm32h7xx_hal_dma_ex.c ****     {
 547              		.loc 1 244 5 is_stmt 1 view .LVU141
 244:Drivers/STM32H7xx_HAL_Driver/Src/stm32h7xx_hal_dma_ex.c ****     {
 548              		.loc 1 244 8 is_stmt 0 view .LVU142
 549 00d2 18B9     		cbnz	r0, .L42
 550 00d4 7748     		ldr	r0, .L95+8
 551 00d6 8542     		cmp	r5, r0
 552 00d8 40F0AD81 		bne	.L90
 553              	.L42:
 247:Drivers/STM32H7xx_HAL_Driver/Src/stm32h7xx_hal_dma_ex.c **** 
 554              		.loc 1 247 7 is_stmt 1 view .LVU143
 247:Drivers/STM32H7xx_HAL_Driver/Src/stm32h7xx_hal_dma_ex.c **** 
 555              		.loc 1 247 52 is_stmt 0 view .LVU144
 556 00dc 2E68     		ldr	r6, [r5]
 256:Drivers/STM32H7xx_HAL_Driver/Src/stm32h7xx_hal_dma_ex.c ****     }
 557              		.loc 1 256 56 view .LVU145
 558 00de E06D     		ldr	r0, [r4, #92]
 247:Drivers/STM32H7xx_HAL_Driver/Src/stm32h7xx_hal_dma_ex.c **** 
 559              		.loc 1 247 52 view .LVU146
 560 00e0 46F48026 		orr	r6, r6, #262144
 256:Drivers/STM32H7xx_HAL_Driver/Src/stm32h7xx_hal_dma_ex.c ****     }
 561              		.loc 1 256 56 view .LVU147
 562 00e4 00F01F00 		and	r0, r0, #31
 247:Drivers/STM32H7xx_HAL_Driver/Src/stm32h7xx_hal_dma_ex.c **** 
 563              		.loc 1 247 52 view .LVU148
 564 00e8 2E60     		str	r6, [r5]
 250:Drivers/STM32H7xx_HAL_Driver/Src/stm32h7xx_hal_dma_ex.c **** 
 565              		.loc 1 250 7 is_stmt 1 view .LVU149
 250:Drivers/STM32H7xx_HAL_Driver/Src/stm32h7xx_hal_dma_ex.c **** 
 566              		.loc 1 250 54 is_stmt 0 view .LVU150
 567 00ea 2B61     		str	r3, [r5, #16]
 253:Drivers/STM32H7xx_HAL_Driver/Src/stm32h7xx_hal_dma_ex.c **** 
 568              		.loc 1 253 7 is_stmt 1 view .LVU151
 256:Drivers/STM32H7xx_HAL_Driver/Src/stm32h7xx_hal_dma_ex.c ****     }
 569              		.loc 1 256 34 is_stmt 0 view .LVU152
 570 00ec 3F23     		movs	r3, #63
 571              	.LVL28:
 253:Drivers/STM32H7xx_HAL_Driver/Src/stm32h7xx_hal_dma_ex.c **** 
 572              		.loc 1 253 39 view .LVU153
 573 00ee A56D     		ldr	r5, [r4, #88]
 574              	.LVL29:
 256:Drivers/STM32H7xx_HAL_Driver/Src/stm32h7xx_hal_dma_ex.c ****     }
 575              		.loc 1 256 7 is_stmt 1 view .LVU154
 256:Drivers/STM32H7xx_HAL_Driver/Src/stm32h7xx_hal_dma_ex.c ****     }
 576              		.loc 1 256 34 is_stmt 0 view .LVU155
 577 00f0 8340     		lsls	r3, r3, r0
 256:Drivers/STM32H7xx_HAL_Driver/Src/stm32h7xx_hal_dma_ex.c ****     }
 578              		.loc 1 256 25 view .LVU156
 579 00f2 AB60     		str	r3, [r5, #8]
 580              	.LVL30:
 581              	.L43:
 274:Drivers/STM32H7xx_HAL_Driver/Src/stm32h7xx_hal_dma_ex.c **** 
 582              		.loc 1 274 5 is_stmt 1 view .LVU157
 583 00f4 069B     		ldr	r3, [sp, #24]
 584 00f6 2046     		mov	r0, r4
 585 00f8 FFF7FEFF 		bl	DMA_MultiBufferSetConfig
 586              	.LVL31:
ARM GAS  /tmp/ccnuvyK9.s 			page 26


 276:Drivers/STM32H7xx_HAL_Driver/Src/stm32h7xx_hal_dma_ex.c ****     {
 587              		.loc 1 276 5 view .LVU158
 276:Drivers/STM32H7xx_HAL_Driver/Src/stm32h7xx_hal_dma_ex.c ****     {
 588              		.loc 1 276 8 is_stmt 0 view .LVU159
 589 00fc 6B49     		ldr	r1, .L95
 590              	.LVL32:
 276:Drivers/STM32H7xx_HAL_Driver/Src/stm32h7xx_hal_dma_ex.c ****     {
 591              		.loc 1 276 8 view .LVU160
 592 00fe 2368     		ldr	r3, [r4]
 593 0100 6B4A     		ldr	r2, .L95+4
 594              	.LVL33:
 276:Drivers/STM32H7xx_HAL_Driver/Src/stm32h7xx_hal_dma_ex.c ****     {
 595              		.loc 1 276 8 view .LVU161
 596 0102 9342     		cmp	r3, r2
 597 0104 18BF     		it	ne
 598 0106 8B42     		cmpne	r3, r1
 599 0108 0CBF     		ite	eq
 600 010a 0121     		moveq	r1, #1
 601 010c 0021     		movne	r1, #0
 602 010e 40F00481 		bne	.L91
 279:Drivers/STM32H7xx_HAL_Driver/Src/stm32h7xx_hal_dma_ex.c **** 
 603              		.loc 1 279 7 is_stmt 1 view .LVU162
 279:Drivers/STM32H7xx_HAL_Driver/Src/stm32h7xx_hal_dma_ex.c **** 
 604              		.loc 1 279 44 is_stmt 0 view .LVU163
 605 0112 D4E91920 		ldrd	r2, r0, [r4, #100]
 279:Drivers/STM32H7xx_HAL_Driver/Src/stm32h7xx_hal_dma_ex.c **** 
 606              		.loc 1 279 38 view .LVU164
 607 0116 5060     		str	r0, [r2, #4]
 281:Drivers/STM32H7xx_HAL_Driver/Src/stm32h7xx_hal_dma_ex.c ****       {
 608              		.loc 1 281 7 is_stmt 1 view .LVU165
 281:Drivers/STM32H7xx_HAL_Driver/Src/stm32h7xx_hal_dma_ex.c ****       {
 609              		.loc 1 281 9 is_stmt 0 view .LVU166
 610 0118 E06E     		ldr	r0, [r4, #108]
 611 011a 10B1     		cbz	r0, .L63
 284:Drivers/STM32H7xx_HAL_Driver/Src/stm32h7xx_hal_dma_ex.c ****       }
 612              		.loc 1 284 9 is_stmt 1 view .LVU167
 284:Drivers/STM32H7xx_HAL_Driver/Src/stm32h7xx_hal_dma_ex.c ****       }
 613              		.loc 1 284 51 is_stmt 0 view .LVU168
 614 011c D4E91C25 		ldrd	r2, r5, [r4, #112]
 284:Drivers/STM32H7xx_HAL_Driver/Src/stm32h7xx_hal_dma_ex.c ****       }
 615              		.loc 1 284 45 view .LVU169
 616 0120 5560     		str	r5, [r2, #4]
 288:Drivers/STM32H7xx_HAL_Driver/Src/stm32h7xx_hal_dma_ex.c ****     {
 617              		.loc 1 288 5 is_stmt 1 view .LVU170
 618              	.L63:
 291:Drivers/STM32H7xx_HAL_Driver/Src/stm32h7xx_hal_dma_ex.c ****       ((DMA_Stream_TypeDef   *)hdma->Instance)->FCR |= DMA_IT_FE;
 619              		.loc 1 291 7 view .LVU171
 620 0122 1A68     		ldr	r2, [r3]
 621 0124 22F01E02 		bic	r2, r2, #30
 622 0128 42F01602 		orr	r2, r2, #22
 623 012c 1A60     		str	r2, [r3]
 292:Drivers/STM32H7xx_HAL_Driver/Src/stm32h7xx_hal_dma_ex.c **** 
 624              		.loc 1 292 7 view .LVU172
 292:Drivers/STM32H7xx_HAL_Driver/Src/stm32h7xx_hal_dma_ex.c **** 
 625              		.loc 1 292 53 is_stmt 0 view .LVU173
 626 012e 5A69     		ldr	r2, [r3, #20]
 627 0130 42F08002 		orr	r2, r2, #128
ARM GAS  /tmp/ccnuvyK9.s 			page 27


 628 0134 5A61     		str	r2, [r3, #20]
 294:Drivers/STM32H7xx_HAL_Driver/Src/stm32h7xx_hal_dma_ex.c ****       {
 629              		.loc 1 294 7 is_stmt 1 view .LVU174
 294:Drivers/STM32H7xx_HAL_Driver/Src/stm32h7xx_hal_dma_ex.c ****       {
 630              		.loc 1 294 9 is_stmt 0 view .LVU175
 631 0136 226C     		ldr	r2, [r4, #64]
 632 0138 002A     		cmp	r2, #0
 633 013a 00F07781 		beq	.L92
 634              	.L50:
 297:Drivers/STM32H7xx_HAL_Driver/Src/stm32h7xx_hal_dma_ex.c ****       }
 635              		.loc 1 297 9 is_stmt 1 view .LVU176
 297:Drivers/STM32H7xx_HAL_Driver/Src/stm32h7xx_hal_dma_ex.c ****       }
 636              		.loc 1 297 55 is_stmt 0 view .LVU177
 637 013e 1A68     		ldr	r2, [r3]
 638 0140 42F00802 		orr	r2, r2, #8
 639 0144 1A60     		str	r2, [r3]
 640              	.L51:
 312:Drivers/STM32H7xx_HAL_Driver/Src/stm32h7xx_hal_dma_ex.c ****     {
 641              		.loc 1 312 5 is_stmt 1 view .LVU178
 312:Drivers/STM32H7xx_HAL_Driver/Src/stm32h7xx_hal_dma_ex.c ****     {
 642              		.loc 1 312 8 is_stmt 0 view .LVU179
 643 0146 0029     		cmp	r1, #0
 644 0148 6DD1     		bne	.L56
 645              	.L52:
 312:Drivers/STM32H7xx_HAL_Driver/Src/stm32h7xx_hal_dma_ex.c ****     {
 646              		.loc 1 312 8 discriminator 2 view .LVU180
 647 014a 5B4A     		ldr	r2, .L95+12
 648 014c 5B48     		ldr	r0, .L95+16
 649 014e 8342     		cmp	r3, r0
 650 0150 18BF     		it	ne
 651 0152 9342     		cmpne	r3, r2
 652 0154 00F13000 		add	r0, r0, #48
 653 0158 0CBF     		ite	eq
 654 015a 0122     		moveq	r2, #1
 655 015c 0022     		movne	r2, #0
 656 015e 8342     		cmp	r3, r0
 657 0160 08BF     		it	eq
 658 0162 42F00102 		orreq	r2, r2, #1
 659 0166 1830     		adds	r0, r0, #24
 660 0168 8342     		cmp	r3, r0
 661 016a 08BF     		it	eq
 662 016c 42F00102 		orreq	r2, r2, #1
 663 0170 1830     		adds	r0, r0, #24
 664 0172 8342     		cmp	r3, r0
 665 0174 08BF     		it	eq
 666 0176 42F00102 		orreq	r2, r2, #1
 667 017a 1830     		adds	r0, r0, #24
 668 017c 8342     		cmp	r3, r0
 669 017e 08BF     		it	eq
 670 0180 42F00102 		orreq	r2, r2, #1
 671 0184 00F55670 		add	r0, r0, #856
 672 0188 8342     		cmp	r3, r0
 673 018a 08BF     		it	eq
 674 018c 42F00102 		orreq	r2, r2, #1
 675 0190 1830     		adds	r0, r0, #24
 676 0192 8342     		cmp	r3, r0
 677 0194 08BF     		it	eq
ARM GAS  /tmp/ccnuvyK9.s 			page 28


 678 0196 42F00102 		orreq	r2, r2, #1
 679 019a 1830     		adds	r0, r0, #24
 680 019c 8342     		cmp	r3, r0
 681 019e 08BF     		it	eq
 682 01a0 42F00102 		orreq	r2, r2, #1
 683 01a4 1830     		adds	r0, r0, #24
 684 01a6 8342     		cmp	r3, r0
 685 01a8 08BF     		it	eq
 686 01aa 42F00102 		orreq	r2, r2, #1
 687 01ae 1830     		adds	r0, r0, #24
 688 01b0 8342     		cmp	r3, r0
 689 01b2 08BF     		it	eq
 690 01b4 42F00102 		orreq	r2, r2, #1
 691 01b8 1830     		adds	r0, r0, #24
 692 01ba 8342     		cmp	r3, r0
 693 01bc 08BF     		it	eq
 694 01be 42F00102 		orreq	r2, r2, #1
 695 01c2 1830     		adds	r0, r0, #24
 696 01c4 8342     		cmp	r3, r0
 697 01c6 08BF     		it	eq
 698 01c8 42F00102 		orreq	r2, r2, #1
 699 01cc 1830     		adds	r0, r0, #24
 700 01ce 8342     		cmp	r3, r0
 701 01d0 08BF     		it	eq
 702 01d2 42F00102 		orreq	r2, r2, #1
 703 01d6 3A48     		ldr	r0, .L95+20
 704 01d8 8342     		cmp	r3, r0
 705 01da 08BF     		it	eq
 706 01dc 42F00102 		orreq	r2, r2, #1
 707 01e0 1430     		adds	r0, r0, #20
 708 01e2 8342     		cmp	r3, r0
 709 01e4 08BF     		it	eq
 710 01e6 42F00102 		orreq	r2, r2, #1
 711 01ea 1430     		adds	r0, r0, #20
 712 01ec 8342     		cmp	r3, r0
 713 01ee 08BF     		it	eq
 714 01f0 42F00102 		orreq	r2, r2, #1
 715 01f4 1430     		adds	r0, r0, #20
 716 01f6 8342     		cmp	r3, r0
 717 01f8 08BF     		it	eq
 718 01fa 42F00102 		orreq	r2, r2, #1
 719 01fe 1430     		adds	r0, r0, #20
 720 0200 8342     		cmp	r3, r0
 721 0202 08BF     		it	eq
 722 0204 42F00102 		orreq	r2, r2, #1
 723 0208 1430     		adds	r0, r0, #20
 724 020a 8342     		cmp	r3, r0
 725 020c 08BF     		it	eq
 726 020e 42F00102 		orreq	r2, r2, #1
 727 0212 1430     		adds	r0, r0, #20
 728 0214 8342     		cmp	r3, r0
 729 0216 08BF     		it	eq
 730 0218 42F00102 		orreq	r2, r2, #1
 731 021c 12B9     		cbnz	r2, .L87
 732 021e 294A     		ldr	r2, .L95+24
 733 0220 9342     		cmp	r3, r2
 734 0222 0FD1     		bne	.L60
ARM GAS  /tmp/ccnuvyK9.s 			page 29


 735              	.L87:
 736 0224 E06E     		ldr	r0, [r4, #108]
 737              	.L56:
 315:Drivers/STM32H7xx_HAL_Driver/Src/stm32h7xx_hal_dma_ex.c ****       {
 738              		.loc 1 315 7 is_stmt 1 view .LVU181
 315:Drivers/STM32H7xx_HAL_Driver/Src/stm32h7xx_hal_dma_ex.c ****       {
 739              		.loc 1 315 15 is_stmt 0 view .LVU182
 740 0226 226E     		ldr	r2, [r4, #96]
 315:Drivers/STM32H7xx_HAL_Driver/Src/stm32h7xx_hal_dma_ex.c ****       {
 741              		.loc 1 315 30 view .LVU183
 742 0228 1468     		ldr	r4, [r2]
 743              	.LVL34:
 315:Drivers/STM32H7xx_HAL_Driver/Src/stm32h7xx_hal_dma_ex.c ****       {
 744              		.loc 1 315 9 view .LVU184
 745 022a E403     		lsls	r4, r4, #15
 746 022c 03D5     		bpl	.L55
 318:Drivers/STM32H7xx_HAL_Driver/Src/stm32h7xx_hal_dma_ex.c ****       }
 747              		.loc 1 318 9 is_stmt 1 view .LVU185
 318:Drivers/STM32H7xx_HAL_Driver/Src/stm32h7xx_hal_dma_ex.c ****       }
 748              		.loc 1 318 34 is_stmt 0 view .LVU186
 749 022e 1468     		ldr	r4, [r2]
 750 0230 44F48074 		orr	r4, r4, #256
 751 0234 1460     		str	r4, [r2]
 752              	.L55:
 321:Drivers/STM32H7xx_HAL_Driver/Src/stm32h7xx_hal_dma_ex.c ****       {
 753              		.loc 1 321 7 is_stmt 1 view .LVU187
 321:Drivers/STM32H7xx_HAL_Driver/Src/stm32h7xx_hal_dma_ex.c ****       {
 754              		.loc 1 321 9 is_stmt 0 view .LVU188
 755 0236 18B1     		cbz	r0, .L59
 325:Drivers/STM32H7xx_HAL_Driver/Src/stm32h7xx_hal_dma_ex.c ****       }
 756              		.loc 1 325 9 is_stmt 1 view .LVU189
 325:Drivers/STM32H7xx_HAL_Driver/Src/stm32h7xx_hal_dma_ex.c ****       }
 757              		.loc 1 325 38 is_stmt 0 view .LVU190
 758 0238 0268     		ldr	r2, [r0]
 759 023a 42F48072 		orr	r2, r2, #256
 760 023e 0260     		str	r2, [r0]
 761              	.L59:
 330:Drivers/STM32H7xx_HAL_Driver/Src/stm32h7xx_hal_dma_ex.c ****   }
 762              		.loc 1 330 5 is_stmt 1 view .LVU191
 763 0240 0029     		cmp	r1, #0
 764 0242 5FD1     		bne	.L57
 765              	.L60:
 330:Drivers/STM32H7xx_HAL_Driver/Src/stm32h7xx_hal_dma_ex.c ****   }
 766              		.loc 1 330 5 is_stmt 0 view .LVU192
 767 0244 1D4A     		ldr	r2, .L95+16
 768 0246 1C4C     		ldr	r4, .L95+12
 769 0248 1F49     		ldr	r1, .L95+28
 770 024a A342     		cmp	r3, r4
 771 024c 18BF     		it	ne
 772 024e 9342     		cmpne	r3, r2
 773 0250 1E48     		ldr	r0, .L95+32
 774 0252 04F16004 		add	r4, r4, #96
 775 0256 0CBF     		ite	eq
 776 0258 0122     		moveq	r2, #1
 777 025a 0022     		movne	r2, #0
 778 025c 8B42     		cmp	r3, r1
 779 025e 08BF     		it	eq
ARM GAS  /tmp/ccnuvyK9.s 			page 30


 780 0260 42F00102 		orreq	r2, r2, #1
 781 0264 3031     		adds	r1, r1, #48
 782 0266 8342     		cmp	r3, r0
 783 0268 08BF     		it	eq
 784 026a 42F00102 		orreq	r2, r2, #1
 785 026e 00F56870 		add	r0, r0, #928
 786 0272 8B42     		cmp	r3, r1
 787 0274 08BF     		it	eq
 788 0276 42F00102 		orreq	r2, r2, #1
 789 027a 01F55C71 		add	r1, r1, #880
 790 027e A342     		cmp	r3, r4
 791 0280 08BF     		it	eq
 792 0282 42F00102 		orreq	r2, r2, #1
 793 0286 04F56874 		add	r4, r4, #928
 794 028a 8B42     		cmp	r3, r1
 795 028c 08BF     		it	eq
 796 028e 42F00102 		orreq	r2, r2, #1
 797 0292 3031     		adds	r1, r1, #48
 798 0294 8342     		cmp	r3, r0
 799 0296 08BF     		it	eq
 800 0298 42F00102 		orreq	r2, r2, #1
 801 029c 6030     		adds	r0, r0, #96
 802 029e 8B42     		cmp	r3, r1
 803 02a0 08BF     		it	eq
 804 02a2 42F00102 		orreq	r2, r2, #1
 805 02a6 3031     		adds	r1, r1, #48
 806 02a8 12E0     		b	.L96
 807              	.L97:
 808 02aa 00BF     		.align	2
 809              	.L95:
 810 02ac 10000240 		.word	1073872912
 811 02b0 28000240 		.word	1073872936
 812 02b4 B8040240 		.word	1073874104
 813 02b8 58000240 		.word	1073872984
 814 02bc 40000240 		.word	1073872960
 815 02c0 08540258 		.word	1476547592
 816 02c4 94540258 		.word	1476547732
 817 02c8 70000240 		.word	1073873008
 818 02cc 88000240 		.word	1073873032
 819              	.L96:
 820 02d0 A342     		cmp	r3, r4
 821 02d2 08BF     		it	eq
 822 02d4 42F00102 		orreq	r2, r2, #1
 823 02d8 8B42     		cmp	r3, r1
 824 02da 08BF     		it	eq
 825 02dc 42F00102 		orreq	r2, r2, #1
 826 02e0 3031     		adds	r1, r1, #48
 827 02e2 8342     		cmp	r3, r0
 828 02e4 08BF     		it	eq
 829 02e6 42F00102 		orreq	r2, r2, #1
 830 02ea 8B42     		cmp	r3, r1
 831 02ec 08BF     		it	eq
 832 02ee 42F00102 		orreq	r2, r2, #1
 833 02f2 3AB9     		cbnz	r2, .L57
 834 02f4 3030     		adds	r0, r0, #48
 835 02f6 181A     		subs	r0, r3, r0
 836 02f8 B0FA80F0 		clz	r0, r0
ARM GAS  /tmp/ccnuvyK9.s 			page 31


 837 02fc 4009     		lsrs	r0, r0, #5
 838 02fe 0028     		cmp	r0, #0
 839 0300 00F0A780 		beq	.L93
 840              	.L57:
 841 0304 1A68     		ldr	r2, [r3]
 219:Drivers/STM32H7xx_HAL_Driver/Src/stm32h7xx_hal_dma_ex.c ****   __IO uint32_t *ifcRegister_Base; /* DMA Stream Interrupt Clear register */
 842              		.loc 1 219 21 view .LVU193
 843 0306 0020     		movs	r0, #0
 330:Drivers/STM32H7xx_HAL_Driver/Src/stm32h7xx_hal_dma_ex.c ****   }
 844              		.loc 1 330 5 view .LVU194
 845 0308 42F00102 		orr	r2, r2, #1
 846 030c 1A60     		str	r2, [r3]
 847              	.LVL35:
 341:Drivers/STM32H7xx_HAL_Driver/Src/stm32h7xx_hal_dma_ex.c **** 
 848              		.loc 1 341 1 view .LVU195
 849 030e F8BD     		pop	{r3, r4, r5, r6, r7, pc}
 850              	.LVL36:
 851              	.L88:
 229:Drivers/STM32H7xx_HAL_Driver/Src/stm32h7xx_hal_dma_ex.c ****     return HAL_ERROR;
 852              		.loc 1 229 5 is_stmt 1 view .LVU196
 229:Drivers/STM32H7xx_HAL_Driver/Src/stm32h7xx_hal_dma_ex.c ****     return HAL_ERROR;
 853              		.loc 1 229 21 is_stmt 0 view .LVU197
 854 0310 4FF48073 		mov	r3, #256
 855              	.LVL37:
 230:Drivers/STM32H7xx_HAL_Driver/Src/stm32h7xx_hal_dma_ex.c ****   }
 856              		.loc 1 230 12 view .LVU198
 857 0314 0120     		movs	r0, #1
 229:Drivers/STM32H7xx_HAL_Driver/Src/stm32h7xx_hal_dma_ex.c ****     return HAL_ERROR;
 858              		.loc 1 229 21 view .LVU199
 859 0316 6365     		str	r3, [r4, #84]
 860              	.LVL38:
 230:Drivers/STM32H7xx_HAL_Driver/Src/stm32h7xx_hal_dma_ex.c ****   }
 861              		.loc 1 230 5 is_stmt 1 view .LVU200
 341:Drivers/STM32H7xx_HAL_Driver/Src/stm32h7xx_hal_dma_ex.c **** 
 862              		.loc 1 341 1 is_stmt 0 view .LVU201
 863 0318 F8BD     		pop	{r3, r4, r5, r6, r7, pc}
 864              	.LVL39:
 865              	.L91:
 276:Drivers/STM32H7xx_HAL_Driver/Src/stm32h7xx_hal_dma_ex.c ****     {
 866              		.loc 1 276 8 discriminator 4 view .LVU202
 867 031a 1832     		adds	r2, r2, #24
 868 031c 5148     		ldr	r0, .L98
 869 031e 524D     		ldr	r5, .L98+4
 870 0320 8342     		cmp	r3, r0
 871 0322 18BF     		it	ne
 872 0324 9342     		cmpne	r3, r2
 873 0326 00F11800 		add	r0, r0, #24
 874 032a 0CBF     		ite	eq
 875 032c 0122     		moveq	r2, #1
 876 032e 0022     		movne	r2, #0
 877 0330 8342     		cmp	r3, r0
 878 0332 08BF     		it	eq
 879 0334 42F00102 		orreq	r2, r2, #1
 880 0338 1830     		adds	r0, r0, #24
 881 033a 8342     		cmp	r3, r0
 882 033c 08BF     		it	eq
 883 033e 42F00102 		orreq	r2, r2, #1
ARM GAS  /tmp/ccnuvyK9.s 			page 32


 884 0342 1830     		adds	r0, r0, #24
 885 0344 8342     		cmp	r3, r0
 886 0346 08BF     		it	eq
 887 0348 42F00102 		orreq	r2, r2, #1
 888 034c 1830     		adds	r0, r0, #24
 889 034e 8342     		cmp	r3, r0
 890 0350 08BF     		it	eq
 891 0352 42F00102 		orreq	r2, r2, #1
 892 0356 00F55670 		add	r0, r0, #856
 893 035a 8342     		cmp	r3, r0
 894 035c 08BF     		it	eq
 895 035e 42F00102 		orreq	r2, r2, #1
 896 0362 1830     		adds	r0, r0, #24
 897 0364 8342     		cmp	r3, r0
 898 0366 08BF     		it	eq
 899 0368 42F00102 		orreq	r2, r2, #1
 900 036c 1830     		adds	r0, r0, #24
 901 036e 8342     		cmp	r3, r0
 902 0370 08BF     		it	eq
 903 0372 42F00102 		orreq	r2, r2, #1
 904 0376 1830     		adds	r0, r0, #24
 905 0378 8342     		cmp	r3, r0
 906 037a 08BF     		it	eq
 907 037c 42F00102 		orreq	r2, r2, #1
 908 0380 1830     		adds	r0, r0, #24
 909 0382 8342     		cmp	r3, r0
 910 0384 08BF     		it	eq
 911 0386 42F00102 		orreq	r2, r2, #1
 912 038a 1830     		adds	r0, r0, #24
 913 038c 8342     		cmp	r3, r0
 914 038e 08BF     		it	eq
 915 0390 42F00102 		orreq	r2, r2, #1
 916 0394 1830     		adds	r0, r0, #24
 917 0396 8342     		cmp	r3, r0
 918 0398 08BF     		it	eq
 919 039a 42F00102 		orreq	r2, r2, #1
 920 039e 1830     		adds	r0, r0, #24
 921 03a0 8342     		cmp	r3, r0
 922 03a2 08BF     		it	eq
 923 03a4 42F00102 		orreq	r2, r2, #1
 924 03a8 3048     		ldr	r0, .L98+8
 925 03aa AB42     		cmp	r3, r5
 926 03ac 18BF     		it	ne
 927 03ae 8342     		cmpne	r3, r0
 928 03b0 05F12805 		add	r5, r5, #40
 929 03b4 0CBF     		ite	eq
 930 03b6 0120     		moveq	r0, #1
 931 03b8 0020     		movne	r0, #0
 932 03ba AB42     		cmp	r3, r5
 933 03bc 08BF     		it	eq
 934 03be 40F00100 		orreq	r0, r0, #1
 935 03c2 1435     		adds	r5, r5, #20
 936 03c4 AB42     		cmp	r3, r5
 937 03c6 08BF     		it	eq
 938 03c8 40F00100 		orreq	r0, r0, #1
 939 03cc 1435     		adds	r5, r5, #20
 940 03ce AB42     		cmp	r3, r5
ARM GAS  /tmp/ccnuvyK9.s 			page 33


 941 03d0 08BF     		it	eq
 942 03d2 40F00100 		orreq	r0, r0, #1
 943 03d6 1435     		adds	r5, r5, #20
 944 03d8 AB42     		cmp	r3, r5
 945 03da 08BF     		it	eq
 946 03dc 40F00100 		orreq	r0, r0, #1
 947 03e0 1435     		adds	r5, r5, #20
 948 03e2 AB42     		cmp	r3, r5
 949 03e4 08BF     		it	eq
 950 03e6 40F00100 		orreq	r0, r0, #1
 951 03ea 1435     		adds	r5, r5, #20
 952 03ec AB42     		cmp	r3, r5
 953 03ee 08BF     		it	eq
 954 03f0 40F00100 		orreq	r0, r0, #1
 955 03f4 00B9     		cbnz	r0, .L45
 956 03f6 52B1     		cbz	r2, .L46
 957              	.L45:
 279:Drivers/STM32H7xx_HAL_Driver/Src/stm32h7xx_hal_dma_ex.c **** 
 958              		.loc 1 279 7 is_stmt 1 view .LVU203
 279:Drivers/STM32H7xx_HAL_Driver/Src/stm32h7xx_hal_dma_ex.c **** 
 959              		.loc 1 279 44 is_stmt 0 view .LVU204
 960 03f8 D4E91905 		ldrd	r0, r5, [r4, #100]
 279:Drivers/STM32H7xx_HAL_Driver/Src/stm32h7xx_hal_dma_ex.c **** 
 961              		.loc 1 279 38 view .LVU205
 962 03fc 4560     		str	r5, [r0, #4]
 281:Drivers/STM32H7xx_HAL_Driver/Src/stm32h7xx_hal_dma_ex.c ****       {
 963              		.loc 1 281 7 is_stmt 1 view .LVU206
 281:Drivers/STM32H7xx_HAL_Driver/Src/stm32h7xx_hal_dma_ex.c ****       {
 964              		.loc 1 281 9 is_stmt 0 view .LVU207
 965 03fe E06E     		ldr	r0, [r4, #108]
 966 0400 10B1     		cbz	r0, .L62
 284:Drivers/STM32H7xx_HAL_Driver/Src/stm32h7xx_hal_dma_ex.c ****       }
 967              		.loc 1 284 9 is_stmt 1 view .LVU208
 284:Drivers/STM32H7xx_HAL_Driver/Src/stm32h7xx_hal_dma_ex.c ****       }
 968              		.loc 1 284 51 is_stmt 0 view .LVU209
 969 0402 D4E91C56 		ldrd	r5, r6, [r4, #112]
 284:Drivers/STM32H7xx_HAL_Driver/Src/stm32h7xx_hal_dma_ex.c ****       }
 970              		.loc 1 284 45 view .LVU210
 971 0406 6E60     		str	r6, [r5, #4]
 288:Drivers/STM32H7xx_HAL_Driver/Src/stm32h7xx_hal_dma_ex.c ****     {
 972              		.loc 1 288 5 is_stmt 1 view .LVU211
 973              	.L62:
 288:Drivers/STM32H7xx_HAL_Driver/Src/stm32h7xx_hal_dma_ex.c ****     {
 974              		.loc 1 288 8 is_stmt 0 discriminator 2 view .LVU212
 975 0408 002A     		cmp	r2, #0
 976 040a 7FF48AAE 		bne	.L63
 977              	.L46:
 303:Drivers/STM32H7xx_HAL_Driver/Src/stm32h7xx_hal_dma_ex.c **** 
 978              		.loc 1 303 7 is_stmt 1 view .LVU213
 979 040e 1A68     		ldr	r2, [r3]
 305:Drivers/STM32H7xx_HAL_Driver/Src/stm32h7xx_hal_dma_ex.c ****       {
 980              		.loc 1 305 9 is_stmt 0 view .LVU214
 981 0410 206C     		ldr	r0, [r4, #64]
 303:Drivers/STM32H7xx_HAL_Driver/Src/stm32h7xx_hal_dma_ex.c **** 
 982              		.loc 1 303 7 view .LVU215
 983 0412 22F00E02 		bic	r2, r2, #14
 984 0416 42F00A02 		orr	r2, r2, #10
ARM GAS  /tmp/ccnuvyK9.s 			page 34


 985 041a 1A60     		str	r2, [r3]
 305:Drivers/STM32H7xx_HAL_Driver/Src/stm32h7xx_hal_dma_ex.c ****       {
 986              		.loc 1 305 7 is_stmt 1 view .LVU216
 305:Drivers/STM32H7xx_HAL_Driver/Src/stm32h7xx_hal_dma_ex.c ****       {
 987              		.loc 1 305 9 is_stmt 0 view .LVU217
 988 041c F0B1     		cbz	r0, .L94
 989              	.L48:
 308:Drivers/STM32H7xx_HAL_Driver/Src/stm32h7xx_hal_dma_ex.c ****       }
 990              		.loc 1 308 9 is_stmt 1 view .LVU218
 308:Drivers/STM32H7xx_HAL_Driver/Src/stm32h7xx_hal_dma_ex.c ****       }
 991              		.loc 1 308 58 is_stmt 0 view .LVU219
 992 041e 1A68     		ldr	r2, [r3]
 993 0420 42F00402 		orr	r2, r2, #4
 994 0424 1A60     		str	r2, [r3]
 995 0426 90E6     		b	.L52
 996              	.LVL40:
 997              	.L64:
 234:Drivers/STM32H7xx_HAL_Driver/Src/stm32h7xx_hal_dma_ex.c **** 
 998              		.loc 1 234 3 view .LVU220
 999 0428 0220     		movs	r0, #2
 1000              	.LVL41:
 341:Drivers/STM32H7xx_HAL_Driver/Src/stm32h7xx_hal_dma_ex.c **** 
 1001              		.loc 1 341 1 view .LVU221
 1002 042a F8BD     		pop	{r3, r4, r5, r6, r7, pc}
 1003              	.LVL42:
 1004              	.L92:
 294:Drivers/STM32H7xx_HAL_Driver/Src/stm32h7xx_hal_dma_ex.c ****       {
 1005              		.loc 1 294 47 discriminator 1 view .LVU222
 1006 042c A26C     		ldr	r2, [r4, #72]
 1007 042e 002A     		cmp	r2, #0
 1008 0430 7FF485AE 		bne	.L50
 1009 0434 87E6     		b	.L51
 1010              	.LVL43:
 1011              	.L90:
 261:Drivers/STM32H7xx_HAL_Driver/Src/stm32h7xx_hal_dma_ex.c **** 
 1012              		.loc 1 261 7 is_stmt 1 view .LVU223
 270:Drivers/STM32H7xx_HAL_Driver/Src/stm32h7xx_hal_dma_ex.c ****     }
 1013              		.loc 1 270 65 is_stmt 0 view .LVU224
 1014 0436 E06D     		ldr	r0, [r4, #92]
 261:Drivers/STM32H7xx_HAL_Driver/Src/stm32h7xx_hal_dma_ex.c **** 
 1015              		.loc 1 261 55 view .LVU225
 1016 0438 48F22006 		movw	r6, #32800
 1017 043c 2F68     		ldr	r7, [r5]
 270:Drivers/STM32H7xx_HAL_Driver/Src/stm32h7xx_hal_dma_ex.c ****     }
 1018              		.loc 1 270 65 view .LVU226
 1019 043e 00F01F00 		and	r0, r0, #31
 261:Drivers/STM32H7xx_HAL_Driver/Src/stm32h7xx_hal_dma_ex.c **** 
 1020              		.loc 1 261 55 view .LVU227
 1021 0442 3E43     		orrs	r6, r6, r7
 270:Drivers/STM32H7xx_HAL_Driver/Src/stm32h7xx_hal_dma_ex.c ****     }
 1022              		.loc 1 270 43 view .LVU228
 1023 0444 0CFA00F0 		lsl	r0, ip, r0
 261:Drivers/STM32H7xx_HAL_Driver/Src/stm32h7xx_hal_dma_ex.c **** 
 1024              		.loc 1 261 55 view .LVU229
 1025 0448 2E60     		str	r6, [r5]
 264:Drivers/STM32H7xx_HAL_Driver/Src/stm32h7xx_hal_dma_ex.c **** 
 1026              		.loc 1 264 7 is_stmt 1 view .LVU230
ARM GAS  /tmp/ccnuvyK9.s 			page 35


 264:Drivers/STM32H7xx_HAL_Driver/Src/stm32h7xx_hal_dma_ex.c **** 
 1027              		.loc 1 264 57 is_stmt 0 view .LVU231
 1028 044a 2B61     		str	r3, [r5, #16]
 267:Drivers/STM32H7xx_HAL_Driver/Src/stm32h7xx_hal_dma_ex.c **** 
 1029              		.loc 1 267 7 is_stmt 1 view .LVU232
 267:Drivers/STM32H7xx_HAL_Driver/Src/stm32h7xx_hal_dma_ex.c **** 
 1030              		.loc 1 267 39 is_stmt 0 view .LVU233
 1031 044c A36D     		ldr	r3, [r4, #88]
 1032              	.LVL44:
 270:Drivers/STM32H7xx_HAL_Driver/Src/stm32h7xx_hal_dma_ex.c ****     }
 1033              		.loc 1 270 7 is_stmt 1 view .LVU234
 270:Drivers/STM32H7xx_HAL_Driver/Src/stm32h7xx_hal_dma_ex.c ****     }
 1034              		.loc 1 270 25 is_stmt 0 view .LVU235
 1035 044e 5860     		str	r0, [r3, #4]
 1036              	.LVL45:
 270:Drivers/STM32H7xx_HAL_Driver/Src/stm32h7xx_hal_dma_ex.c ****     }
 1037              		.loc 1 270 25 view .LVU236
 1038 0450 50E6     		b	.L43
 1039              	.LVL46:
 1040              	.L93:
 330:Drivers/STM32H7xx_HAL_Driver/Src/stm32h7xx_hal_dma_ex.c ****   }
 1041              		.loc 1 330 5 discriminator 30 view .LVU237
 1042 0452 1A68     		ldr	r2, [r3]
 1043 0454 42F00102 		orr	r2, r2, #1
 1044 0458 1A60     		str	r2, [r3]
 1045              	.LVL47:
 341:Drivers/STM32H7xx_HAL_Driver/Src/stm32h7xx_hal_dma_ex.c **** 
 1046              		.loc 1 341 1 discriminator 30 view .LVU238
 1047 045a F8BD     		pop	{r3, r4, r5, r6, r7, pc}
 1048              	.LVL48:
 1049              	.L94:
 305:Drivers/STM32H7xx_HAL_Driver/Src/stm32h7xx_hal_dma_ex.c ****       {
 1050              		.loc 1 305 47 discriminator 1 view .LVU239
 1051 045c A26C     		ldr	r2, [r4, #72]
 1052 045e 002A     		cmp	r2, #0
 1053 0460 DDD1     		bne	.L48
 1054 0462 72E6     		b	.L52
 1055              	.L99:
 1056              		.align	2
 1057              	.L98:
 1058 0464 58000240 		.word	1073872984
 1059 0468 08540258 		.word	1476547592
 1060 046c 1C540258 		.word	1476547612
 1061              		.cfi_endproc
 1062              	.LFE145:
 1064              		.section	.text.HAL_DMAEx_ChangeMemory,"ax",%progbits
 1065              		.align	1
 1066              		.p2align 2,,3
 1067              		.global	HAL_DMAEx_ChangeMemory
 1068              		.syntax unified
 1069              		.thumb
 1070              		.thumb_func
 1071              		.fpu fpv5-d16
 1073              	HAL_DMAEx_ChangeMemory:
 1074              	.LVL49:
 1075              	.LFB146:
 358:Drivers/STM32H7xx_HAL_Driver/Src/stm32h7xx_hal_dma_ex.c ****   if(IS_DMA_STREAM_INSTANCE(hdma->Instance) != 0U) /* DMA1 or DMA2 instance */
ARM GAS  /tmp/ccnuvyK9.s 			page 36


 1076              		.loc 1 358 1 is_stmt 1 view -0
 1077              		.cfi_startproc
 1078              		@ args = 0, pretend = 0, frame = 0
 1079              		@ frame_needed = 0, uses_anonymous_args = 0
 1080              		@ link register save eliminated.
 359:Drivers/STM32H7xx_HAL_Driver/Src/stm32h7xx_hal_dma_ex.c ****   {
 1081              		.loc 1 359 3 view .LVU241
 361:Drivers/STM32H7xx_HAL_Driver/Src/stm32h7xx_hal_dma_ex.c ****     {
 1082              		.loc 1 361 5 view .LVU242
 359:Drivers/STM32H7xx_HAL_Driver/Src/stm32h7xx_hal_dma_ex.c ****   {
 1083              		.loc 1 359 6 is_stmt 0 view .LVU243
 1084 0000 0068     		ldr	r0, [r0]
 1085              	.LVL50:
 358:Drivers/STM32H7xx_HAL_Driver/Src/stm32h7xx_hal_dma_ex.c ****   if(IS_DMA_STREAM_INSTANCE(hdma->Instance) != 0U) /* DMA1 or DMA2 instance */
 1086              		.loc 1 358 1 view .LVU244
 1087 0002 10B4     		push	{r4}
 1088              	.LCFI6:
 1089              		.cfi_def_cfa_offset 4
 1090              		.cfi_offset 4, -4
 361:Drivers/STM32H7xx_HAL_Driver/Src/stm32h7xx_hal_dma_ex.c ****     {
 1091              		.loc 1 361 7 view .LVU245
 1092 0004 22B9     		cbnz	r2, .L106
 377:Drivers/STM32H7xx_HAL_Driver/Src/stm32h7xx_hal_dma_ex.c ****     }
 1093              		.loc 1 377 7 is_stmt 1 view .LVU246
 377:Drivers/STM32H7xx_HAL_Driver/Src/stm32h7xx_hal_dma_ex.c ****     }
 1094              		.loc 1 377 57 is_stmt 0 view .LVU247
 1095 0006 C160     		str	r1, [r0, #12]
 386:Drivers/STM32H7xx_HAL_Driver/Src/stm32h7xx_hal_dma_ex.c **** }
 1096              		.loc 1 386 3 is_stmt 1 view .LVU248
 387:Drivers/STM32H7xx_HAL_Driver/Src/stm32h7xx_hal_dma_ex.c **** 
 1097              		.loc 1 387 1 is_stmt 0 view .LVU249
 1098 0008 0020     		movs	r0, #0
 1099 000a 5DF8044B 		ldr	r4, [sp], #4
 1100              	.LCFI7:
 1101              		.cfi_remember_state
 1102              		.cfi_restore 4
 1103              		.cfi_def_cfa_offset 0
 1104 000e 7047     		bx	lr
 1105              	.L106:
 1106              	.LCFI8:
 1107              		.cfi_restore_state
 382:Drivers/STM32H7xx_HAL_Driver/Src/stm32h7xx_hal_dma_ex.c ****     }
 1108              		.loc 1 382 7 is_stmt 1 view .LVU250
 382:Drivers/STM32H7xx_HAL_Driver/Src/stm32h7xx_hal_dma_ex.c ****     }
 1109              		.loc 1 382 57 is_stmt 0 view .LVU251
 1110 0010 0161     		str	r1, [r0, #16]
 386:Drivers/STM32H7xx_HAL_Driver/Src/stm32h7xx_hal_dma_ex.c **** }
 1111              		.loc 1 386 3 is_stmt 1 view .LVU252
 387:Drivers/STM32H7xx_HAL_Driver/Src/stm32h7xx_hal_dma_ex.c **** 
 1112              		.loc 1 387 1 is_stmt 0 view .LVU253
 1113 0012 0020     		movs	r0, #0
 1114 0014 5DF8044B 		ldr	r4, [sp], #4
 1115              	.LCFI9:
 1116              		.cfi_restore 4
 1117              		.cfi_def_cfa_offset 0
 1118 0018 7047     		bx	lr
 1119              		.cfi_endproc
ARM GAS  /tmp/ccnuvyK9.s 			page 37


 1120              	.LFE146:
 1122 001a 00BF     		.section	.text.HAL_DMAEx_ConfigMuxSync,"ax",%progbits
 1123              		.align	1
 1124              		.p2align 2,,3
 1125              		.global	HAL_DMAEx_ConfigMuxSync
 1126              		.syntax unified
 1127              		.thumb
 1128              		.thumb_func
 1129              		.fpu fpv5-d16
 1131              	HAL_DMAEx_ConfigMuxSync:
 1132              	.LVL51:
 1133              	.LFB147:
 397:Drivers/STM32H7xx_HAL_Driver/Src/stm32h7xx_hal_dma_ex.c ****   uint32_t syncSignalID = 0;
 1134              		.loc 1 397 1 is_stmt 1 view -0
 1135              		.cfi_startproc
 1136              		@ args = 0, pretend = 0, frame = 0
 1137              		@ frame_needed = 0, uses_anonymous_args = 0
 1138              		@ link register save eliminated.
 398:Drivers/STM32H7xx_HAL_Driver/Src/stm32h7xx_hal_dma_ex.c ****   uint32_t syncPolarity = 0;
 1139              		.loc 1 398 3 view .LVU255
 399:Drivers/STM32H7xx_HAL_Driver/Src/stm32h7xx_hal_dma_ex.c **** 
 1140              		.loc 1 399 3 view .LVU256
 402:Drivers/STM32H7xx_HAL_Driver/Src/stm32h7xx_hal_dma_ex.c ****   assert_param(IS_DMAMUX_SYNC_STATE(pSyncConfig->SyncEnable));
 1141              		.loc 1 402 3 view .LVU257
 403:Drivers/STM32H7xx_HAL_Driver/Src/stm32h7xx_hal_dma_ex.c ****   assert_param(IS_DMAMUX_SYNC_EVENT(pSyncConfig->EventEnable));
 1142              		.loc 1 403 3 view .LVU258
 404:Drivers/STM32H7xx_HAL_Driver/Src/stm32h7xx_hal_dma_ex.c ****   assert_param(IS_DMAMUX_SYNC_REQUEST_NUMBER(pSyncConfig->RequestNumber));
 1143              		.loc 1 404 3 view .LVU259
 405:Drivers/STM32H7xx_HAL_Driver/Src/stm32h7xx_hal_dma_ex.c **** 
 1144              		.loc 1 405 3 view .LVU260
 407:Drivers/STM32H7xx_HAL_Driver/Src/stm32h7xx_hal_dma_ex.c ****   {
 1145              		.loc 1 407 3 view .LVU261
 397:Drivers/STM32H7xx_HAL_Driver/Src/stm32h7xx_hal_dma_ex.c ****   uint32_t syncSignalID = 0;
 1146              		.loc 1 397 1 is_stmt 0 view .LVU262
 1147 0000 70B4     		push	{r4, r5, r6}
 1148              	.LCFI10:
 1149              		.cfi_def_cfa_offset 12
 1150              		.cfi_offset 4, -12
 1151              		.cfi_offset 5, -8
 1152              		.cfi_offset 6, -4
 407:Drivers/STM32H7xx_HAL_Driver/Src/stm32h7xx_hal_dma_ex.c ****   {
 1153              		.loc 1 407 17 view .LVU263
 1154 0002 0B7A     		ldrb	r3, [r1, #8]	@ zero_extendqisi2
 397:Drivers/STM32H7xx_HAL_Driver/Src/stm32h7xx_hal_dma_ex.c ****   uint32_t syncSignalID = 0;
 1155              		.loc 1 397 1 view .LVU264
 1156 0004 0246     		mov	r2, r0
 407:Drivers/STM32H7xx_HAL_Driver/Src/stm32h7xx_hal_dma_ex.c ****   {
 1157              		.loc 1 407 5 view .LVU265
 1158 0006 012B     		cmp	r3, #1
 1159 0008 29D0     		beq	.L115
 399:Drivers/STM32H7xx_HAL_Driver/Src/stm32h7xx_hal_dma_ex.c **** 
 1160              		.loc 1 399 12 view .LVU266
 1161 000a 0024     		movs	r4, #0
 398:Drivers/STM32H7xx_HAL_Driver/Src/stm32h7xx_hal_dma_ex.c ****   uint32_t syncPolarity = 0;
 1162              		.loc 1 398 12 view .LVU267
 1163 000c 2546     		mov	r5, r4
 1164              	.LVL52:
ARM GAS  /tmp/ccnuvyK9.s 			page 38


 1165              	.L109:
 424:Drivers/STM32H7xx_HAL_Driver/Src/stm32h7xx_hal_dma_ex.c ****   {
 1166              		.loc 1 424 3 is_stmt 1 view .LVU268
 424:Drivers/STM32H7xx_HAL_Driver/Src/stm32h7xx_hal_dma_ex.c ****   {
 1167              		.loc 1 424 10 is_stmt 0 view .LVU269
 1168 000e 92F83500 		ldrb	r0, [r2, #53]	@ zero_extendqisi2
 1169              	.LVL53:
 424:Drivers/STM32H7xx_HAL_Driver/Src/stm32h7xx_hal_dma_ex.c ****   {
 1170              		.loc 1 424 5 view .LVU270
 1171 0012 0128     		cmp	r0, #1
 1172 0014 1DD1     		bne	.L110
 427:Drivers/STM32H7xx_HAL_Driver/Src/stm32h7xx_hal_dma_ex.c **** 
 1173              		.loc 1 427 5 is_stmt 1 view .LVU271
 427:Drivers/STM32H7xx_HAL_Driver/Src/stm32h7xx_hal_dma_ex.c **** 
 1174              		.loc 1 427 5 view .LVU272
 1175 0016 92F83400 		ldrb	r0, [r2, #52]	@ zero_extendqisi2
 1176 001a 0128     		cmp	r0, #1
 1177 001c 22D0     		beq	.L113
 427:Drivers/STM32H7xx_HAL_Driver/Src/stm32h7xx_hal_dma_ex.c **** 
 1178              		.loc 1 427 5 discriminator 2 view .LVU273
 427:Drivers/STM32H7xx_HAL_Driver/Src/stm32h7xx_hal_dma_ex.c **** 
 1179              		.loc 1 427 5 discriminator 2 view .LVU274
 430:Drivers/STM32H7xx_HAL_Driver/Src/stm32h7xx_hal_dma_ex.c **** 
 1180              		.loc 1 430 5 discriminator 2 view .LVU275
 433:Drivers/STM32H7xx_HAL_Driver/Src/stm32h7xx_hal_dma_ex.c ****                (~DMAMUX_CxCR_DMAREQ_ID) , \
 1181              		.loc 1 433 5 is_stmt 0 discriminator 2 view .LVU276
 1182 001e CE68     		ldr	r6, [r1, #12]
 1183 0020 1B04     		lsls	r3, r3, #16
 430:Drivers/STM32H7xx_HAL_Driver/Src/stm32h7xx_hal_dma_ex.c **** 
 1184              		.loc 1 430 5 discriminator 2 view .LVU277
 1185 0022 106E     		ldr	r0, [r2, #96]
 433:Drivers/STM32H7xx_HAL_Driver/Src/stm32h7xx_hal_dma_ex.c ****                (~DMAMUX_CxCR_DMAREQ_ID) , \
 1186              		.loc 1 433 5 discriminator 2 view .LVU278
 1187 0024 013E     		subs	r6, r6, #1
 1188 0026 43EAC643 		orr	r3, r3, r6, lsl #19
 430:Drivers/STM32H7xx_HAL_Driver/Src/stm32h7xx_hal_dma_ex.c **** 
 1189              		.loc 1 430 5 discriminator 2 view .LVU279
 1190 002a 0668     		ldr	r6, [r0]
 1191 002c 26F48136 		bic	r6, r6, #66048
 1192 0030 0660     		str	r6, [r0]
 433:Drivers/STM32H7xx_HAL_Driver/Src/stm32h7xx_hal_dma_ex.c ****                (~DMAMUX_CxCR_DMAREQ_ID) , \
 1193              		.loc 1 433 5 is_stmt 1 discriminator 2 view .LVU280
 1194 0032 4E7A     		ldrb	r6, [r1, #9]	@ zero_extendqisi2
 1195 0034 0168     		ldr	r1, [r0]
 1196              	.LVL54:
 433:Drivers/STM32H7xx_HAL_Driver/Src/stm32h7xx_hal_dma_ex.c ****                (~DMAMUX_CxCR_DMAREQ_ID) , \
 1197              		.loc 1 433 5 is_stmt 0 discriminator 2 view .LVU281
 1198 0036 C9B2     		uxtb	r1, r1
 1199 0038 0B43     		orrs	r3, r3, r1
 441:Drivers/STM32H7xx_HAL_Driver/Src/stm32h7xx_hal_dma_ex.c **** 
 1200              		.loc 1 441 5 discriminator 2 view .LVU282
 1201 003a 0021     		movs	r1, #0
 433:Drivers/STM32H7xx_HAL_Driver/Src/stm32h7xx_hal_dma_ex.c ****                (~DMAMUX_CxCR_DMAREQ_ID) , \
 1202              		.loc 1 433 5 discriminator 2 view .LVU283
 1203 003c 43EA4623 		orr	r3, r3, r6, lsl #9
 1204 0040 2343     		orrs	r3, r3, r4
 1205 0042 43EA0563 		orr	r3, r3, r5, lsl #24
ARM GAS  /tmp/ccnuvyK9.s 			page 39


 1206 0046 0360     		str	r3, [r0]
 441:Drivers/STM32H7xx_HAL_Driver/Src/stm32h7xx_hal_dma_ex.c **** 
 1207              		.loc 1 441 5 is_stmt 1 discriminator 2 view .LVU284
 441:Drivers/STM32H7xx_HAL_Driver/Src/stm32h7xx_hal_dma_ex.c **** 
 1208              		.loc 1 441 5 discriminator 2 view .LVU285
 443:Drivers/STM32H7xx_HAL_Driver/Src/stm32h7xx_hal_dma_ex.c ****   }
 1209              		.loc 1 443 12 is_stmt 0 discriminator 2 view .LVU286
 1210 0048 0846     		mov	r0, r1
 441:Drivers/STM32H7xx_HAL_Driver/Src/stm32h7xx_hal_dma_ex.c **** 
 1211              		.loc 1 441 5 discriminator 2 view .LVU287
 1212 004a 82F83410 		strb	r1, [r2, #52]
 441:Drivers/STM32H7xx_HAL_Driver/Src/stm32h7xx_hal_dma_ex.c **** 
 1213              		.loc 1 441 5 is_stmt 1 discriminator 2 view .LVU288
 443:Drivers/STM32H7xx_HAL_Driver/Src/stm32h7xx_hal_dma_ex.c ****   }
 1214              		.loc 1 443 5 discriminator 2 view .LVU289
 453:Drivers/STM32H7xx_HAL_Driver/Src/stm32h7xx_hal_dma_ex.c **** 
 1215              		.loc 1 453 1 is_stmt 0 discriminator 2 view .LVU290
 1216 004e 70BC     		pop	{r4, r5, r6}
 1217              	.LCFI11:
 1218              		.cfi_remember_state
 1219              		.cfi_restore 6
 1220              		.cfi_restore 5
 1221              		.cfi_restore 4
 1222              		.cfi_def_cfa_offset 0
 1223              	.LVL55:
 453:Drivers/STM32H7xx_HAL_Driver/Src/stm32h7xx_hal_dma_ex.c **** 
 1224              		.loc 1 453 1 discriminator 2 view .LVU291
 1225 0050 7047     		bx	lr
 1226              	.LVL56:
 1227              	.L110:
 1228              	.LCFI12:
 1229              		.cfi_restore_state
 448:Drivers/STM32H7xx_HAL_Driver/Src/stm32h7xx_hal_dma_ex.c **** 
 1230              		.loc 1 448 5 is_stmt 1 view .LVU292
 448:Drivers/STM32H7xx_HAL_Driver/Src/stm32h7xx_hal_dma_ex.c **** 
 1231              		.loc 1 448 21 is_stmt 0 view .LVU293
 1232 0052 4FF40063 		mov	r3, #2048
 451:Drivers/STM32H7xx_HAL_Driver/Src/stm32h7xx_hal_dma_ex.c ****   }
 1233              		.loc 1 451 12 view .LVU294
 1234 0056 0120     		movs	r0, #1
 453:Drivers/STM32H7xx_HAL_Driver/Src/stm32h7xx_hal_dma_ex.c **** 
 1235              		.loc 1 453 1 view .LVU295
 1236 0058 70BC     		pop	{r4, r5, r6}
 1237              	.LCFI13:
 1238              		.cfi_remember_state
 1239              		.cfi_restore 6
 1240              		.cfi_restore 5
 1241              		.cfi_restore 4
 1242              		.cfi_def_cfa_offset 0
 1243              	.LVL57:
 448:Drivers/STM32H7xx_HAL_Driver/Src/stm32h7xx_hal_dma_ex.c **** 
 1244              		.loc 1 448 21 view .LVU296
 1245 005a 5365     		str	r3, [r2, #84]
 451:Drivers/STM32H7xx_HAL_Driver/Src/stm32h7xx_hal_dma_ex.c ****   }
 1246              		.loc 1 451 5 is_stmt 1 view .LVU297
 453:Drivers/STM32H7xx_HAL_Driver/Src/stm32h7xx_hal_dma_ex.c **** 
 1247              		.loc 1 453 1 is_stmt 0 view .LVU298
ARM GAS  /tmp/ccnuvyK9.s 			page 40


 1248 005c 7047     		bx	lr
 1249              	.LVL58:
 1250              	.L115:
 1251              	.LCFI14:
 1252              		.cfi_restore_state
 409:Drivers/STM32H7xx_HAL_Driver/Src/stm32h7xx_hal_dma_ex.c **** 
 1253              		.loc 1 409 5 is_stmt 1 view .LVU299
 411:Drivers/STM32H7xx_HAL_Driver/Src/stm32h7xx_hal_dma_ex.c ****     {
 1254              		.loc 1 411 5 view .LVU300
 417:Drivers/STM32H7xx_HAL_Driver/Src/stm32h7xx_hal_dma_ex.c ****     }
 1255              		.loc 1 417 7 view .LVU301
 419:Drivers/STM32H7xx_HAL_Driver/Src/stm32h7xx_hal_dma_ex.c ****     syncPolarity = pSyncConfig->SyncPolarity;
 1256              		.loc 1 419 5 view .LVU302
 420:Drivers/STM32H7xx_HAL_Driver/Src/stm32h7xx_hal_dma_ex.c ****   }
 1257              		.loc 1 420 18 is_stmt 0 view .LVU303
 1258 005e D1E90054 		ldrd	r5, r4, [r1]
 1259              	.LVL59:
 420:Drivers/STM32H7xx_HAL_Driver/Src/stm32h7xx_hal_dma_ex.c ****   }
 1260              		.loc 1 420 18 view .LVU304
 1261 0062 D4E7     		b	.L109
 1262              	.LVL60:
 1263              	.L113:
 427:Drivers/STM32H7xx_HAL_Driver/Src/stm32h7xx_hal_dma_ex.c **** 
 1264              		.loc 1 427 5 view .LVU305
 1265 0064 0220     		movs	r0, #2
 453:Drivers/STM32H7xx_HAL_Driver/Src/stm32h7xx_hal_dma_ex.c **** 
 1266              		.loc 1 453 1 view .LVU306
 1267 0066 70BC     		pop	{r4, r5, r6}
 1268              	.LCFI15:
 1269              		.cfi_restore 6
 1270              		.cfi_restore 5
 1271              		.cfi_restore 4
 1272              		.cfi_def_cfa_offset 0
 1273              	.LVL61:
 453:Drivers/STM32H7xx_HAL_Driver/Src/stm32h7xx_hal_dma_ex.c **** 
 1274              		.loc 1 453 1 view .LVU307
 1275 0068 7047     		bx	lr
 1276              		.cfi_endproc
 1277              	.LFE147:
 1279 006a 00BF     		.section	.text.HAL_DMAEx_ConfigMuxRequestGenerator,"ax",%progbits
 1280              		.align	1
 1281              		.p2align 2,,3
 1282              		.global	HAL_DMAEx_ConfigMuxRequestGenerator
 1283              		.syntax unified
 1284              		.thumb
 1285              		.thumb_func
 1286              		.fpu fpv5-d16
 1288              	HAL_DMAEx_ConfigMuxRequestGenerator:
 1289              	.LVL62:
 1290              	.LFB148:
 465:Drivers/STM32H7xx_HAL_Driver/Src/stm32h7xx_hal_dma_ex.c ****   HAL_StatusTypeDef status;
 1291              		.loc 1 465 1 is_stmt 1 view -0
 1292              		.cfi_startproc
 1293              		@ args = 0, pretend = 0, frame = 0
 1294              		@ frame_needed = 0, uses_anonymous_args = 0
 1295              		@ link register save eliminated.
 466:Drivers/STM32H7xx_HAL_Driver/Src/stm32h7xx_hal_dma_ex.c ****   HAL_DMA_StateTypeDef temp_state = hdma->State;
ARM GAS  /tmp/ccnuvyK9.s 			page 41


 1296              		.loc 1 466 3 view .LVU309
 467:Drivers/STM32H7xx_HAL_Driver/Src/stm32h7xx_hal_dma_ex.c **** 
 1297              		.loc 1 467 3 view .LVU310
 465:Drivers/STM32H7xx_HAL_Driver/Src/stm32h7xx_hal_dma_ex.c ****   HAL_StatusTypeDef status;
 1298              		.loc 1 465 1 is_stmt 0 view .LVU311
 1299 0000 0346     		mov	r3, r0
 467:Drivers/STM32H7xx_HAL_Driver/Src/stm32h7xx_hal_dma_ex.c **** 
 1300              		.loc 1 467 24 view .LVU312
 1301 0002 90F83520 		ldrb	r2, [r0, #53]	@ zero_extendqisi2
 488:Drivers/STM32H7xx_HAL_Driver/Src/stm32h7xx_hal_dma_ex.c ****   {
 1302              		.loc 1 488 10 view .LVU313
 1303 0006 C06E     		ldr	r0, [r0, #108]
 1304              	.LVL63:
 470:Drivers/STM32H7xx_HAL_Driver/Src/stm32h7xx_hal_dma_ex.c **** 
 1305              		.loc 1 470 3 is_stmt 1 view .LVU314
 472:Drivers/STM32H7xx_HAL_Driver/Src/stm32h7xx_hal_dma_ex.c ****   {
 1306              		.loc 1 472 3 view .LVU315
 478:Drivers/STM32H7xx_HAL_Driver/Src/stm32h7xx_hal_dma_ex.c ****   }
 1307              		.loc 1 478 5 view .LVU316
 482:Drivers/STM32H7xx_HAL_Driver/Src/stm32h7xx_hal_dma_ex.c ****   assert_param(IS_DMAMUX_REQUEST_GEN_REQUEST_NUMBER(pRequestGeneratorConfig->RequestNumber));
 1308              		.loc 1 482 3 view .LVU317
 483:Drivers/STM32H7xx_HAL_Driver/Src/stm32h7xx_hal_dma_ex.c **** 
 1309              		.loc 1 483 3 view .LVU318
 488:Drivers/STM32H7xx_HAL_Driver/Src/stm32h7xx_hal_dma_ex.c ****   {
 1310              		.loc 1 488 3 view .LVU319
 488:Drivers/STM32H7xx_HAL_Driver/Src/stm32h7xx_hal_dma_ex.c ****   {
 1311              		.loc 1 488 5 is_stmt 0 view .LVU320
 1312 0008 68B1     		cbz	r0, .L130
 496:Drivers/STM32H7xx_HAL_Driver/Src/stm32h7xx_hal_dma_ex.c ****   {
 1313              		.loc 1 496 8 is_stmt 1 view .LVU321
 465:Drivers/STM32H7xx_HAL_Driver/Src/stm32h7xx_hal_dma_ex.c ****   HAL_StatusTypeDef status;
 1314              		.loc 1 465 1 is_stmt 0 view .LVU322
 1315 000a 10B4     		push	{r4}
 1316              	.LCFI16:
 1317              		.cfi_def_cfa_offset 4
 1318              		.cfi_offset 4, -4
 496:Drivers/STM32H7xx_HAL_Driver/Src/stm32h7xx_hal_dma_ex.c ****   {
 1319              		.loc 1 496 35 view .LVU323
 1320 000c 0468     		ldr	r4, [r0]
 496:Drivers/STM32H7xx_HAL_Driver/Src/stm32h7xx_hal_dma_ex.c ****   {
 1321              		.loc 1 496 68 view .LVU324
 1322 000e E403     		lsls	r4, r4, #15
 1323 0010 02D4     		bmi	.L119
 1324 0012 D2B2     		uxtb	r2, r2
 496:Drivers/STM32H7xx_HAL_Driver/Src/stm32h7xx_hal_dma_ex.c ****   {
 1325              		.loc 1 496 68 view .LVU325
 1326 0014 012A     		cmp	r2, #1
 1327 0016 0AD0     		beq	.L131
 1328              	.LVL64:
 1329              	.L119:
 515:Drivers/STM32H7xx_HAL_Driver/Src/stm32h7xx_hal_dma_ex.c **** 
 1330              		.loc 1 515 5 is_stmt 1 view .LVU326
 515:Drivers/STM32H7xx_HAL_Driver/Src/stm32h7xx_hal_dma_ex.c **** 
 1331              		.loc 1 515 21 is_stmt 0 view .LVU327
 1332 0018 4FF40062 		mov	r2, #2048
 521:Drivers/STM32H7xx_HAL_Driver/Src/stm32h7xx_hal_dma_ex.c **** }
 1333              		.loc 1 521 10 view .LVU328
ARM GAS  /tmp/ccnuvyK9.s 			page 42


 1334 001c 0120     		movs	r0, #1
 515:Drivers/STM32H7xx_HAL_Driver/Src/stm32h7xx_hal_dma_ex.c **** 
 1335              		.loc 1 515 21 view .LVU329
 1336 001e 5A65     		str	r2, [r3, #84]
 518:Drivers/STM32H7xx_HAL_Driver/Src/stm32h7xx_hal_dma_ex.c ****   }
 1337              		.loc 1 518 5 is_stmt 1 view .LVU330
 1338              	.LVL65:
 1339              	.L118:
 522:Drivers/STM32H7xx_HAL_Driver/Src/stm32h7xx_hal_dma_ex.c **** 
 1340              		.loc 1 522 1 is_stmt 0 view .LVU331
 1341 0020 5DF8044B 		ldr	r4, [sp], #4
 1342              	.LCFI17:
 1343              		.cfi_restore 4
 1344              		.cfi_def_cfa_offset 0
 1345 0024 7047     		bx	lr
 1346              	.LVL66:
 1347              	.L130:
 491:Drivers/STM32H7xx_HAL_Driver/Src/stm32h7xx_hal_dma_ex.c **** 
 1348              		.loc 1 491 5 is_stmt 1 view .LVU332
 491:Drivers/STM32H7xx_HAL_Driver/Src/stm32h7xx_hal_dma_ex.c **** 
 1349              		.loc 1 491 21 is_stmt 0 view .LVU333
 1350 0026 4022     		movs	r2, #64
 1351              	.LVL67:
 521:Drivers/STM32H7xx_HAL_Driver/Src/stm32h7xx_hal_dma_ex.c **** }
 1352              		.loc 1 521 10 view .LVU334
 1353 0028 0120     		movs	r0, #1
 491:Drivers/STM32H7xx_HAL_Driver/Src/stm32h7xx_hal_dma_ex.c **** 
 1354              		.loc 1 491 21 view .LVU335
 1355 002a 5A65     		str	r2, [r3, #84]
 494:Drivers/STM32H7xx_HAL_Driver/Src/stm32h7xx_hal_dma_ex.c ****   }
 1356              		.loc 1 494 5 is_stmt 1 view .LVU336
 1357              	.LVL68:
 522:Drivers/STM32H7xx_HAL_Driver/Src/stm32h7xx_hal_dma_ex.c **** 
 1358              		.loc 1 522 1 is_stmt 0 view .LVU337
 1359 002c 7047     		bx	lr
 1360              	.LVL69:
 1361              	.L131:
 1362              	.LCFI18:
 1363              		.cfi_def_cfa_offset 4
 1364              		.cfi_offset 4, -4
 501:Drivers/STM32H7xx_HAL_Driver/Src/stm32h7xx_hal_dma_ex.c **** 
 1365              		.loc 1 501 5 is_stmt 1 view .LVU338
 501:Drivers/STM32H7xx_HAL_Driver/Src/stm32h7xx_hal_dma_ex.c **** 
 1366              		.loc 1 501 5 view .LVU339
 1367 002e 93F83420 		ldrb	r2, [r3, #52]	@ zero_extendqisi2
 1368              	.LVL70:
 501:Drivers/STM32H7xx_HAL_Driver/Src/stm32h7xx_hal_dma_ex.c **** 
 1369              		.loc 1 501 5 is_stmt 0 view .LVU340
 1370 0032 012A     		cmp	r2, #1
 1371 0034 0CD0     		beq	.L120
 501:Drivers/STM32H7xx_HAL_Driver/Src/stm32h7xx_hal_dma_ex.c **** 
 1372              		.loc 1 501 5 is_stmt 1 discriminator 2 view .LVU341
 501:Drivers/STM32H7xx_HAL_Driver/Src/stm32h7xx_hal_dma_ex.c **** 
 1373              		.loc 1 501 5 discriminator 2 view .LVU342
 504:Drivers/STM32H7xx_HAL_Driver/Src/stm32h7xx_hal_dma_ex.c ****                                   ((pRequestGeneratorConfig->RequestNumber - 1U) << DMAMUX_RGxCR_GN
 1374              		.loc 1 504 5 discriminator 2 view .LVU343
 505:Drivers/STM32H7xx_HAL_Driver/Src/stm32h7xx_hal_dma_ex.c ****                                   pRequestGeneratorConfig->Polarity;
ARM GAS  /tmp/ccnuvyK9.s 			page 43


 1375              		.loc 1 505 76 is_stmt 0 discriminator 2 view .LVU344
 1376 0036 8C68     		ldr	r4, [r1, #8]
 505:Drivers/STM32H7xx_HAL_Driver/Src/stm32h7xx_hal_dma_ex.c ****                                   pRequestGeneratorConfig->Polarity;
 1377              		.loc 1 505 109 discriminator 2 view .LVU345
 1378 0038 D1E90021 		ldrd	r2, r1, [r1]
 1379              	.LVL71:
 505:Drivers/STM32H7xx_HAL_Driver/Src/stm32h7xx_hal_dma_ex.c ****                                   pRequestGeneratorConfig->Polarity;
 1380              		.loc 1 505 109 discriminator 2 view .LVU346
 1381 003c 0A43     		orrs	r2, r2, r1
 505:Drivers/STM32H7xx_HAL_Driver/Src/stm32h7xx_hal_dma_ex.c ****                                   pRequestGeneratorConfig->Polarity;
 1382              		.loc 1 505 76 discriminator 2 view .LVU347
 1383 003e 611E     		subs	r1, r4, #1
 508:Drivers/STM32H7xx_HAL_Driver/Src/stm32h7xx_hal_dma_ex.c **** 
 1384              		.loc 1 508 5 discriminator 2 view .LVU348
 1385 0040 0024     		movs	r4, #0
 505:Drivers/STM32H7xx_HAL_Driver/Src/stm32h7xx_hal_dma_ex.c ****                                   pRequestGeneratorConfig->Polarity;
 1386              		.loc 1 505 109 discriminator 2 view .LVU349
 1387 0042 42EAC142 		orr	r2, r2, r1, lsl #19
 504:Drivers/STM32H7xx_HAL_Driver/Src/stm32h7xx_hal_dma_ex.c ****                                   ((pRequestGeneratorConfig->RequestNumber - 1U) << DMAMUX_RGxCR_GN
 1388              		.loc 1 504 34 discriminator 2 view .LVU350
 1389 0046 0260     		str	r2, [r0]
 508:Drivers/STM32H7xx_HAL_Driver/Src/stm32h7xx_hal_dma_ex.c **** 
 1390              		.loc 1 508 5 is_stmt 1 discriminator 2 view .LVU351
 508:Drivers/STM32H7xx_HAL_Driver/Src/stm32h7xx_hal_dma_ex.c **** 
 1391              		.loc 1 508 5 discriminator 2 view .LVU352
 510:Drivers/STM32H7xx_HAL_Driver/Src/stm32h7xx_hal_dma_ex.c ****   }
 1392              		.loc 1 510 12 is_stmt 0 discriminator 2 view .LVU353
 1393 0048 2046     		mov	r0, r4
 508:Drivers/STM32H7xx_HAL_Driver/Src/stm32h7xx_hal_dma_ex.c **** 
 1394              		.loc 1 508 5 discriminator 2 view .LVU354
 1395 004a 83F83440 		strb	r4, [r3, #52]
 508:Drivers/STM32H7xx_HAL_Driver/Src/stm32h7xx_hal_dma_ex.c **** 
 1396              		.loc 1 508 5 is_stmt 1 discriminator 2 view .LVU355
 510:Drivers/STM32H7xx_HAL_Driver/Src/stm32h7xx_hal_dma_ex.c ****   }
 1397              		.loc 1 510 5 discriminator 2 view .LVU356
 510:Drivers/STM32H7xx_HAL_Driver/Src/stm32h7xx_hal_dma_ex.c ****   }
 1398              		.loc 1 510 12 is_stmt 0 discriminator 2 view .LVU357
 1399 004e E7E7     		b	.L118
 1400              	.LVL72:
 1401              	.L120:
 501:Drivers/STM32H7xx_HAL_Driver/Src/stm32h7xx_hal_dma_ex.c **** 
 1402              		.loc 1 501 5 view .LVU358
 1403 0050 0220     		movs	r0, #2
 1404 0052 E5E7     		b	.L118
 1405              		.cfi_endproc
 1406              	.LFE148:
 1408              		.section	.text.HAL_DMAEx_EnableMuxRequestGenerator,"ax",%progbits
 1409              		.align	1
 1410              		.p2align 2,,3
 1411              		.global	HAL_DMAEx_EnableMuxRequestGenerator
 1412              		.syntax unified
 1413              		.thumb
 1414              		.thumb_func
 1415              		.fpu fpv5-d16
 1417              	HAL_DMAEx_EnableMuxRequestGenerator:
 1418              	.LVL73:
 1419              	.LFB149:
ARM GAS  /tmp/ccnuvyK9.s 			page 44


 531:Drivers/STM32H7xx_HAL_Driver/Src/stm32h7xx_hal_dma_ex.c ****   /* Check the parameters */
 1420              		.loc 1 531 1 is_stmt 1 view -0
 1421              		.cfi_startproc
 1422              		@ args = 0, pretend = 0, frame = 0
 1423              		@ frame_needed = 0, uses_anonymous_args = 0
 1424              		@ link register save eliminated.
 533:Drivers/STM32H7xx_HAL_Driver/Src/stm32h7xx_hal_dma_ex.c **** 
 1425              		.loc 1 533 3 view .LVU360
 537:Drivers/STM32H7xx_HAL_Driver/Src/stm32h7xx_hal_dma_ex.c ****   {
 1426              		.loc 1 537 3 view .LVU361
 537:Drivers/STM32H7xx_HAL_Driver/Src/stm32h7xx_hal_dma_ex.c ****   {
 1427              		.loc 1 537 11 is_stmt 0 view .LVU362
 1428 0000 90F83530 		ldrb	r3, [r0, #53]	@ zero_extendqisi2
 537:Drivers/STM32H7xx_HAL_Driver/Src/stm32h7xx_hal_dma_ex.c ****   {
 1429              		.loc 1 537 5 view .LVU363
 1430 0004 3BB1     		cbz	r3, .L135
 537:Drivers/STM32H7xx_HAL_Driver/Src/stm32h7xx_hal_dma_ex.c ****   {
 1431              		.loc 1 537 51 discriminator 1 view .LVU364
 1432 0006 C36E     		ldr	r3, [r0, #108]
 537:Drivers/STM32H7xx_HAL_Driver/Src/stm32h7xx_hal_dma_ex.c ****   {
 1433              		.loc 1 537 43 discriminator 1 view .LVU365
 1434 0008 2BB1     		cbz	r3, .L135
 540:Drivers/STM32H7xx_HAL_Driver/Src/stm32h7xx_hal_dma_ex.c **** 
 1435              		.loc 1 540 5 is_stmt 1 view .LVU366
 540:Drivers/STM32H7xx_HAL_Driver/Src/stm32h7xx_hal_dma_ex.c **** 
 1436              		.loc 1 540 34 is_stmt 0 view .LVU367
 1437 000a 1A68     		ldr	r2, [r3]
 542:Drivers/STM32H7xx_HAL_Driver/Src/stm32h7xx_hal_dma_ex.c ****  }
 1438              		.loc 1 542 11 view .LVU368
 1439 000c 0020     		movs	r0, #0
 1440              	.LVL74:
 540:Drivers/STM32H7xx_HAL_Driver/Src/stm32h7xx_hal_dma_ex.c **** 
 1441              		.loc 1 540 34 view .LVU369
 1442 000e 42F48032 		orr	r2, r2, #65536
 1443 0012 1A60     		str	r2, [r3]
 542:Drivers/STM32H7xx_HAL_Driver/Src/stm32h7xx_hal_dma_ex.c ****  }
 1444              		.loc 1 542 4 is_stmt 1 view .LVU370
 542:Drivers/STM32H7xx_HAL_Driver/Src/stm32h7xx_hal_dma_ex.c ****  }
 1445              		.loc 1 542 11 is_stmt 0 view .LVU371
 1446 0014 7047     		bx	lr
 1447              	.LVL75:
 1448              	.L135:
 546:Drivers/STM32H7xx_HAL_Driver/Src/stm32h7xx_hal_dma_ex.c ****  }
 1449              		.loc 1 546 11 view .LVU372
 1450 0016 0120     		movs	r0, #1
 1451              	.LVL76:
 548:Drivers/STM32H7xx_HAL_Driver/Src/stm32h7xx_hal_dma_ex.c **** 
 1452              		.loc 1 548 1 view .LVU373
 1453 0018 7047     		bx	lr
 1454              		.cfi_endproc
 1455              	.LFE149:
 1457 001a 00BF     		.section	.text.HAL_DMAEx_DisableMuxRequestGenerator,"ax",%progbits
 1458              		.align	1
 1459              		.p2align 2,,3
 1460              		.global	HAL_DMAEx_DisableMuxRequestGenerator
 1461              		.syntax unified
 1462              		.thumb
ARM GAS  /tmp/ccnuvyK9.s 			page 45


 1463              		.thumb_func
 1464              		.fpu fpv5-d16
 1466              	HAL_DMAEx_DisableMuxRequestGenerator:
 1467              	.LVL77:
 1468              	.LFB150:
 557:Drivers/STM32H7xx_HAL_Driver/Src/stm32h7xx_hal_dma_ex.c ****   /* Check the parameters */
 1469              		.loc 1 557 1 is_stmt 1 view -0
 1470              		.cfi_startproc
 1471              		@ args = 0, pretend = 0, frame = 0
 1472              		@ frame_needed = 0, uses_anonymous_args = 0
 1473              		@ link register save eliminated.
 559:Drivers/STM32H7xx_HAL_Driver/Src/stm32h7xx_hal_dma_ex.c **** 
 1474              		.loc 1 559 3 view .LVU375
 563:Drivers/STM32H7xx_HAL_Driver/Src/stm32h7xx_hal_dma_ex.c ****   {
 1475              		.loc 1 563 3 view .LVU376
 563:Drivers/STM32H7xx_HAL_Driver/Src/stm32h7xx_hal_dma_ex.c ****   {
 1476              		.loc 1 563 11 is_stmt 0 view .LVU377
 1477 0000 90F83530 		ldrb	r3, [r0, #53]	@ zero_extendqisi2
 563:Drivers/STM32H7xx_HAL_Driver/Src/stm32h7xx_hal_dma_ex.c ****   {
 1478              		.loc 1 563 5 view .LVU378
 1479 0004 3BB1     		cbz	r3, .L139
 563:Drivers/STM32H7xx_HAL_Driver/Src/stm32h7xx_hal_dma_ex.c ****   {
 1480              		.loc 1 563 51 discriminator 1 view .LVU379
 1481 0006 C36E     		ldr	r3, [r0, #108]
 563:Drivers/STM32H7xx_HAL_Driver/Src/stm32h7xx_hal_dma_ex.c ****   {
 1482              		.loc 1 563 43 discriminator 1 view .LVU380
 1483 0008 2BB1     		cbz	r3, .L139
 566:Drivers/STM32H7xx_HAL_Driver/Src/stm32h7xx_hal_dma_ex.c **** 
 1484              		.loc 1 566 5 is_stmt 1 view .LVU381
 566:Drivers/STM32H7xx_HAL_Driver/Src/stm32h7xx_hal_dma_ex.c **** 
 1485              		.loc 1 566 34 is_stmt 0 view .LVU382
 1486 000a 1A68     		ldr	r2, [r3]
 568:Drivers/STM32H7xx_HAL_Driver/Src/stm32h7xx_hal_dma_ex.c ****  }
 1487              		.loc 1 568 11 view .LVU383
 1488 000c 0020     		movs	r0, #0
 1489              	.LVL78:
 566:Drivers/STM32H7xx_HAL_Driver/Src/stm32h7xx_hal_dma_ex.c **** 
 1490              		.loc 1 566 34 view .LVU384
 1491 000e 22F48032 		bic	r2, r2, #65536
 1492 0012 1A60     		str	r2, [r3]
 568:Drivers/STM32H7xx_HAL_Driver/Src/stm32h7xx_hal_dma_ex.c ****  }
 1493              		.loc 1 568 4 is_stmt 1 view .LVU385
 568:Drivers/STM32H7xx_HAL_Driver/Src/stm32h7xx_hal_dma_ex.c ****  }
 1494              		.loc 1 568 11 is_stmt 0 view .LVU386
 1495 0014 7047     		bx	lr
 1496              	.LVL79:
 1497              	.L139:
 572:Drivers/STM32H7xx_HAL_Driver/Src/stm32h7xx_hal_dma_ex.c ****  }
 1498              		.loc 1 572 11 view .LVU387
 1499 0016 0120     		movs	r0, #1
 1500              	.LVL80:
 574:Drivers/STM32H7xx_HAL_Driver/Src/stm32h7xx_hal_dma_ex.c **** 
 1501              		.loc 1 574 1 view .LVU388
 1502 0018 7047     		bx	lr
 1503              		.cfi_endproc
 1504              	.LFE150:
 1506 001a 00BF     		.section	.text.HAL_DMAEx_MUX_IRQHandler,"ax",%progbits
ARM GAS  /tmp/ccnuvyK9.s 			page 46


 1507              		.align	1
 1508              		.p2align 2,,3
 1509              		.global	HAL_DMAEx_MUX_IRQHandler
 1510              		.syntax unified
 1511              		.thumb
 1512              		.thumb_func
 1513              		.fpu fpv5-d16
 1515              	HAL_DMAEx_MUX_IRQHandler:
 1516              	.LVL81:
 1517              	.LFB151:
 583:Drivers/STM32H7xx_HAL_Driver/Src/stm32h7xx_hal_dma_ex.c ****   /* Check for DMAMUX Synchronization overrun */
 1518              		.loc 1 583 1 is_stmt 1 view -0
 1519              		.cfi_startproc
 1520              		@ args = 0, pretend = 0, frame = 0
 1521              		@ frame_needed = 0, uses_anonymous_args = 0
 585:Drivers/STM32H7xx_HAL_Driver/Src/stm32h7xx_hal_dma_ex.c ****   {
 1522              		.loc 1 585 3 view .LVU390
 585:Drivers/STM32H7xx_HAL_Driver/Src/stm32h7xx_hal_dma_ex.c ****   {
 1523              		.loc 1 585 44 is_stmt 0 view .LVU391
 1524 0000 D0E91932 		ldrd	r3, r2, [r0, #100]
 583:Drivers/STM32H7xx_HAL_Driver/Src/stm32h7xx_hal_dma_ex.c ****   /* Check for DMAMUX Synchronization overrun */
 1525              		.loc 1 583 1 view .LVU392
 1526 0004 70B5     		push	{r4, r5, r6, lr}
 1527              	.LCFI19:
 1528              		.cfi_def_cfa_offset 16
 1529              		.cfi_offset 4, -16
 1530              		.cfi_offset 5, -12
 1531              		.cfi_offset 6, -8
 1532              		.cfi_offset 14, -4
 585:Drivers/STM32H7xx_HAL_Driver/Src/stm32h7xx_hal_dma_ex.c ****   {
 1533              		.loc 1 585 32 view .LVU393
 1534 0006 1968     		ldr	r1, [r3]
 583:Drivers/STM32H7xx_HAL_Driver/Src/stm32h7xx_hal_dma_ex.c ****   /* Check for DMAMUX Synchronization overrun */
 1535              		.loc 1 583 1 view .LVU394
 1536 0008 0446     		mov	r4, r0
 585:Drivers/STM32H7xx_HAL_Driver/Src/stm32h7xx_hal_dma_ex.c ****   {
 1537              		.loc 1 585 5 view .LVU395
 1538 000a 1142     		tst	r1, r2
 1539 000c 0CD0     		beq	.L142
 588:Drivers/STM32H7xx_HAL_Driver/Src/stm32h7xx_hal_dma_ex.c **** 
 1540              		.loc 1 588 5 is_stmt 1 view .LVU396
 588:Drivers/STM32H7xx_HAL_Driver/Src/stm32h7xx_hal_dma_ex.c **** 
 1541              		.loc 1 588 9 is_stmt 0 view .LVU397
 1542 000e 056E     		ldr	r5, [r0, #96]
 596:Drivers/STM32H7xx_HAL_Driver/Src/stm32h7xx_hal_dma_ex.c ****     {
 1543              		.loc 1 596 12 view .LVU398
 1544 0010 C66C     		ldr	r6, [r0, #76]
 588:Drivers/STM32H7xx_HAL_Driver/Src/stm32h7xx_hal_dma_ex.c **** 
 1545              		.loc 1 588 30 view .LVU399
 1546 0012 2968     		ldr	r1, [r5]
 1547 0014 21F48071 		bic	r1, r1, #256
 1548 0018 2960     		str	r1, [r5]
 591:Drivers/STM32H7xx_HAL_Driver/Src/stm32h7xx_hal_dma_ex.c **** 
 1549              		.loc 1 591 5 is_stmt 1 view .LVU400
 591:Drivers/STM32H7xx_HAL_Driver/Src/stm32h7xx_hal_dma_ex.c **** 
 1550              		.loc 1 591 36 is_stmt 0 view .LVU401
 1551 001a 5A60     		str	r2, [r3, #4]
ARM GAS  /tmp/ccnuvyK9.s 			page 47


 594:Drivers/STM32H7xx_HAL_Driver/Src/stm32h7xx_hal_dma_ex.c **** 
 1552              		.loc 1 594 5 is_stmt 1 view .LVU402
 594:Drivers/STM32H7xx_HAL_Driver/Src/stm32h7xx_hal_dma_ex.c **** 
 1553              		.loc 1 594 21 is_stmt 0 view .LVU403
 1554 001c 436D     		ldr	r3, [r0, #84]
 1555 001e 43F40073 		orr	r3, r3, #512
 1556 0022 4365     		str	r3, [r0, #84]
 596:Drivers/STM32H7xx_HAL_Driver/Src/stm32h7xx_hal_dma_ex.c ****     {
 1557              		.loc 1 596 5 is_stmt 1 view .LVU404
 596:Drivers/STM32H7xx_HAL_Driver/Src/stm32h7xx_hal_dma_ex.c ****     {
 1558              		.loc 1 596 7 is_stmt 0 view .LVU405
 1559 0024 06B1     		cbz	r6, .L142
 599:Drivers/STM32H7xx_HAL_Driver/Src/stm32h7xx_hal_dma_ex.c ****     }
 1560              		.loc 1 599 7 is_stmt 1 view .LVU406
 1561 0026 B047     		blx	r6
 1562              	.LVL82:
 1563              	.L142:
 603:Drivers/STM32H7xx_HAL_Driver/Src/stm32h7xx_hal_dma_ex.c ****   {
 1564              		.loc 1 603 3 view .LVU407
 603:Drivers/STM32H7xx_HAL_Driver/Src/stm32h7xx_hal_dma_ex.c ****   {
 1565              		.loc 1 603 10 is_stmt 0 view .LVU408
 1566 0028 E36E     		ldr	r3, [r4, #108]
 603:Drivers/STM32H7xx_HAL_Driver/Src/stm32h7xx_hal_dma_ex.c ****   {
 1567              		.loc 1 603 5 view .LVU409
 1568 002a 9BB1     		cbz	r3, .L140
 606:Drivers/STM32H7xx_HAL_Driver/Src/stm32h7xx_hal_dma_ex.c ****     {
 1569              		.loc 1 606 5 is_stmt 1 view .LVU410
 606:Drivers/STM32H7xx_HAL_Driver/Src/stm32h7xx_hal_dma_ex.c ****     {
 1570              		.loc 1 606 50 is_stmt 0 view .LVU411
 1571 002c D4E91C21 		ldrd	r2, r1, [r4, #112]
 606:Drivers/STM32H7xx_HAL_Driver/Src/stm32h7xx_hal_dma_ex.c ****     {
 1572              		.loc 1 606 37 view .LVU412
 1573 0030 1068     		ldr	r0, [r2]
 606:Drivers/STM32H7xx_HAL_Driver/Src/stm32h7xx_hal_dma_ex.c ****     {
 1574              		.loc 1 606 7 view .LVU413
 1575 0032 0842     		tst	r0, r1
 1576 0034 0ED0     		beq	.L140
 609:Drivers/STM32H7xx_HAL_Driver/Src/stm32h7xx_hal_dma_ex.c **** 
 1577              		.loc 1 609 7 is_stmt 1 view .LVU414
 609:Drivers/STM32H7xx_HAL_Driver/Src/stm32h7xx_hal_dma_ex.c **** 
 1578              		.loc 1 609 36 is_stmt 0 view .LVU415
 1579 0036 1868     		ldr	r0, [r3]
 1580 0038 20F48070 		bic	r0, r0, #256
 1581 003c 1860     		str	r0, [r3]
 612:Drivers/STM32H7xx_HAL_Driver/Src/stm32h7xx_hal_dma_ex.c **** 
 1582              		.loc 1 612 7 is_stmt 1 view .LVU416
 612:Drivers/STM32H7xx_HAL_Driver/Src/stm32h7xx_hal_dma_ex.c **** 
 1583              		.loc 1 612 43 is_stmt 0 view .LVU417
 1584 003e 5160     		str	r1, [r2, #4]
 615:Drivers/STM32H7xx_HAL_Driver/Src/stm32h7xx_hal_dma_ex.c **** 
 1585              		.loc 1 615 7 is_stmt 1 view .LVU418
 615:Drivers/STM32H7xx_HAL_Driver/Src/stm32h7xx_hal_dma_ex.c **** 
 1586              		.loc 1 615 23 is_stmt 0 view .LVU419
 1587 0040 636D     		ldr	r3, [r4, #84]
 617:Drivers/STM32H7xx_HAL_Driver/Src/stm32h7xx_hal_dma_ex.c ****       {
 1588              		.loc 1 617 14 view .LVU420
 1589 0042 E26C     		ldr	r2, [r4, #76]
ARM GAS  /tmp/ccnuvyK9.s 			page 48


 615:Drivers/STM32H7xx_HAL_Driver/Src/stm32h7xx_hal_dma_ex.c **** 
 1590              		.loc 1 615 23 view .LVU421
 1591 0044 43F48063 		orr	r3, r3, #1024
 1592 0048 6365     		str	r3, [r4, #84]
 617:Drivers/STM32H7xx_HAL_Driver/Src/stm32h7xx_hal_dma_ex.c ****       {
 1593              		.loc 1 617 7 is_stmt 1 view .LVU422
 617:Drivers/STM32H7xx_HAL_Driver/Src/stm32h7xx_hal_dma_ex.c ****       {
 1594              		.loc 1 617 9 is_stmt 0 view .LVU423
 1595 004a 1AB1     		cbz	r2, .L140
 620:Drivers/STM32H7xx_HAL_Driver/Src/stm32h7xx_hal_dma_ex.c ****       }
 1596              		.loc 1 620 9 is_stmt 1 view .LVU424
 1597 004c 2046     		mov	r0, r4
 624:Drivers/STM32H7xx_HAL_Driver/Src/stm32h7xx_hal_dma_ex.c **** 
 1598              		.loc 1 624 1 is_stmt 0 view .LVU425
 1599 004e BDE87040 		pop	{r4, r5, r6, lr}
 1600              	.LCFI20:
 1601              		.cfi_remember_state
 1602              		.cfi_restore 14
 1603              		.cfi_restore 6
 1604              		.cfi_restore 5
 1605              		.cfi_restore 4
 1606              		.cfi_def_cfa_offset 0
 1607              	.LVL83:
 620:Drivers/STM32H7xx_HAL_Driver/Src/stm32h7xx_hal_dma_ex.c ****       }
 1608              		.loc 1 620 9 view .LVU426
 1609 0052 1047     		bx	r2	@ indirect register sibling call
 1610              	.LVL84:
 1611              	.L140:
 1612              	.LCFI21:
 1613              		.cfi_restore_state
 624:Drivers/STM32H7xx_HAL_Driver/Src/stm32h7xx_hal_dma_ex.c **** 
 1614              		.loc 1 624 1 view .LVU427
 1615 0054 70BD     		pop	{r4, r5, r6, pc}
 624:Drivers/STM32H7xx_HAL_Driver/Src/stm32h7xx_hal_dma_ex.c **** 
 1616              		.loc 1 624 1 view .LVU428
 1617              		.cfi_endproc
 1618              	.LFE151:
 1620 0056 00BF     		.text
 1621              	.Letext0:
 1622              		.file 2 "Drivers/CMSIS/Device/ST/STM32H7xx/Include/stm32h743xx.h"
 1623              		.file 3 "/usr/lib/gcc/arm-none-eabi/10.3.1/include/stdint.h"
 1624              		.file 4 "Drivers/CMSIS/Device/ST/STM32H7xx/Include/stm32h7xx.h"
 1625              		.file 5 "Drivers/STM32H7xx_HAL_Driver/Inc/stm32h7xx_hal_def.h"
 1626              		.file 6 "Drivers/STM32H7xx_HAL_Driver/Inc/stm32h7xx_hal_dma.h"
 1627              		.file 7 "Drivers/STM32H7xx_HAL_Driver/Inc/stm32h7xx_hal_dma_ex.h"
ARM GAS  /tmp/ccnuvyK9.s 			page 49

