ARM GAS  /tmp/ccCnNNF2.s 			page 1


   1              		.cpu cortex-m7
   2              		.eabi_attribute 28, 1
   3              		.eabi_attribute 20, 1
   4              		.eabi_attribute 21, 1
   5              		.eabi_attribute 23, 3
   6              		.eabi_attribute 24, 1
   7              		.eabi_attribute 25, 1
   8              		.eabi_attribute 26, 1
   9              		.eabi_attribute 30, 2
  10              		.eabi_attribute 34, 1
  11              		.eabi_attribute 18, 4
  12              		.file	"usart.c"
  13              		.text
  14              	.Ltext0:
  15              		.cfi_sections	.debug_frame
  16              		.section	.text.MX_USART1_UART_Init,"ax",%progbits
  17              		.align	1
  18              		.p2align 2,,3
  19              		.global	MX_USART1_UART_Init
  20              		.arch armv7e-m
  21              		.syntax unified
  22              		.thumb
  23              		.thumb_func
  24              		.fpu fpv5-d16
  26              	MX_USART1_UART_Init:
  27              	.LFB144:
  28              		.file 1 "Core/Src/usart.c"
   1:Core/Src/usart.c **** /* USER CODE BEGIN Header */
   2:Core/Src/usart.c **** /**
   3:Core/Src/usart.c ****   ******************************************************************************
   4:Core/Src/usart.c ****   * @file    usart.c
   5:Core/Src/usart.c ****   * @brief   This file provides code for the configuration
   6:Core/Src/usart.c ****   *          of the USART instances.
   7:Core/Src/usart.c ****   ******************************************************************************
   8:Core/Src/usart.c ****   * @attention
   9:Core/Src/usart.c ****   *
  10:Core/Src/usart.c ****   * Copyright (c) 2022 STMicroelectronics.
  11:Core/Src/usart.c ****   * All rights reserved.
  12:Core/Src/usart.c ****   *
  13:Core/Src/usart.c ****   * This software is licensed under terms that can be found in the LICENSE file
  14:Core/Src/usart.c ****   * in the root directory of this software component.
  15:Core/Src/usart.c ****   * If no LICENSE file comes with this software, it is provided AS-IS.
  16:Core/Src/usart.c ****   *
  17:Core/Src/usart.c ****   ******************************************************************************
  18:Core/Src/usart.c ****   */
  19:Core/Src/usart.c **** /* USER CODE END Header */
  20:Core/Src/usart.c **** /* Includes ------------------------------------------------------------------*/
  21:Core/Src/usart.c **** #include "usart.h"
  22:Core/Src/usart.c **** 
  23:Core/Src/usart.c **** /* USER CODE BEGIN 0 */
  24:Core/Src/usart.c **** 
  25:Core/Src/usart.c **** /* USER CODE END 0 */
  26:Core/Src/usart.c **** 
  27:Core/Src/usart.c **** UART_HandleTypeDef huart1;
  28:Core/Src/usart.c **** 
  29:Core/Src/usart.c **** /* USART1 init function */
  30:Core/Src/usart.c **** 
ARM GAS  /tmp/ccCnNNF2.s 			page 2


  31:Core/Src/usart.c **** void MX_USART1_UART_Init(void)
  32:Core/Src/usart.c **** {
  29              		.loc 1 32 1 view -0
  30              		.cfi_startproc
  31              		@ args = 0, pretend = 0, frame = 0
  32              		@ frame_needed = 0, uses_anonymous_args = 0
  33:Core/Src/usart.c **** 
  34:Core/Src/usart.c ****   /* USER CODE BEGIN USART1_Init 0 */
  35:Core/Src/usart.c **** 
  36:Core/Src/usart.c ****   /* USER CODE END USART1_Init 0 */
  37:Core/Src/usart.c **** 
  38:Core/Src/usart.c ****   /* USER CODE BEGIN USART1_Init 1 */
  39:Core/Src/usart.c **** 
  40:Core/Src/usart.c ****   /* USER CODE END USART1_Init 1 */
  41:Core/Src/usart.c ****   huart1.Instance = USART1;
  33              		.loc 1 41 3 view .LVU1
  32:Core/Src/usart.c **** 
  34              		.loc 1 32 1 is_stmt 0 view .LVU2
  35 0000 10B5     		push	{r4, lr}
  36              	.LCFI0:
  37              		.cfi_def_cfa_offset 8
  38              		.cfi_offset 4, -8
  39              		.cfi_offset 14, -4
  40              		.loc 1 41 19 view .LVU3
  41 0002 1F48     		ldr	r0, .L21
  42:Core/Src/usart.c ****   huart1.Init.BaudRate = 115200;
  43:Core/Src/usart.c ****   huart1.Init.WordLength = UART_WORDLENGTH_8B;
  42              		.loc 1 43 26 view .LVU4
  43 0004 0023     		movs	r3, #0
  41:Core/Src/usart.c ****   huart1.Init.BaudRate = 115200;
  44              		.loc 1 41 19 view .LVU5
  45 0006 1F4C     		ldr	r4, .L21+4
  42:Core/Src/usart.c ****   huart1.Init.BaudRate = 115200;
  46              		.loc 1 42 24 view .LVU6
  47 0008 4FF4E131 		mov	r1, #115200
  44:Core/Src/usart.c ****   huart1.Init.StopBits = UART_STOPBITS_1;
  45:Core/Src/usart.c ****   huart1.Init.Parity = UART_PARITY_NONE;
  46:Core/Src/usart.c ****   huart1.Init.Mode = UART_MODE_TX_RX;
  48              		.loc 1 46 20 view .LVU7
  49 000c 0C22     		movs	r2, #12
  43:Core/Src/usart.c ****   huart1.Init.StopBits = UART_STOPBITS_1;
  50              		.loc 1 43 26 view .LVU8
  51 000e 8360     		str	r3, [r0, #8]
  42:Core/Src/usart.c ****   huart1.Init.WordLength = UART_WORDLENGTH_8B;
  52              		.loc 1 42 24 view .LVU9
  53 0010 C0E90041 		strd	r4, r1, [r0]
  43:Core/Src/usart.c ****   huart1.Init.StopBits = UART_STOPBITS_1;
  54              		.loc 1 43 3 is_stmt 1 view .LVU10
  44:Core/Src/usart.c ****   huart1.Init.StopBits = UART_STOPBITS_1;
  55              		.loc 1 44 3 view .LVU11
  45:Core/Src/usart.c ****   huart1.Init.Mode = UART_MODE_TX_RX;
  56              		.loc 1 45 22 is_stmt 0 view .LVU12
  57 0014 C0E90333 		strd	r3, r3, [r0, #12]
  58              		.loc 1 46 3 is_stmt 1 view .LVU13
  47:Core/Src/usart.c ****   huart1.Init.HwFlowCtl = UART_HWCONTROL_NONE;
  59              		.loc 1 47 25 is_stmt 0 view .LVU14
  60 0018 C0E90523 		strd	r2, r3, [r0, #20]
ARM GAS  /tmp/ccCnNNF2.s 			page 3


  48:Core/Src/usart.c ****   huart1.Init.OverSampling = UART_OVERSAMPLING_16;
  61              		.loc 1 48 3 is_stmt 1 view .LVU15
  49:Core/Src/usart.c ****   huart1.Init.OneBitSampling = UART_ONE_BIT_SAMPLE_DISABLE;
  62              		.loc 1 49 30 is_stmt 0 view .LVU16
  63 001c C0E90733 		strd	r3, r3, [r0, #28]
  50:Core/Src/usart.c ****   huart1.Init.ClockPrescaler = UART_PRESCALER_DIV1;
  64              		.loc 1 50 3 is_stmt 1 view .LVU17
  51:Core/Src/usart.c ****   huart1.AdvancedInit.AdvFeatureInit = UART_ADVFEATURE_NO_INIT;
  65              		.loc 1 51 38 is_stmt 0 view .LVU18
  66 0020 C0E90933 		strd	r3, r3, [r0, #36]
  52:Core/Src/usart.c ****   if (HAL_UART_Init(&huart1) != HAL_OK)
  67              		.loc 1 52 3 is_stmt 1 view .LVU19
  68              		.loc 1 52 7 is_stmt 0 view .LVU20
  69 0024 FFF7FEFF 		bl	HAL_UART_Init
  70              	.LVL0:
  71              		.loc 1 52 6 view .LVU21
  72 0028 70B9     		cbnz	r0, .L17
  53:Core/Src/usart.c ****   {
  54:Core/Src/usart.c ****     Error_Handler();
  55:Core/Src/usart.c ****   }
  56:Core/Src/usart.c ****   if (HAL_UARTEx_SetTxFifoThreshold(&huart1, UART_TXFIFO_THRESHOLD_1_8) != HAL_OK)
  73              		.loc 1 56 3 is_stmt 1 view .LVU22
  74              		.loc 1 56 7 is_stmt 0 view .LVU23
  75 002a 0021     		movs	r1, #0
  76 002c 1448     		ldr	r0, .L21
  77 002e FFF7FEFF 		bl	HAL_UARTEx_SetTxFifoThreshold
  78              	.LVL1:
  79              		.loc 1 56 6 view .LVU24
  80 0032 88B9     		cbnz	r0, .L18
  81              	.L3:
  57:Core/Src/usart.c ****   {
  58:Core/Src/usart.c ****     Error_Handler();
  59:Core/Src/usart.c ****   }
  60:Core/Src/usart.c ****   if (HAL_UARTEx_SetRxFifoThreshold(&huart1, UART_RXFIFO_THRESHOLD_1_8) != HAL_OK)
  82              		.loc 1 60 3 is_stmt 1 view .LVU25
  83              		.loc 1 60 7 is_stmt 0 view .LVU26
  84 0034 0021     		movs	r1, #0
  85 0036 1248     		ldr	r0, .L21
  86 0038 FFF7FEFF 		bl	HAL_UARTEx_SetRxFifoThreshold
  87              	.LVL2:
  88              		.loc 1 60 6 view .LVU27
  89 003c A0B9     		cbnz	r0, .L19
  90              	.L4:
  61:Core/Src/usart.c ****   {
  62:Core/Src/usart.c ****     Error_Handler();
  63:Core/Src/usart.c ****   }
  64:Core/Src/usart.c ****   if (HAL_UARTEx_DisableFifoMode(&huart1) != HAL_OK)
  91              		.loc 1 64 3 is_stmt 1 view .LVU28
  92              		.loc 1 64 7 is_stmt 0 view .LVU29
  93 003e 1048     		ldr	r0, .L21
  94 0040 FFF7FEFF 		bl	HAL_UARTEx_DisableFifoMode
  95              	.LVL3:
  96              		.loc 1 64 6 view .LVU30
  97 0044 B8B9     		cbnz	r0, .L20
  98              	.L1:
  65:Core/Src/usart.c ****   {
  66:Core/Src/usart.c ****     Error_Handler();
ARM GAS  /tmp/ccCnNNF2.s 			page 4


  67:Core/Src/usart.c ****   }
  68:Core/Src/usart.c ****   /* USER CODE BEGIN USART1_Init 2 */
  69:Core/Src/usart.c **** 
  70:Core/Src/usart.c ****   /* USER CODE END USART1_Init 2 */
  71:Core/Src/usart.c **** 
  72:Core/Src/usart.c **** }
  99              		.loc 1 72 1 view .LVU31
 100 0046 10BD     		pop	{r4, pc}
 101              	.L17:
  54:Core/Src/usart.c ****   }
 102              		.loc 1 54 5 is_stmt 1 view .LVU32
 103 0048 FFF7FEFF 		bl	Error_Handler
 104              	.LVL4:
  56:Core/Src/usart.c ****   {
 105              		.loc 1 56 3 view .LVU33
  56:Core/Src/usart.c ****   {
 106              		.loc 1 56 7 is_stmt 0 view .LVU34
 107 004c 0021     		movs	r1, #0
 108 004e 0C48     		ldr	r0, .L21
 109 0050 FFF7FEFF 		bl	HAL_UARTEx_SetTxFifoThreshold
 110              	.LVL5:
  56:Core/Src/usart.c ****   {
 111              		.loc 1 56 6 view .LVU35
 112 0054 0028     		cmp	r0, #0
 113 0056 EDD0     		beq	.L3
 114              	.L18:
  58:Core/Src/usart.c ****   }
 115              		.loc 1 58 5 is_stmt 1 view .LVU36
 116 0058 FFF7FEFF 		bl	Error_Handler
 117              	.LVL6:
  60:Core/Src/usart.c ****   {
 118              		.loc 1 60 3 view .LVU37
  60:Core/Src/usart.c ****   {
 119              		.loc 1 60 7 is_stmt 0 view .LVU38
 120 005c 0021     		movs	r1, #0
 121 005e 0848     		ldr	r0, .L21
 122 0060 FFF7FEFF 		bl	HAL_UARTEx_SetRxFifoThreshold
 123              	.LVL7:
  60:Core/Src/usart.c ****   {
 124              		.loc 1 60 6 view .LVU39
 125 0064 0028     		cmp	r0, #0
 126 0066 EAD0     		beq	.L4
 127              	.L19:
  62:Core/Src/usart.c ****   }
 128              		.loc 1 62 5 is_stmt 1 view .LVU40
 129 0068 FFF7FEFF 		bl	Error_Handler
 130              	.LVL8:
  64:Core/Src/usart.c ****   {
 131              		.loc 1 64 3 view .LVU41
  64:Core/Src/usart.c ****   {
 132              		.loc 1 64 7 is_stmt 0 view .LVU42
 133 006c 0448     		ldr	r0, .L21
 134 006e FFF7FEFF 		bl	HAL_UARTEx_DisableFifoMode
 135              	.LVL9:
  64:Core/Src/usart.c ****   {
 136              		.loc 1 64 6 view .LVU43
 137 0072 0028     		cmp	r0, #0
ARM GAS  /tmp/ccCnNNF2.s 			page 5


 138 0074 E7D0     		beq	.L1
 139              	.L20:
  66:Core/Src/usart.c ****   }
 140              		.loc 1 66 5 is_stmt 1 view .LVU44
 141              		.loc 1 72 1 is_stmt 0 view .LVU45
 142 0076 BDE81040 		pop	{r4, lr}
 143              	.LCFI1:
 144              		.cfi_restore 14
 145              		.cfi_restore 4
 146              		.cfi_def_cfa_offset 0
  66:Core/Src/usart.c ****   }
 147              		.loc 1 66 5 view .LVU46
 148 007a FFF7FEBF 		b	Error_Handler
 149              	.LVL10:
 150              	.L22:
 151 007e 00BF     		.align	2
 152              	.L21:
 153 0080 00000000 		.word	.LANCHOR0
 154 0084 00100140 		.word	1073811456
 155              		.cfi_endproc
 156              	.LFE144:
 158              		.section	.text.HAL_UART_MspInit,"ax",%progbits
 159              		.align	1
 160              		.p2align 2,,3
 161              		.global	HAL_UART_MspInit
 162              		.syntax unified
 163              		.thumb
 164              		.thumb_func
 165              		.fpu fpv5-d16
 167              	HAL_UART_MspInit:
 168              	.LVL11:
 169              	.LFB145:
  73:Core/Src/usart.c **** 
  74:Core/Src/usart.c **** void HAL_UART_MspInit(UART_HandleTypeDef* uartHandle)
  75:Core/Src/usart.c **** {
 170              		.loc 1 75 1 is_stmt 1 view -0
 171              		.cfi_startproc
 172              		@ args = 0, pretend = 0, frame = 216
 173              		@ frame_needed = 0, uses_anonymous_args = 0
  76:Core/Src/usart.c **** 
  77:Core/Src/usart.c ****   GPIO_InitTypeDef GPIO_InitStruct = {0};
 174              		.loc 1 77 3 view .LVU48
  75:Core/Src/usart.c **** 
 175              		.loc 1 75 1 is_stmt 0 view .LVU49
 176 0000 30B5     		push	{r4, r5, lr}
 177              	.LCFI2:
 178              		.cfi_def_cfa_offset 12
 179              		.cfi_offset 4, -12
 180              		.cfi_offset 5, -8
 181              		.cfi_offset 14, -4
 182 0002 B7B0     		sub	sp, sp, #220
 183              	.LCFI3:
 184              		.cfi_def_cfa_offset 232
 185              		.loc 1 77 20 view .LVU50
 186 0004 0021     		movs	r1, #0
  75:Core/Src/usart.c **** 
 187              		.loc 1 75 1 view .LVU51
ARM GAS  /tmp/ccCnNNF2.s 			page 6


 188 0006 0446     		mov	r4, r0
  78:Core/Src/usart.c ****   RCC_PeriphCLKInitTypeDef PeriphClkInitStruct = {0};
 189              		.loc 1 78 28 view .LVU52
 190 0008 BC22     		movs	r2, #188
 191 000a 07A8     		add	r0, sp, #28
 192              	.LVL12:
  77:Core/Src/usart.c ****   RCC_PeriphCLKInitTypeDef PeriphClkInitStruct = {0};
 193              		.loc 1 77 20 view .LVU53
 194 000c 0691     		str	r1, [sp, #24]
 195              		.loc 1 78 3 is_stmt 1 view .LVU54
  77:Core/Src/usart.c ****   RCC_PeriphCLKInitTypeDef PeriphClkInitStruct = {0};
 196              		.loc 1 77 20 is_stmt 0 view .LVU55
 197 000e CDE90211 		strd	r1, r1, [sp, #8]
 198 0012 CDE90411 		strd	r1, r1, [sp, #16]
 199              		.loc 1 78 28 view .LVU56
 200 0016 FFF7FEFF 		bl	memset
 201              	.LVL13:
  79:Core/Src/usart.c ****   if(uartHandle->Instance==USART1)
 202              		.loc 1 79 3 is_stmt 1 view .LVU57
 203              		.loc 1 79 5 is_stmt 0 view .LVU58
 204 001a 1C4B     		ldr	r3, .L32
 205 001c 2268     		ldr	r2, [r4]
 206 001e 9A42     		cmp	r2, r3
 207 0020 01D0     		beq	.L30
  80:Core/Src/usart.c ****   {
  81:Core/Src/usart.c ****   /* USER CODE BEGIN USART1_MspInit 0 */
  82:Core/Src/usart.c **** 
  83:Core/Src/usart.c ****   /* USER CODE END USART1_MspInit 0 */
  84:Core/Src/usart.c **** 
  85:Core/Src/usart.c ****   /** Initializes the peripherals clock
  86:Core/Src/usart.c ****   */
  87:Core/Src/usart.c ****     PeriphClkInitStruct.PeriphClockSelection = RCC_PERIPHCLK_USART1;
  88:Core/Src/usart.c ****     PeriphClkInitStruct.Usart16ClockSelection = RCC_USART16CLKSOURCE_D2PCLK2;
  89:Core/Src/usart.c ****     if (HAL_RCCEx_PeriphCLKConfig(&PeriphClkInitStruct) != HAL_OK)
  90:Core/Src/usart.c ****     {
  91:Core/Src/usart.c ****       Error_Handler();
  92:Core/Src/usart.c ****     }
  93:Core/Src/usart.c **** 
  94:Core/Src/usart.c ****     /* USART1 clock enable */
  95:Core/Src/usart.c ****     __HAL_RCC_USART1_CLK_ENABLE();
  96:Core/Src/usart.c **** 
  97:Core/Src/usart.c ****     __HAL_RCC_GPIOA_CLK_ENABLE();
  98:Core/Src/usart.c ****     /**USART1 GPIO Configuration
  99:Core/Src/usart.c ****     PA9     ------> USART1_TX
 100:Core/Src/usart.c ****     PA10     ------> USART1_RX
 101:Core/Src/usart.c ****     */
 102:Core/Src/usart.c ****     GPIO_InitStruct.Pin = debug_tx_Pin|debug_rx_Pin;
 103:Core/Src/usart.c ****     GPIO_InitStruct.Mode = GPIO_MODE_AF_PP;
 104:Core/Src/usart.c ****     GPIO_InitStruct.Pull = GPIO_NOPULL;
 105:Core/Src/usart.c ****     GPIO_InitStruct.Speed = GPIO_SPEED_FREQ_LOW;
 106:Core/Src/usart.c ****     GPIO_InitStruct.Alternate = GPIO_AF7_USART1;
 107:Core/Src/usart.c ****     HAL_GPIO_Init(GPIOA, &GPIO_InitStruct);
 108:Core/Src/usart.c **** 
 109:Core/Src/usart.c ****   /* USER CODE BEGIN USART1_MspInit 1 */
 110:Core/Src/usart.c **** 
 111:Core/Src/usart.c ****   /* USER CODE END USART1_MspInit 1 */
 112:Core/Src/usart.c ****   }
ARM GAS  /tmp/ccCnNNF2.s 			page 7


 113:Core/Src/usart.c **** }
 208              		.loc 1 113 1 view .LVU59
 209 0022 37B0     		add	sp, sp, #220
 210              	.LCFI4:
 211              		.cfi_remember_state
 212              		.cfi_def_cfa_offset 12
 213              		@ sp needed
 214 0024 30BD     		pop	{r4, r5, pc}
 215              	.LVL14:
 216              	.L30:
 217              	.LCFI5:
 218              		.cfi_restore_state
  87:Core/Src/usart.c ****     PeriphClkInitStruct.Usart16ClockSelection = RCC_USART16CLKSOURCE_D2PCLK2;
 219              		.loc 1 87 5 is_stmt 1 view .LVU60
  87:Core/Src/usart.c ****     PeriphClkInitStruct.Usart16ClockSelection = RCC_USART16CLKSOURCE_D2PCLK2;
 220              		.loc 1 87 46 is_stmt 0 view .LVU61
 221 0026 0123     		movs	r3, #1
  89:Core/Src/usart.c ****     {
 222              		.loc 1 89 9 view .LVU62
 223 0028 07A8     		add	r0, sp, #28
  87:Core/Src/usart.c ****     PeriphClkInitStruct.Usart16ClockSelection = RCC_USART16CLKSOURCE_D2PCLK2;
 224              		.loc 1 87 46 view .LVU63
 225 002a 0793     		str	r3, [sp, #28]
  88:Core/Src/usart.c ****     if (HAL_RCCEx_PeriphCLKConfig(&PeriphClkInitStruct) != HAL_OK)
 226              		.loc 1 88 5 is_stmt 1 view .LVU64
  89:Core/Src/usart.c ****     {
 227              		.loc 1 89 5 view .LVU65
  89:Core/Src/usart.c ****     {
 228              		.loc 1 89 9 is_stmt 0 view .LVU66
 229 002c FFF7FEFF 		bl	HAL_RCCEx_PeriphCLKConfig
 230              	.LVL15:
  89:Core/Src/usart.c ****     {
 231              		.loc 1 89 8 view .LVU67
 232 0030 40BB     		cbnz	r0, .L31
 233              	.L25:
  95:Core/Src/usart.c **** 
 234              		.loc 1 95 5 is_stmt 1 view .LVU68
 235              	.LBB2:
  95:Core/Src/usart.c **** 
 236              		.loc 1 95 5 view .LVU69
  95:Core/Src/usart.c **** 
 237              		.loc 1 95 5 view .LVU70
 238 0032 174B     		ldr	r3, .L32+4
 239              	.LBE2:
 103:Core/Src/usart.c ****     GPIO_InitStruct.Pull = GPIO_NOPULL;
 240              		.loc 1 103 26 is_stmt 0 view .LVU71
 241 0034 0220     		movs	r0, #2
 104:Core/Src/usart.c ****     GPIO_InitStruct.Speed = GPIO_SPEED_FREQ_LOW;
 242              		.loc 1 104 26 view .LVU72
 243 0036 0024     		movs	r4, #0
 244              	.LVL16:
 102:Core/Src/usart.c ****     GPIO_InitStruct.Mode = GPIO_MODE_AF_PP;
 245              		.loc 1 102 25 view .LVU73
 246 0038 4FF4C065 		mov	r5, #1536
 247              	.LBB3:
  95:Core/Src/usart.c **** 
 248              		.loc 1 95 5 view .LVU74
ARM GAS  /tmp/ccCnNNF2.s 			page 8


 249 003c D3F8F020 		ldr	r2, [r3, #240]
 250              	.LBE3:
 107:Core/Src/usart.c **** 
 251              		.loc 1 107 5 view .LVU75
 252 0040 02A9     		add	r1, sp, #8
 253              	.LBB4:
  95:Core/Src/usart.c **** 
 254              		.loc 1 95 5 view .LVU76
 255 0042 42F01002 		orr	r2, r2, #16
 256 0046 C3F8F020 		str	r2, [r3, #240]
  95:Core/Src/usart.c **** 
 257              		.loc 1 95 5 is_stmt 1 view .LVU77
 258 004a D3F8F020 		ldr	r2, [r3, #240]
 259 004e 02F01002 		and	r2, r2, #16
 260 0052 0092     		str	r2, [sp]
  95:Core/Src/usart.c **** 
 261              		.loc 1 95 5 view .LVU78
 262 0054 009A     		ldr	r2, [sp]
 263              	.LBE4:
  95:Core/Src/usart.c **** 
 264              		.loc 1 95 5 view .LVU79
  97:Core/Src/usart.c ****     /**USART1 GPIO Configuration
 265              		.loc 1 97 5 view .LVU80
 266              	.LBB5:
  97:Core/Src/usart.c ****     /**USART1 GPIO Configuration
 267              		.loc 1 97 5 view .LVU81
  97:Core/Src/usart.c ****     /**USART1 GPIO Configuration
 268              		.loc 1 97 5 view .LVU82
 269 0056 D3F8E020 		ldr	r2, [r3, #224]
 270 005a 42F00102 		orr	r2, r2, #1
 271 005e C3F8E020 		str	r2, [r3, #224]
  97:Core/Src/usart.c ****     /**USART1 GPIO Configuration
 272              		.loc 1 97 5 view .LVU83
 273              	.LBE5:
 106:Core/Src/usart.c ****     HAL_GPIO_Init(GPIOA, &GPIO_InitStruct);
 274              		.loc 1 106 31 is_stmt 0 view .LVU84
 275 0062 0722     		movs	r2, #7
 276              	.LBB6:
  97:Core/Src/usart.c ****     /**USART1 GPIO Configuration
 277              		.loc 1 97 5 view .LVU85
 278 0064 D3F8E030 		ldr	r3, [r3, #224]
 279              	.LBE6:
 103:Core/Src/usart.c ****     GPIO_InitStruct.Pull = GPIO_NOPULL;
 280              		.loc 1 103 26 view .LVU86
 281 0068 0390     		str	r0, [sp, #12]
 282              	.LBB7:
  97:Core/Src/usart.c ****     /**USART1 GPIO Configuration
 283              		.loc 1 97 5 view .LVU87
 284 006a 03F00103 		and	r3, r3, #1
 285              	.LBE7:
 107:Core/Src/usart.c **** 
 286              		.loc 1 107 5 view .LVU88
 287 006e 0948     		ldr	r0, .L32+8
 102:Core/Src/usart.c ****     GPIO_InitStruct.Mode = GPIO_MODE_AF_PP;
 288              		.loc 1 102 25 view .LVU89
 289 0070 0295     		str	r5, [sp, #8]
 290              	.LBB8:
ARM GAS  /tmp/ccCnNNF2.s 			page 9


  97:Core/Src/usart.c ****     /**USART1 GPIO Configuration
 291              		.loc 1 97 5 view .LVU90
 292 0072 0193     		str	r3, [sp, #4]
  97:Core/Src/usart.c ****     /**USART1 GPIO Configuration
 293              		.loc 1 97 5 is_stmt 1 view .LVU91
 294 0074 019B     		ldr	r3, [sp, #4]
 295              	.LBE8:
  97:Core/Src/usart.c ****     /**USART1 GPIO Configuration
 296              		.loc 1 97 5 view .LVU92
 102:Core/Src/usart.c ****     GPIO_InitStruct.Mode = GPIO_MODE_AF_PP;
 297              		.loc 1 102 5 view .LVU93
 103:Core/Src/usart.c ****     GPIO_InitStruct.Pull = GPIO_NOPULL;
 298              		.loc 1 103 5 view .LVU94
 104:Core/Src/usart.c ****     GPIO_InitStruct.Speed = GPIO_SPEED_FREQ_LOW;
 299              		.loc 1 104 5 view .LVU95
 106:Core/Src/usart.c ****     HAL_GPIO_Init(GPIOA, &GPIO_InitStruct);
 300              		.loc 1 106 31 is_stmt 0 view .LVU96
 301 0076 0692     		str	r2, [sp, #24]
 105:Core/Src/usart.c ****     GPIO_InitStruct.Alternate = GPIO_AF7_USART1;
 302              		.loc 1 105 27 view .LVU97
 303 0078 CDE90444 		strd	r4, r4, [sp, #16]
 106:Core/Src/usart.c ****     HAL_GPIO_Init(GPIOA, &GPIO_InitStruct);
 304              		.loc 1 106 5 is_stmt 1 view .LVU98
 107:Core/Src/usart.c **** 
 305              		.loc 1 107 5 view .LVU99
 306 007c FFF7FEFF 		bl	HAL_GPIO_Init
 307              	.LVL17:
 308              		.loc 1 113 1 is_stmt 0 view .LVU100
 309 0080 37B0     		add	sp, sp, #220
 310              	.LCFI6:
 311              		.cfi_remember_state
 312              		.cfi_def_cfa_offset 12
 313              		@ sp needed
 314 0082 30BD     		pop	{r4, r5, pc}
 315              	.LVL18:
 316              	.L31:
 317              	.LCFI7:
 318              		.cfi_restore_state
  91:Core/Src/usart.c ****     }
 319              		.loc 1 91 7 is_stmt 1 view .LVU101
 320 0084 FFF7FEFF 		bl	Error_Handler
 321              	.LVL19:
 322 0088 D3E7     		b	.L25
 323              	.L33:
 324 008a 00BF     		.align	2
 325              	.L32:
 326 008c 00100140 		.word	1073811456
 327 0090 00440258 		.word	1476543488
 328 0094 00000258 		.word	1476526080
 329              		.cfi_endproc
 330              	.LFE145:
 332              		.section	.text.HAL_UART_MspDeInit,"ax",%progbits
 333              		.align	1
 334              		.p2align 2,,3
 335              		.global	HAL_UART_MspDeInit
 336              		.syntax unified
 337              		.thumb
ARM GAS  /tmp/ccCnNNF2.s 			page 10


 338              		.thumb_func
 339              		.fpu fpv5-d16
 341              	HAL_UART_MspDeInit:
 342              	.LVL20:
 343              	.LFB146:
 114:Core/Src/usart.c **** 
 115:Core/Src/usart.c **** void HAL_UART_MspDeInit(UART_HandleTypeDef* uartHandle)
 116:Core/Src/usart.c **** {
 344              		.loc 1 116 1 view -0
 345              		.cfi_startproc
 346              		@ args = 0, pretend = 0, frame = 0
 347              		@ frame_needed = 0, uses_anonymous_args = 0
 348              		@ link register save eliminated.
 117:Core/Src/usart.c **** 
 118:Core/Src/usart.c ****   if(uartHandle->Instance==USART1)
 349              		.loc 1 118 3 view .LVU103
 350              		.loc 1 118 5 is_stmt 0 view .LVU104
 351 0000 084B     		ldr	r3, .L37
 352 0002 0268     		ldr	r2, [r0]
 353 0004 9A42     		cmp	r2, r3
 354 0006 00D0     		beq	.L36
 119:Core/Src/usart.c ****   {
 120:Core/Src/usart.c ****   /* USER CODE BEGIN USART1_MspDeInit 0 */
 121:Core/Src/usart.c **** 
 122:Core/Src/usart.c ****   /* USER CODE END USART1_MspDeInit 0 */
 123:Core/Src/usart.c ****     /* Peripheral clock disable */
 124:Core/Src/usart.c ****     __HAL_RCC_USART1_CLK_DISABLE();
 125:Core/Src/usart.c **** 
 126:Core/Src/usart.c ****     /**USART1 GPIO Configuration
 127:Core/Src/usart.c ****     PA9     ------> USART1_TX
 128:Core/Src/usart.c ****     PA10     ------> USART1_RX
 129:Core/Src/usart.c ****     */
 130:Core/Src/usart.c ****     HAL_GPIO_DeInit(GPIOA, debug_tx_Pin|debug_rx_Pin);
 131:Core/Src/usart.c **** 
 132:Core/Src/usart.c ****   /* USER CODE BEGIN USART1_MspDeInit 1 */
 133:Core/Src/usart.c **** 
 134:Core/Src/usart.c ****   /* USER CODE END USART1_MspDeInit 1 */
 135:Core/Src/usart.c ****   }
 136:Core/Src/usart.c **** }
 355              		.loc 1 136 1 view .LVU105
 356 0008 7047     		bx	lr
 357              	.L36:
 124:Core/Src/usart.c **** 
 358              		.loc 1 124 5 is_stmt 1 view .LVU106
 359 000a 074A     		ldr	r2, .L37+4
 130:Core/Src/usart.c **** 
 360              		.loc 1 130 5 is_stmt 0 view .LVU107
 361 000c 4FF4C061 		mov	r1, #1536
 362 0010 0648     		ldr	r0, .L37+8
 363              	.LVL21:
 124:Core/Src/usart.c **** 
 364              		.loc 1 124 5 view .LVU108
 365 0012 D2F8F030 		ldr	r3, [r2, #240]
 366 0016 23F01003 		bic	r3, r3, #16
 367 001a C2F8F030 		str	r3, [r2, #240]
 130:Core/Src/usart.c **** 
 368              		.loc 1 130 5 is_stmt 1 view .LVU109
ARM GAS  /tmp/ccCnNNF2.s 			page 11


 369 001e FFF7FEBF 		b	HAL_GPIO_DeInit
 370              	.LVL22:
 371              	.L38:
 372 0022 00BF     		.align	2
 373              	.L37:
 374 0024 00100140 		.word	1073811456
 375 0028 00440258 		.word	1476543488
 376 002c 00000258 		.word	1476526080
 377              		.cfi_endproc
 378              	.LFE146:
 380              		.global	huart1
 381              		.section	.bss.huart1,"aw",%nobits
 382              		.align	2
 383              		.set	.LANCHOR0,. + 0
 386              	huart1:
 387 0000 00000000 		.space	144
 387      00000000 
 387      00000000 
 387      00000000 
 387      00000000 
 388              		.text
 389              	.Letext0:
 390              		.file 2 "/usr/lib/gcc/arm-none-eabi/10.3.1/include/stdint.h"
 391              		.file 3 "Drivers/CMSIS/Device/ST/STM32H7xx/Include/stm32h743xx.h"
 392              		.file 4 "Drivers/STM32H7xx_HAL_Driver/Inc/stm32h7xx_hal_def.h"
 393              		.file 5 "Drivers/STM32H7xx_HAL_Driver/Inc/stm32h7xx_hal_rcc_ex.h"
 394              		.file 6 "Drivers/STM32H7xx_HAL_Driver/Inc/stm32h7xx_hal_gpio.h"
 395              		.file 7 "Drivers/STM32H7xx_HAL_Driver/Inc/stm32h7xx_hal_dma.h"
 396              		.file 8 "Drivers/STM32H7xx_HAL_Driver/Inc/stm32h7xx_hal_uart.h"
 397              		.file 9 "Core/Inc/main.h"
 398              		.file 10 "Drivers/STM32H7xx_HAL_Driver/Inc/stm32h7xx_hal_uart_ex.h"
 399              		.file 11 "Core/Inc/usart.h"
 400              		.file 12 "<built-in>"
ARM GAS  /tmp/ccCnNNF2.s 			page 12

